
.//main.elf:     file format elf32-sparc


Disassembly of section .text:

40000000 <_start>:
40000000:	40 00 00 a1 	call  40000284 <clear_stack_pointers>
40000004:	01 00 00 00 	nop 

40000008 <CORTOS_SET_PSR>:
40000008:	21 00 00 04 	sethi  %hi(0x1000), %l0
4000000c:	a0 14 20 e0 	or  %l0, 0xe0, %l0	! 10e0 <__DYNAMIC+0x10e0>
40000010:	81 88 00 10 	mov  %l0, %psr

40000014 <COROTS_WIMSET>:
40000014:	a0 10 20 01 	mov  1, %l0
40000018:	81 94 20 00 	mov  %l0, %wim
4000001c:	21 10 00 38 	sethi  %hi(0x4000e000), %l0
40000020:	a0 14 20 00 	mov  %l0, %l0	! 4000e000 <trap_table_base>
40000024:	81 9c 20 00 	mov  %l0, %tbr

40000028 <CORTOS_READ_CORE_THREAD_ID>:
40000028:	a3 47 40 00 	rd  %asr29, %l1

4000002c <CORTOS_SETUP_THREADS>:
4000002c:	25 14 14 80 	sethi  %hi(0x50520000), %l2
40000030:	80 a4 40 12 	cmp  %l1, %l2
40000034:	12 80 00 90 	bne  40000274 <CORTOS_HALT_ERROR>
40000038:	01 00 00 00 	nop 
4000003c:	1d 10 00 83 	sethi  %hi(0x40020c00), %sp
40000040:	9c 13 a3 a0 	or  %sp, 0x3a0, %sp	! 40020fa0 <allocatedLocks+0x6480>
40000044:	bc 10 00 00 	mov  %g0, %fp
40000048:	05 10 00 51 	sethi  %hi(0x40014400), %g2
4000004c:	84 10 a2 70 	or  %g2, 0x270, %g2	! 40014670 <INIT_BY_00_DONE>
40000050:	c4 00 80 00 	ld  [ %g2 ], %g2
40000054:	86 10 20 00 	clr  %g3
40000058:	c6 20 80 00 	st  %g3, [ %g2 ]
4000005c:	05 10 00 51 	sethi  %hi(0x40014400), %g2
40000060:	84 10 a2 6c 	or  %g2, 0x26c, %g2	! 4001466c <PT_FLAG>
40000064:	c4 00 80 00 	ld  [ %g2 ], %g2
40000068:	86 10 20 00 	clr  %g3
4000006c:	c6 20 80 00 	st  %g3, [ %g2 ]
40000070:	40 00 00 5a 	call  400001d8 <__cortos_init_region_to_zero>
40000074:	01 00 00 00 	nop 
40000078:	40 00 2d e2 	call  4000b800 <page_table_setup>
4000007c:	01 00 00 00 	nop 
40000080:	2d 10 00 51 	sethi  %hi(0x40014400), %l6
40000084:	ac 15 a2 6c 	or  %l6, 0x26c, %l6	! 4001466c <PT_FLAG>
40000088:	ec 05 80 00 	ld  [ %l6 ], %l6
4000008c:	ae 10 20 01 	mov  1, %l7
40000090:	ee 25 80 00 	st  %l7, [ %l6 ]
40000094:	40 00 2f aa 	call  4000bf3c <set_context_table_pointer>
40000098:	01 00 00 00 	nop 
4000009c:	90 10 20 01 	mov  1, %o0	! 1 <__DYNAMIC+0x1>
400000a0:	d0 a0 00 80 	sta  %o0, [ %g0 ] #ASI_N
400000a4:	40 00 1c ba 	call  4000738c <cortos_init_locks>
400000a8:	01 00 00 00 	nop 
400000ac:	40 00 1d 6a 	call  40007654 <__cortos_bpool>
400000b0:	01 00 00 00 	nop 
400000b4:	40 00 1d 8d 	call  400076e8 <__cortos_bpool_ncram>
400000b8:	01 00 00 00 	nop 
400000bc:	40 00 0f f1 	call  40004080 <cortos_init_hw_traps>
400000c0:	01 00 00 00 	nop 
400000c4:	40 00 0f f2 	call  4000408c <cortos_init_sw_traps>
400000c8:	01 00 00 00 	nop 
400000cc:	40 00 18 fe 	call  400064c4 <cortos_init_printing>
400000d0:	01 00 00 00 	nop 
400000d4:	40 00 1d ab 	call  40007780 <cortos_init_logging>
400000d8:	01 00 00 00 	nop 
400000dc:	40 00 1a 3d 	call  400069d0 <setup>
400000e0:	01 00 00 00 	nop 
400000e4:	05 10 00 51 	sethi  %hi(0x40014400), %g2
400000e8:	84 10 a2 70 	or  %g2, 0x270, %g2	! 40014670 <INIT_BY_00_DONE>
400000ec:	c4 00 80 00 	ld  [ %g2 ], %g2
400000f0:	86 10 20 01 	mov  1, %g3
400000f4:	c6 20 80 00 	st  %g3, [ %g2 ]
400000f8:	a3 47 40 00 	rd  %asr29, %l1
400000fc:	10 80 00 1c 	b  4000016c <CORTOS_START_THREADS>
40000100:	01 00 00 00 	nop 

40000104 <AFTER_PTABLE_SETUP>:
40000104:	2d 10 00 51 	sethi  %hi(0x40014400), %l6
40000108:	ac 15 a2 6c 	or  %l6, 0x26c, %l6	! 4001466c <PT_FLAG>
4000010c:	ec 05 80 00 	ld  [ %l6 ], %l6
40000110:	ee 05 80 00 	ld  [ %l6 ], %l7
40000114:	b0 10 20 01 	mov  1, %i0
40000118:	80 a6 00 17 	cmp  %i0, %l7
4000011c:	12 bf ff fa 	bne  40000104 <AFTER_PTABLE_SETUP>
40000120:	01 00 00 00 	nop 
40000124:	40 00 2f 86 	call  4000bf3c <set_context_table_pointer>
40000128:	01 00 00 00 	nop 
4000012c:	90 10 20 01 	mov  1, %o0	! 1 <__DYNAMIC+0x1>
40000130:	d0 a0 00 80 	sta  %o0, [ %g0 ] #ASI_N
40000134:	10 80 00 0e 	b  4000016c <CORTOS_START_THREADS>
40000138:	01 00 00 00 	nop 

4000013c <ODD_THREAD_WAIT_ON_PTABLE_SETUP>:
4000013c:	2d 10 00 51 	sethi  %hi(0x40014400), %l6
40000140:	ac 15 a2 6c 	or  %l6, 0x26c, %l6	! 4001466c <PT_FLAG>
40000144:	ec 05 80 00 	ld  [ %l6 ], %l6
40000148:	ee 05 80 00 	ld  [ %l6 ], %l7
4000014c:	b0 10 20 01 	mov  1, %i0
40000150:	80 a6 00 17 	cmp  %i0, %l7
40000154:	12 bf ff fa 	bne  4000013c <ODD_THREAD_WAIT_ON_PTABLE_SETUP>
40000158:	01 00 00 00 	nop 
4000015c:	40 00 2f 78 	call  4000bf3c <set_context_table_pointer>
40000160:	01 00 00 00 	nop 
40000164:	90 10 20 01 	mov  1, %o0	! 1 <__DYNAMIC+0x1>
40000168:	d0 a0 00 80 	sta  %o0, [ %g0 ] #ASI_N

4000016c <CORTOS_START_THREADS>:
4000016c:	25 14 14 80 	sethi  %hi(0x50520000), %l2
40000170:	80 a4 40 12 	cmp  %l1, %l2
40000174:	12 80 00 40 	bne  40000274 <CORTOS_HALT_ERROR>
40000178:	01 00 00 00 	nop 
4000017c:	40 00 1c 06 	call  40007194 <main_00>
40000180:	01 00 00 00 	nop 

40000184 <START_THREAD_0_0_LOOP>:
40000184:	10 80 00 3e 	b  4000027c <CORTOS_HALT_OKAY>
40000188:	01 00 00 00 	nop 

4000018c <__cortos_clear_stack_pointers>:
4000018c:	81 90 00 00 	mov  %g0, %wim
40000190:	9c 10 00 00 	mov  %g0, %sp
40000194:	81 e0 00 00 	save 
40000198:	9c 10 00 00 	mov  %g0, %sp
4000019c:	81 e0 00 00 	save 
400001a0:	9c 10 00 00 	mov  %g0, %sp
400001a4:	81 e0 00 00 	save 
400001a8:	9c 10 00 00 	mov  %g0, %sp
400001ac:	81 e0 00 00 	save 
400001b0:	9c 10 00 00 	mov  %g0, %sp
400001b4:	81 e0 00 00 	save 
400001b8:	9c 10 00 00 	mov  %g0, %sp
400001bc:	81 e0 00 00 	save 
400001c0:	9c 10 00 00 	mov  %g0, %sp
400001c4:	81 e0 00 00 	save 
400001c8:	9c 10 00 00 	mov  %g0, %sp
400001cc:	81 e0 00 00 	save 
400001d0:	81 c3 e0 08 	retl 
400001d4:	01 00 00 00 	nop 

400001d8 <__cortos_init_region_to_zero>:
400001d8:	21 10 00 54 	sethi  %hi(0x40015000), %l0
400001dc:	a0 14 20 00 	mov  %l0, %l0	! 40015000 <printingLockAddr>
400001e0:	25 10 00 6c 	sethi  %hi(0x4001b000), %l2
400001e4:	a4 14 a0 00 	mov  %l2, %l2	! 4001b000 <allocatedLocks+0x4e0>
400001e8:	a4 24 a0 04 	sub  %l2, 4, %l2

400001ec <_cortos_zero_init_area_BssSection>:
400001ec:	c0 2c 00 00 	clrb  [ %l0 ]
400001f0:	80 a4 00 12 	cmp  %l0, %l2
400001f4:	12 bf ff fe 	bne  400001ec <_cortos_zero_init_area_BssSection>
400001f8:	a0 04 20 01 	inc  %l0
400001fc:	21 10 00 6c 	sethi  %hi(0x4001b000), %l0
40000200:	a0 14 20 00 	mov  %l0, %l0	! 4001b000 <allocatedLocks+0x4e0>
40000204:	25 10 00 70 	sethi  %hi(0x4001c000), %l2
40000208:	a4 14 a0 00 	mov  %l2, %l2	! 4001c000 <allocatedLocks+0x14e0>
4000020c:	a4 24 a0 04 	sub  %l2, 4, %l2

40000210 <_cortos_zero_init_area_CacheableLocks>:
40000210:	c0 2c 00 00 	clrb  [ %l0 ]
40000214:	80 a4 00 12 	cmp  %l0, %l2
40000218:	12 bf ff fe 	bne  40000210 <_cortos_zero_init_area_CacheableLocks>
4000021c:	a0 04 20 01 	inc  %l0
40000220:	21 10 00 70 	sethi  %hi(0x4001c000), %l0
40000224:	a0 14 20 00 	mov  %l0, %l0	! 4001c000 <allocatedLocks+0x14e0>
40000228:	25 10 00 74 	sethi  %hi(0x4001d000), %l2
4000022c:	a4 14 a0 00 	mov  %l2, %l2	! 4001d000 <allocatedLocks+0x24e0>
40000230:	a4 24 a0 04 	sub  %l2, 4, %l2

40000234 <_cortos_zero_init_area_NonCacheableLocks>:
40000234:	c0 2c 00 00 	clrb  [ %l0 ]
40000238:	80 a4 00 12 	cmp  %l0, %l2
4000023c:	12 bf ff fe 	bne  40000234 <_cortos_zero_init_area_NonCacheableLocks>
40000240:	a0 04 20 01 	inc  %l0
40000244:	81 c3 e0 08 	retl 
40000248:	01 00 00 00 	nop 

4000024c <__cortos_wait_for_init_by_00>:
4000024c:	2d 10 00 51 	sethi  %hi(0x40014400), %l6
40000250:	ac 15 a2 70 	or  %l6, 0x270, %l6	! 40014670 <INIT_BY_00_DONE>
40000254:	ec 05 80 00 	ld  [ %l6 ], %l6

40000258 <_CORTOS_WAIT_FOR_INIT_BY_00>:
40000258:	ee 05 80 00 	ld  [ %l6 ], %l7
4000025c:	b0 10 20 01 	mov  1, %i0
40000260:	80 a6 00 17 	cmp  %i0, %l7
40000264:	12 bf ff fd 	bne  40000258 <_CORTOS_WAIT_FOR_INIT_BY_00>
40000268:	01 00 00 00 	nop 
4000026c:	81 c3 e0 08 	retl 
40000270:	01 00 00 00 	nop 

40000274 <CORTOS_HALT_ERROR>:
40000274:	a1 80 20 01 	mov  1, %asr16
40000278:	91 d0 20 00 	ta  0

4000027c <CORTOS_HALT_OKAY>:
4000027c:	a1 80 20 00 	mov  %g0, %asr16
40000280:	91 d0 20 00 	ta  0

40000284 <clear_stack_pointers>:
40000284:	81 90 00 00 	mov  %g0, %wim
40000288:	9c 10 00 00 	mov  %g0, %sp
4000028c:	81 e0 00 00 	save 
40000290:	9c 10 00 00 	mov  %g0, %sp
40000294:	81 e0 00 00 	save 
40000298:	9c 10 00 00 	mov  %g0, %sp
4000029c:	81 e0 00 00 	save 
400002a0:	9c 10 00 00 	mov  %g0, %sp
400002a4:	81 e0 00 00 	save 
400002a8:	9c 10 00 00 	mov  %g0, %sp
400002ac:	81 e0 00 00 	save 
400002b0:	9c 10 00 00 	mov  %g0, %sp
400002b4:	81 e0 00 00 	save 
400002b8:	9c 10 00 00 	mov  %g0, %sp
400002bc:	81 e0 00 00 	save 
400002c0:	9c 10 00 00 	mov  %g0, %sp
400002c4:	81 e0 00 00 	save 
400002c8:	81 c3 e0 08 	retl 
400002cc:	01 00 00 00 	nop 
	...

40000300 <dmem_blob>:
40000300:	00 20 00 08 	unimp  0xffe00008
40000304:	ba 66 d3 68 	unknown
40000308:	ab 55 6e 64 	unknown
4000030c:	00 20 00 09 	unimp  0xffe00009
40000310:	df 09 a4 66 	unknown
40000314:	08 f1 9f 66 	unknown
40000318:	00 20 00 0a 	unimp  0xffe0000a
4000031c:	bc b3 ef b2 	orncc  %o7, 0xfb2, %fp
40000320:	ca e9 15 e8 	ldstuba  [ %g4 + %o0 ] (175), %g5
40000324:	00 20 00 0b 	unimp  0xffe0000b
40000328:	14 49 22 8c 	unknown
4000032c:	cf f8 6f ff 	unknown
40000330:	00 20 00 0c 	unimp  0xffe0000c
40000334:	d7 22 3f da 	st  %f11, [ %o0 + -38 ]
40000338:	f1 8b 14 55 	ld  [ %o4 + %l5 ], %csr
4000033c:	00 20 00 0d 	unimp  0xffe0000d
40000340:	82 c5 ef 12 	addxcc  %l7, 0xf12, %g1
40000344:	0a f9 23 db 	unknown
40000348:	00 20 00 0e 	unimp  0xffe0000e
4000034c:	e4 45 22 d5 	unknown
40000350:	75 88 60 d8 	call  162186b0 <__DYNAMIC+0x162186b0>
40000354:	00 20 00 0f 	unimp  0xffe0000f
40000358:	95 d9 82 97 	unknown
4000035c:	0f 45 46 cf 	unknown
40000360:	00 20 00 10 	unimp  0xffe00010
40000364:	13 c6 a1 0f 	cb0  401a87a0 <allocatedLocks+0x18dc80>
40000368:	96 f3 0e d1 	unknown
4000036c:	00 20 00 11 	unimp  0xffe00011
40000370:	24 54 cc b8 	unknown
40000374:	1b 4b 99 94 	unknown
40000378:	00 20 00 12 	unimp  0xffe00012
4000037c:	e0 db 7a e5 	unknown
40000380:	a7 35 c1 46 	unknown
40000384:	00 20 00 13 	unimp  0xffe00013
40000388:	2d 5a 79 d2 	unknown
4000038c:	7e b5 2e e5 	call  3ad4bf20 <__DYNAMIC+0x3ad4bf20>
40000390:	00 20 00 14 	unimp  0xffe00014
40000394:	49 6c 74 cd 	call  65b1d6c8 <allocatedLocks+0x25b02ba8>
40000398:	b4 dd 86 85 	unknown
4000039c:	00 20 00 15 	unimp  0xffe00015
400003a0:	07 bb 81 32 	fbul  3fee0868 <__DYNAMIC+0x3fee0868>
400003a4:	d8 00 d1 99 	ld  [ %g3 + %i1 ], %o4
400003a8:	00 20 00 16 	unimp  0xffe00016
400003ac:	c9 13 01 8c 	unknown
400003b0:	83 54 5d 9f 	unknown
400003b4:	00 20 00 17 	unimp  0xffe00017
400003b8:	c6 1a 13 41 	unknown
400003bc:	7a eb b9 d7 	call  2baeeb18 <__DYNAMIC+0x2baeeb18>
400003c0:	00 20 00 18 	unimp  0xffe00018
400003c4:	97 6e af b1 	unknown
400003c8:	aa 3b f1 87 	xnor  %o7, -3705, %l5
400003cc:	00 20 00 19 	unimp  0xffe00019
400003d0:	c9 71 90 18 	unknown
400003d4:	d0 18 f4 34 	ldd  [ %g3 + -3020 ], %o0
400003d8:	00 20 00 1a 	unimp  0xffe0001a
400003dc:	e1 c7 64 1f 	unknown
400003e0:	13 f8 5f 26 	cb0  3fe18078 <__DYNAMIC+0x3fe18078>
400003e4:	00 20 00 1b 	unimp  0xffe0001b
400003e8:	19 8b e9 36 	fbuge  402fa8c0 <allocatedLocks+0x2dfda0>
400003ec:	6f 99 e3 0c 	call  fe67901c <allocatedLocks+0xbe65e4fc>
400003f0:	00 20 00 1c 	unimp  0xffe0001c
400003f4:	37 b4 89 6c 	fbge,a   3fd229a4 <__DYNAMIC+0x3fd229a4>
400003f8:	55 58 a1 49 	call  9562891c <allocatedLocks+0x5560ddfc>
400003fc:	00 20 00 1d 	unimp  0xffe0001d
40000400:	92 21 aa ba 	sub  %g6, 0xaba, %o1
40000404:	19 c3 17 ef 	cb023  400c63c0 <allocatedLocks+0xab8a0>
40000408:	00 20 00 1e 	unimp  0xffe0001e
4000040c:	5d bb e0 00 	call  b6ef840c <allocatedLocks+0x76edd8ec>
40000410:	ab 3b 41 fa 	unknown
40000414:	00 20 00 1f 	unimp  0xffe0001f
40000418:	0c 09 44 3c 	unknown
4000041c:	49 7b 50 ce 	call  65ed4754 <allocatedLocks+0x25eb9c34>
40000420:	00 20 00 20 	unimp  0xffe00020
40000424:	85 76 e2 d3 	unknown
40000428:	45 39 be 3d 	call  54e6fd1c <allocatedLocks+0x14e551fc>
4000042c:	00 20 00 21 	unimp  0xffe00021
40000430:	70 e7 3f ad 	call  39d02e4 <__DYNAMIC+0x39d02e4>
40000434:	52 47 0f 5f 	call  891c41b0 <allocatedLocks+0x491a9690>
40000438:	00 20 00 22 	unimp  0xffe00022
4000043c:	dd 9f e7 b4 	ldd  [ %i7 + 0x7b4 ], %c14
40000440:	b8 0b a7 be 	and  %sp, 0x7be, %i4
40000444:	00 20 00 23 	unimp  0xffe00023
40000448:	98 8b ea 56 	andcc  %o7, 0xa56, %o4
4000044c:	a0 2a e0 25 	andn  %o3, 0x25, %l0
40000450:	00 20 00 24 	unimp  0xffe00024
40000454:	d3 e2 5c 23 	unknown
40000458:	fb a9 d6 be 	unknown
4000045c:	00 20 00 25 	unimp  0xffe00025
40000460:	6d 0b 8e c0 	call  f42e3f60 <allocatedLocks+0xb42c9440>
40000464:	88 54 0a c6 	unknown
40000468:	00 20 00 26 	unimp  0xffe00026
4000046c:	ac f4 48 90 	unknown
40000470:	c3 da 2d f8 	unknown
40000474:	00 20 00 27 	unimp  0xffe00027
40000478:	6f 3a 51 af 	call  fce94b34 <allocatedLocks+0xbce7a014>
4000047c:	7d 35 a8 33 	call  34d6a548 <__DYNAMIC+0x34d6a548>
40000480:	00 20 00 28 	unimp  0xffe00028
40000484:	af 66 d9 e6 	unknown
40000488:	b8 4d ca 00 	unknown
4000048c:	00 20 00 29 	unimp  0xffe00029
40000490:	ed e0 f2 58 	unknown
40000494:	29 ec 32 fe 	cb1,a   3fb0d08c <__DYNAMIC+0x3fb0d08c>
40000498:	00 20 00 2a 	unimp  0xffe0002a
4000049c:	41 db 39 b0 	call  476ceb5c <allocatedLocks+0x76b403c>
400004a0:	23 38 25 be 	sethi  %hi(0xe096f800), %l1
400004a4:	00 20 00 2b 	unimp  0xffe0002b
400004a8:	05 84 9d bb 	fblg  40127b94 <allocatedLocks+0x10d074>
400004ac:	3e 55 f1 92 	unknown
400004b0:	00 20 00 2c 	unimp  0xffe0002c
400004b4:	ff ba 87 8c 	unknown
400004b8:	d2 90 90 01 	lduha  [ %g2 + %g1 ] #ASI_P, %o1
400004bc:	00 20 00 2d 	unimp  0xffe0002d
400004c0:	cf d8 ba 18 	unknown
400004c4:	2d 7b 20 d3 	unknown
400004c8:	00 20 00 2e 	unimp  0xffe0002e
400004cc:	35 e1 23 7d 	cb03,a   3f8492c0 <__DYNAMIC+0x3f8492c0>
400004d0:	79 bc 4f 74 	call  26f142a0 <__DYNAMIC+0x26f142a0>
400004d4:	00 20 00 2f 	unimp  0xffe0002f
400004d8:	1a f0 ca 9a 	unknown
400004dc:	fa 82 56 6d 	lda  [ %o1 + %o5 ] (179), %i5
400004e0:	00 20 00 30 	unimp  0xffe00030
400004e4:	7f d6 96 c1 	call  3f5a5fe8 <__DYNAMIC+0x3f5a5fe8>
400004e8:	bc 20 a1 ee 	sub  %g2, 0x1ee, %fp
400004ec:	00 20 00 31 	unimp  0xffe00031
400004f0:	ba 15 20 80 	or  %l4, 0x80, %i5
400004f4:	06 19 46 db 	unknown
400004f8:	00 20 00 32 	unimp  0xffe00032
400004fc:	19 2c 8f cd 	sethi  %hi(0xb23f3400), %o4
40000500:	77 d5 34 14 	call  1f54d550 <__DYNAMIC+0x1f54d550>
40000504:	00 20 00 33 	unimp  0xffe00033
40000508:	0e e0 44 8d 	unknown
4000050c:	3b 6b 6d 48 	unknown
40000510:	00 20 00 34 	unimp  0xffe00034
40000514:	e0 61 ea 6c 	unknown
40000518:	5d 02 a1 13 	call  b40a8964 <allocatedLocks+0x7408de44>
4000051c:	00 20 00 35 	unimp  0xffe00035
40000520:	8e 9e ba 42 	xorcc  %i2, -1470, %g7
40000524:	2d fb c6 68 	cb2,a   3fef1ec4 <__DYNAMIC+0x3fef1ec4>
40000528:	00 20 00 36 	unimp  0xffe00036
4000052c:	3d a6 7b 67 	fbule,a   3f99f2c8 <__DYNAMIC+0x3f99f2c8>
40000530:	11 26 4d b2 	sethi  %hi(0x9936c800), %o0
40000534:	00 20 00 37 	unimp  0xffe00037
40000538:	09 23 73 5b 	sethi  %hi(0x8dcd6c00), %g4
4000053c:	eb 25 47 f5 	unknown
40000540:	00 20 00 38 	unimp  0xffe00038
40000544:	84 7d bd 06 	sdiv  %l6, -762, %g2
40000548:	83 1b 77 4f 	tsubcctv  %o5, -2225, %g1
4000054c:	00 20 00 39 	unimp  0xffe00039
40000550:	fd 80 a6 5d 	ld  [ %g2 + 0x65d ], %c30
40000554:	54 48 1a c3 	call  91207060 <allocatedLocks+0x511ec540>
40000558:	00 20 00 3a 	unimp  0xffe0003a
4000055c:	8c 52 68 a8 	umul  %o1, 0x8a8, %g6
40000560:	2e 4e e9 37 	unknown
40000564:	00 20 00 3b 	unimp  0xffe0003b
40000568:	ce 48 ff bd 	ldsb  [ %g3 + -67 ], %g7
4000056c:	ab 10 7f 92 	taddcctv  %g1, -110, %l5
40000570:	00 20 00 3c 	unimp  0xffe0003c
40000574:	13 8d ab d3 	fbe  4036b4c0 <allocatedLocks+0x3509a0>
40000578:	9f bb 89 ec 	cpop2  [ %sp + %o4 ], %o7
4000057c:	00 20 00 3d 	unimp  0xffe0003d
40000580:	51 37 c3 9c 	call  84df13f0 <allocatedLocks+0x44dd68d0>
40000584:	54 a7 82 46 	call  929e0e9c <allocatedLocks+0x529c637c>
40000588:	00 20 00 3e 	unimp  0xffe0003e
4000058c:	a7 03 93 14 	unknown
40000590:	be a4 30 9e 	subcc  %l0, -3938, %i7
40000594:	00 20 00 3f 	unimp  0xffe0003f
40000598:	47 6e 37 5c 	call  5db8e308 <allocatedLocks+0x1db737e8>
4000059c:	cb 32 de ee 	unknown
400005a0:	00 20 00 40 	unimp  0xffe00040
400005a4:	70 27 48 b9 	call  9d2888 <__DYNAMIC+0x9d2888>
400005a8:	3c b8 82 d1 	bpos,a   3fe210ec <__DYNAMIC+0x3fe210ec>
400005ac:	00 20 00 41 	unimp  0xffe00041
400005b0:	88 45 05 0b 	unknown
400005b4:	42 24 60 dc 	call  48918924 <allocatedLocks+0x88fde04>
400005b8:	00 20 00 42 	unimp  0xffe00042
400005bc:	ce f3 7a 71 	unknown
400005c0:	6b fd 6f 5b 	call  eff5c32c <allocatedLocks+0xaff4180c>
400005c4:	00 20 00 43 	unimp  0xffe00043
400005c8:	73 bc 2e ff 	call  ef0c1c4 <__DYNAMIC+0xef0c1c4>
400005cc:	e2 95 69 76 	unknown
400005d0:	00 20 00 44 	unimp  0xffe00044
400005d4:	04 21 c1 a4 	unknown
400005d8:	48 3b 7c 6b 	call  60edf784 <allocatedLocks+0x20ec4c64>
400005dc:	00 20 00 45 	unimp  0xffe00045
400005e0:	42 87 3e 81 	call  4a1cffe4 <allocatedLocks+0xa1b54c4>
400005e4:	13 3d 68 3e 	sethi  %hi(0xf5a0f800), %o1
400005e8:	00 20 00 46 	unimp  0xffe00046
400005ec:	c0 d0 74 6c 	unknown
400005f0:	e8 6a a6 53 	ldstub  [ %o2 + 0x653 ], %l4
400005f4:	00 20 00 47 	unimp  0xffe00047
400005f8:	b2 5a 9e 00 	unknown
400005fc:	3e 06 1a 97 	unknown
40000600:	00 20 00 48 	unimp  0xffe00048
40000604:	ad d9 a0 b1 	flush  %g6 + 0xb1
40000608:	8a 63 51 a2 	unknown
4000060c:	00 20 00 49 	unimp  0xffe00049
40000610:	b5 d0 28 b8 	tg  0x8b8
40000614:	a9 5e ef 9b 	unknown
40000618:	00 20 00 4a 	unimp  0xffe0004a
4000061c:	e7 db cc a6 	unknown
40000620:	ec 17 10 ce 	unknown
40000624:	00 20 00 4b 	unimp  0xffe0004b
40000628:	b0 83 02 c3 	unknown
4000062c:	ac 96 ed 24 	orcc  %i3, 0xd24, %l6
40000630:	00 20 00 4c 	unimp  0xffe0004c
40000634:	38 2f f4 ae 	unknown
40000638:	fe ab fb d3 	unknown
4000063c:	00 20 00 4d 	unimp  0xffe0004d
40000640:	8b 58 ee b4 	unknown
40000644:	cb c3 eb f4 	unknown
40000648:	00 20 00 4e 	unimp  0xffe0004e
4000064c:	6c 55 7c d1 	call  f155f990 <allocatedLocks+0xb1544e70>
40000650:	d1 02 7b f2 	ld  [ %o1 + -1038 ], %f8
40000654:	00 20 00 4f 	unimp  0xffe0004f
40000658:	a4 25 d7 0d 	unknown
4000065c:	e7 58 57 cd 	unknown
40000660:	00 20 00 50 	unimp  0xffe00050
40000664:	a4 27 b6 79 	sub  %fp, -2439, %l2
40000668:	17 9a b4 bb 	fbge  406ad954 <allocatedLocks+0x692e34>
4000066c:	00 20 00 51 	unimp  0xffe00051
40000670:	0d 42 96 f3 	unknown
40000674:	01 88 93 04 	fbn  40225284 <allocatedLocks+0x20a764>
40000678:	00 20 00 52 	unimp  0xffe00052
4000067c:	27 c8 cb dd 	cb13,a   402335f0 <allocatedLocks+0x218ad0>
40000680:	33 d8 11 ef 	cb0,a   40604e3c <allocatedLocks+0x5ea31c>
40000684:	00 20 00 53 	unimp  0xffe00053
40000688:	71 55 b7 3a 	call  556e370 <__DYNAMIC+0x556e370>
4000068c:	61 db 0b 2f 	call  c76c3348 <allocatedLocks+0x876a8828>
40000690:	00 20 00 54 	unimp  0xffe00054
40000694:	4b 64 47 a7 	call  6d912530 <allocatedLocks+0x2d8f7a10>
40000698:	f6 09 26 1b 	ldub  [ %g4 + 0x61b ], %i3
4000069c:	00 20 00 55 	unimp  0xffe00055
400006a0:	b4 ce 69 db 	unknown
400006a4:	9a 79 6c 97 	sdiv  %g5, 0xc97, %o5
400006a8:	00 20 00 56 	unimp  0xffe00056
400006ac:	ad c5 f6 6e 	jmpl  %l7 + -2450, %l6
400006b0:	fd 63 62 1f 	unknown
400006b4:	00 20 00 57 	unimp  0xffe00057
400006b8:	71 81 3d 92 	call  604fd00 <__DYNAMIC+0x604fd00>
400006bc:	0b 14 0c e4 	sethi  %hi(0x50339000), %g5
400006c0:	00 20 00 58 	unimp  0xffe00058
400006c4:	4c f0 de bf 	call  73c381c0 <allocatedLocks+0x33c1d6a0>
400006c8:	e6 4b 16 91 	unknown
400006cc:	00 20 00 59 	unimp  0xffe00059
400006d0:	4c d4 b4 e3 	call  7352da5c <allocatedLocks+0x33512f3c>
400006d4:	29 69 bf b0 	unknown
400006d8:	00 20 00 5a 	unimp  0xffe0005a
400006dc:	f5 51 e0 c7 	unknown
400006e0:	17 0c 62 84 	sethi  %hi(0x318a1000), %o3
400006e4:	00 20 00 5b 	unimp  0xffe0005b
400006e8:	dc 72 19 28 	unknown
400006ec:	47 f0 0f cb 	call  5fc04618 <allocatedLocks+0x1fbe9af8>
400006f0:	00 20 00 5c 	unimp  0xffe0005c
400006f4:	5e 5e 8b ee 	call  b97a36ac <allocatedLocks+0x79788b8c>
400006f8:	e1 57 f2 4c 	unknown
400006fc:	00 20 00 5d 	unimp  0xffe0005d
40000700:	62 af 01 4e 	call  cabc0c38 <allocatedLocks+0x8aba6118>
40000704:	91 96 81 e1 	unknown
40000708:	00 20 00 5e 	unimp  0xffe0005e
4000070c:	62 8f 5b 18 	call  ca3d736c <allocatedLocks+0x8a3bc84c>
40000710:	f9 2c dc d3 	unknown
40000714:	00 20 00 5f 	unimp  0xffe0005f
40000718:	72 d0 c6 7b 	call  b432104 <__DYNAMIC+0xb432104>
4000071c:	fa 5d 75 ab 	unknown
40000720:	00 20 00 60 	unimp  0xffe00060
40000724:	65 6e 97 76 	call  d5ba64fc <allocatedLocks+0x95b8b9dc>
40000728:	8b d0 70 6c 	tcs  %g1 + -3988
4000072c:	00 20 00 61 	unimp  0xffe00061
40000730:	10 57 08 5f 	unknown
40000734:	e0 43 38 63 	unknown
40000738:	00 20 00 62 	unimp  0xffe00062
4000073c:	ec c0 25 71 	unknown
40000740:	86 e0 8e f3 	unknown
40000744:	00 20 00 63 	unimp  0xffe00063
40000748:	b0 c0 da d7 	unknown
4000074c:	46 98 29 ad 	call  5a60ae00 <allocatedLocks+0x1a5f02e0>
40000750:	00 20 00 64 	unimp  0xffe00064
40000754:	01 65 0a 2a 	unknown
40000758:	c4 8f 5d 56 	lduba  [ %i5 + %l6 ] (234), %g2
4000075c:	00 20 00 65 	unimp  0xffe00065
40000760:	81 17 35 a1 	taddcctv  %i4, -2655, %g0
40000764:	01 fc 59 73 	cbn  3ff16d30 <__DYNAMIC+0x3ff16d30>
40000768:	00 20 00 66 	unimp  0xffe00066
4000076c:	c2 db a2 3b 	unknown
40000770:	f4 3a 00 9d 	unknown
40000774:	00 20 00 67 	unimp  0xffe00067
40000778:	9b 28 d6 5b 	unknown
4000077c:	5e 17 17 32 	call  b85c6444 <allocatedLocks+0x785ab924>
40000780:	00 20 00 68 	unimp  0xffe00068
40000784:	a5 4f cd d6 	unknown
40000788:	1c 65 fb d1 	unknown
4000078c:	00 20 00 69 	unimp  0xffe00069
40000790:	e6 50 7a 0d 	ldsh  [ %g1 + -1523 ], %l3
40000794:	96 b3 7a 6b 	orncc  %o5, -1429, %o3
40000798:	00 20 00 6a 	unimp  0xffe0006a
4000079c:	33 c6 2e ce 	cb0,a   4018c2d4 <allocatedLocks+0x1717b4>
400007a0:	6e 4a 16 09 	call  f9285fc4 <allocatedLocks+0xb926b4a4>
400007a4:	00 20 00 6b 	unimp  0xffe0006b
400007a8:	cf c0 ed 5c 	unknown
400007ac:	f7 96 27 4e 	unknown
400007b0:	00 20 00 6c 	unimp  0xffe0006c
400007b4:	9d 04 7e a8 	taddcc  %l1, -344, %sp
400007b8:	82 86 15 d1 	unknown
400007bc:	00 20 00 6d 	unimp  0xffe0006d
400007c0:	4d d6 e5 d2 	call  775b9f08 <allocatedLocks+0x3759f3e8>
400007c4:	de 66 31 1e 	unknown
400007c8:	00 20 00 6e 	unimp  0xffe0006e
400007cc:	d2 d9 4f f5 	unknown
400007d0:	f0 3d 90 62 	unknown
400007d4:	00 20 00 6f 	unimp  0xffe0006f
400007d8:	78 d4 9e 7f 	call  235281d4 <__DYNAMIC+0x235281d4>
400007dc:	63 c6 b7 8f 	call  cf1ae618 <allocatedLocks+0x8f193af8>
400007e0:	00 20 00 70 	unimp  0xffe00070
400007e4:	a5 45 5a 58 	unknown
400007e8:	5c 15 85 8b 	call  b0561e14 <allocatedLocks+0x705472f4>
400007ec:	00 20 00 71 	unimp  0xffe00071
400007f0:	cd 0d f6 a0 	unknown
400007f4:	6e ee 6d 81 	call  fbb9bdf8 <allocatedLocks+0xbbb812d8>
400007f8:	00 20 00 72 	unimp  0xffe00072
400007fc:	41 16 a4 5f 	call  445a9978 <allocatedLocks+0x458ee58>
40000800:	56 59 29 37 	call  9964acdc <allocatedLocks+0x596301bc>
40000804:	00 20 00 73 	unimp  0xffe00073
40000808:	6e 16 dd 14 	call  f85b7c58 <allocatedLocks+0xb859d138>
4000080c:	ea 7c f4 6e 	swap  [ %l3 + -2962 ], %l5
40000810:	00 20 00 74 	unimp  0xffe00074
40000814:	ef d6 9f a2 	unknown
40000818:	bc 03 76 cf 	add  %o5, -2353, %fp
4000081c:	00 20 00 75 	unimp  0xffe00075
40000820:	3b 70 89 33 	unknown
40000824:	6c ca 3a 9a 	call  f328f28c <allocatedLocks+0xb327476c>
40000828:	00 20 00 76 	unimp  0xffe00076
4000082c:	8f 39 cf 12 	unknown
40000830:	82 c8 7f e3 	unknown
40000834:	00 20 00 77 	unimp  0xffe00077
40000838:	68 95 c0 d5 	call  e2570b8c <allocatedLocks+0xa255606c>
4000083c:	44 79 03 d1 	call  51e41780 <allocatedLocks+0x11e26c60>
40000840:	00 20 00 78 	unimp  0xffe00078
40000844:	f7 5c 4b cb 	unknown
40000848:	57 7f 14 4d 	call  9dfc597c <allocatedLocks+0x5dfaae5c>
4000084c:	00 20 00 79 	unimp  0xffe00079
40000850:	b1 18 a6 99 	tsubcctv  %g2, 0x699, %i0
40000854:	29 27 e2 3a 	sethi  %hi(0x9f88e800), %l4
40000858:	00 20 00 7a 	unimp  0xffe0007a
4000085c:	5d f1 31 d3 	call  b7c4cfa8 <allocatedLocks+0x77c32488>
40000860:	26 01 cc 79 	unknown
40000864:	00 20 00 7b 	unimp  0xffe0007b
40000868:	17 ea b9 d5 	cb02  3faaefbc <__DYNAMIC+0x3faaefbc>
4000086c:	37 9a d1 40 	fbge,a   406b4d6c <allocatedLocks+0x69a24c>
40000870:	00 20 00 7c 	unimp  0xffe0007c
40000874:	97 b4 69 e1 	cpop1  [ %l1 + %g1 ], %o3
40000878:	12 1a c0 a3 	unknown
4000087c:	00 20 00 7d 	unimp  0xffe0007d
40000880:	2d 89 95 91 	fbg,a   40265ec4 <allocatedLocks+0x24b3a4>
40000884:	db f5 f4 cb 	unknown
40000888:	00 20 00 7e 	unimp  0xffe0007e
4000088c:	b9 a5 48 7c 	faddq  %f52, %f28, %f28
40000890:	0e 1d 07 6b 	unknown
40000894:	00 20 00 7f 	unimp  0xffe0007f
40000898:	b2 ff 21 7d 	sdivcc  %i4, 0x17d, %i1
4000089c:	f9 46 91 e4 	unknown
400008a0:	00 20 00 80 	unimp  0xffe00080
400008a4:	8c 23 5d 2c 	unknown
400008a8:	9f 90 df 69 	unknown
400008ac:	00 20 00 81 	unimp  0xffe00081
400008b0:	19 a2 a6 74 	fbuge  3f8aa280 <__DYNAMIC+0x3f8aa280>
400008b4:	59 16 e0 2d 	call  a45b8968 <allocatedLocks+0x6459de48>
400008b8:	00 20 00 82 	unimp  0xffe00082
400008bc:	b5 af 29 58 	unknown
400008c0:	74 93 11 a2 	call  124c4f48 <__DYNAMIC+0x124c4f48>
400008c4:	00 20 00 83 	unimp  0xffe00083
400008c8:	70 7f 63 f1 	call  1fd988c <__DYNAMIC+0x1fd988c>
400008cc:	2c 02 64 0d 	unknown
400008d0:	00 20 00 84 	unimp  0xffe00084
400008d4:	30 c3 74 56 	unknown
400008d8:	a5 a2 f1 d1 	unknown
400008dc:	00 20 00 85 	unimp  0xffe00085
400008e0:	fd d0 00 2f 	unknown
400008e4:	9d 46 4e ed 	unknown
400008e8:	00 20 00 86 	unimp  0xffe00086
400008ec:	96 05 04 c9 	unknown
400008f0:	a9 1d 30 3c 	tsubcctv  %l4, -4036, %l4
400008f4:	00 20 00 87 	unimp  0xffe00087
400008f8:	ce 37 74 f1 	sth  %g7, [ %i5 + -2831 ]
400008fc:	b9 e7 64 9e 	save  %i5, 0x49e, %i4
40000900:	00 20 08 08 	unimp  0xffe00808
40000904:	ba 66 d3 68 	unknown
40000908:	ab 55 6e 64 	unknown
4000090c:	00 20 08 09 	unimp  0xffe00809
40000910:	df 09 a4 66 	unknown
40000914:	08 f1 9f 66 	unknown
40000918:	00 20 08 0a 	unimp  0xffe0080a
4000091c:	bc b3 ef b2 	orncc  %o7, 0xfb2, %fp
40000920:	ca e9 15 e8 	ldstuba  [ %g4 + %o0 ] (175), %g5
40000924:	00 20 08 0b 	unimp  0xffe0080b
40000928:	14 49 22 8c 	unknown
4000092c:	cf f8 6f ff 	unknown
40000930:	00 20 08 0c 	unimp  0xffe0080c
40000934:	d7 22 3f da 	st  %f11, [ %o0 + -38 ]
40000938:	f1 8b 14 55 	ld  [ %o4 + %l5 ], %csr
4000093c:	00 20 08 0d 	unimp  0xffe0080d
40000940:	82 c5 ef 12 	addxcc  %l7, 0xf12, %g1
40000944:	0a f9 23 db 	unknown
40000948:	00 20 08 0e 	unimp  0xffe0080e
4000094c:	e4 45 22 d5 	unknown
40000950:	75 88 60 d8 	call  16218cb0 <__DYNAMIC+0x16218cb0>
40000954:	00 20 08 0f 	unimp  0xffe0080f
40000958:	95 d9 82 97 	unknown
4000095c:	0f 45 46 cf 	unknown
40000960:	00 20 08 10 	unimp  0xffe00810
40000964:	13 c6 a1 0f 	cb0  401a8da0 <allocatedLocks+0x18e280>
40000968:	96 f3 0e d1 	unknown
4000096c:	00 20 08 11 	unimp  0xffe00811
40000970:	24 54 cc b8 	unknown
40000974:	1b 4b 99 94 	unknown
40000978:	00 20 08 12 	unimp  0xffe00812
4000097c:	e0 db 7a e5 	unknown
40000980:	a7 35 c1 46 	unknown
40000984:	00 20 08 13 	unimp  0xffe00813
40000988:	2d 5a 79 d2 	unknown
4000098c:	7e b5 2e e5 	call  3ad4c520 <__DYNAMIC+0x3ad4c520>
40000990:	00 20 08 14 	unimp  0xffe00814
40000994:	49 6c 74 cd 	call  65b1dcc8 <allocatedLocks+0x25b031a8>
40000998:	b4 dd 86 85 	unknown
4000099c:	00 20 08 15 	unimp  0xffe00815
400009a0:	07 bb 81 32 	fbul  3fee0e68 <__DYNAMIC+0x3fee0e68>
400009a4:	d8 00 d1 99 	ld  [ %g3 + %i1 ], %o4
400009a8:	00 20 08 16 	unimp  0xffe00816
400009ac:	c9 13 01 8c 	unknown
400009b0:	83 54 5d 9f 	unknown
400009b4:	00 20 08 17 	unimp  0xffe00817
400009b8:	c6 1a 13 41 	unknown
400009bc:	7a eb b9 d7 	call  2baef118 <__DYNAMIC+0x2baef118>
400009c0:	00 20 08 18 	unimp  0xffe00818
400009c4:	97 6e af b1 	unknown
400009c8:	aa 3b f1 87 	xnor  %o7, -3705, %l5
400009cc:	00 20 08 19 	unimp  0xffe00819
400009d0:	c9 71 90 18 	unknown
400009d4:	d0 18 f4 34 	ldd  [ %g3 + -3020 ], %o0
400009d8:	00 20 08 1a 	unimp  0xffe0081a
400009dc:	e1 c7 64 1f 	unknown
400009e0:	13 f8 5f 26 	cb0  3fe18678 <__DYNAMIC+0x3fe18678>
400009e4:	00 20 08 1b 	unimp  0xffe0081b
400009e8:	19 8b e9 36 	fbuge  402faec0 <allocatedLocks+0x2e03a0>
400009ec:	6f 99 e3 0c 	call  fe67961c <allocatedLocks+0xbe65eafc>
400009f0:	00 20 08 1c 	unimp  0xffe0081c
400009f4:	37 b4 89 6c 	fbge,a   3fd22fa4 <__DYNAMIC+0x3fd22fa4>
400009f8:	55 58 a1 49 	call  95628f1c <allocatedLocks+0x5560e3fc>
400009fc:	00 20 08 1d 	unimp  0xffe0081d
40000a00:	92 21 aa ba 	sub  %g6, 0xaba, %o1
40000a04:	19 c3 17 ef 	cb023  400c69c0 <allocatedLocks+0xabea0>
40000a08:	00 20 08 1e 	unimp  0xffe0081e
40000a0c:	5d bb e0 00 	call  b6ef8a0c <allocatedLocks+0x76eddeec>
40000a10:	ab 3b 41 fa 	unknown
40000a14:	00 20 08 1f 	unimp  0xffe0081f
40000a18:	0c 09 44 3c 	unknown
40000a1c:	49 7b 50 ce 	call  65ed4d54 <allocatedLocks+0x25eba234>
40000a20:	00 20 08 20 	unimp  0xffe00820
40000a24:	85 76 e2 d3 	unknown
40000a28:	45 39 be 3d 	call  54e7031c <allocatedLocks+0x14e557fc>
40000a2c:	00 20 08 21 	unimp  0xffe00821
40000a30:	70 e7 3f ad 	call  39d08e4 <__DYNAMIC+0x39d08e4>
40000a34:	52 47 0f 5f 	call  891c47b0 <allocatedLocks+0x491a9c90>
40000a38:	00 20 08 22 	unimp  0xffe00822
40000a3c:	dd 9f e7 b4 	ldd  [ %i7 + 0x7b4 ], %c14
40000a40:	b8 0b a7 be 	and  %sp, 0x7be, %i4
40000a44:	00 20 08 23 	unimp  0xffe00823
40000a48:	98 8b ea 56 	andcc  %o7, 0xa56, %o4
40000a4c:	a0 2a e0 25 	andn  %o3, 0x25, %l0
40000a50:	00 20 08 24 	unimp  0xffe00824
40000a54:	d3 e2 5c 23 	unknown
40000a58:	fb a9 d6 be 	unknown
40000a5c:	00 20 08 25 	unimp  0xffe00825
40000a60:	6d 0b 8e c0 	call  f42e4560 <allocatedLocks+0xb42c9a40>
40000a64:	88 54 0a c6 	unknown
40000a68:	00 20 08 26 	unimp  0xffe00826
40000a6c:	ac f4 48 90 	unknown
40000a70:	c3 da 2d f8 	unknown
40000a74:	00 20 08 27 	unimp  0xffe00827
40000a78:	6f 3a 51 af 	call  fce95134 <allocatedLocks+0xbce7a614>
40000a7c:	7d 35 a8 33 	call  34d6ab48 <__DYNAMIC+0x34d6ab48>
40000a80:	00 20 08 28 	unimp  0xffe00828
40000a84:	af 66 d9 e6 	unknown
40000a88:	b8 4d ca 00 	unknown
40000a8c:	00 20 08 29 	unimp  0xffe00829
40000a90:	ed e0 f2 58 	unknown
40000a94:	29 ec 32 fe 	cb1,a   3fb0d68c <__DYNAMIC+0x3fb0d68c>
40000a98:	00 20 08 2a 	unimp  0xffe0082a
40000a9c:	41 db 39 b0 	call  476cf15c <allocatedLocks+0x76b463c>
40000aa0:	23 38 25 be 	sethi  %hi(0xe096f800), %l1
40000aa4:	00 20 08 2b 	unimp  0xffe0082b
40000aa8:	05 84 9d bb 	fblg  40128194 <allocatedLocks+0x10d674>
40000aac:	3e 55 f1 92 	unknown
40000ab0:	00 20 08 2c 	unimp  0xffe0082c
40000ab4:	ff ba 87 8c 	unknown
40000ab8:	d2 90 90 01 	lduha  [ %g2 + %g1 ] #ASI_P, %o1
40000abc:	00 20 08 2d 	unimp  0xffe0082d
40000ac0:	cf d8 ba 18 	unknown
40000ac4:	2d 7b 20 d3 	unknown
40000ac8:	00 20 08 2e 	unimp  0xffe0082e
40000acc:	35 e1 23 7d 	cb03,a   3f8498c0 <__DYNAMIC+0x3f8498c0>
40000ad0:	79 bc 4f 74 	call  26f148a0 <__DYNAMIC+0x26f148a0>
40000ad4:	00 20 08 2f 	unimp  0xffe0082f
40000ad8:	1a f0 ca 9a 	unknown
40000adc:	fa 82 56 6d 	lda  [ %o1 + %o5 ] (179), %i5
40000ae0:	00 20 08 30 	unimp  0xffe00830
40000ae4:	7f d6 96 c1 	call  3f5a65e8 <__DYNAMIC+0x3f5a65e8>
40000ae8:	bc 20 a1 ee 	sub  %g2, 0x1ee, %fp
40000aec:	00 20 08 31 	unimp  0xffe00831
40000af0:	ba 15 20 80 	or  %l4, 0x80, %i5
40000af4:	06 19 46 db 	unknown
40000af8:	00 20 08 32 	unimp  0xffe00832
40000afc:	19 2c 8f cd 	sethi  %hi(0xb23f3400), %o4
40000b00:	77 d5 34 14 	call  1f54db50 <__DYNAMIC+0x1f54db50>
40000b04:	00 20 08 33 	unimp  0xffe00833
40000b08:	0e e0 44 8d 	unknown
40000b0c:	3b 6b 6d 48 	unknown
40000b10:	00 20 08 34 	unimp  0xffe00834
40000b14:	e0 61 ea 6c 	unknown
40000b18:	5d 02 a1 13 	call  b40a8f64 <allocatedLocks+0x7408e444>
40000b1c:	00 20 08 35 	unimp  0xffe00835
40000b20:	8e 9e ba 42 	xorcc  %i2, -1470, %g7
40000b24:	2d fb c6 68 	cb2,a   3fef24c4 <__DYNAMIC+0x3fef24c4>
40000b28:	00 20 08 36 	unimp  0xffe00836
40000b2c:	3d a6 7b 67 	fbule,a   3f99f8c8 <__DYNAMIC+0x3f99f8c8>
40000b30:	11 26 4d b2 	sethi  %hi(0x9936c800), %o0
40000b34:	00 20 08 37 	unimp  0xffe00837
40000b38:	09 23 73 5b 	sethi  %hi(0x8dcd6c00), %g4
40000b3c:	eb 25 47 f5 	unknown
40000b40:	00 20 08 38 	unimp  0xffe00838
40000b44:	84 7d bd 06 	sdiv  %l6, -762, %g2
40000b48:	83 1b 77 4f 	tsubcctv  %o5, -2225, %g1
40000b4c:	00 20 08 39 	unimp  0xffe00839
40000b50:	fd 80 a6 5d 	ld  [ %g2 + 0x65d ], %c30
40000b54:	54 48 1a c3 	call  91207660 <allocatedLocks+0x511ecb40>
40000b58:	00 20 08 3a 	unimp  0xffe0083a
40000b5c:	8c 52 68 a8 	umul  %o1, 0x8a8, %g6
40000b60:	2e 4e e9 37 	unknown
40000b64:	00 20 08 3b 	unimp  0xffe0083b
40000b68:	ce 48 ff bd 	ldsb  [ %g3 + -67 ], %g7
40000b6c:	ab 10 7f 92 	taddcctv  %g1, -110, %l5
40000b70:	00 20 08 3c 	unimp  0xffe0083c
40000b74:	13 8d ab d3 	fbe  4036bac0 <allocatedLocks+0x350fa0>
40000b78:	9f bb 89 ec 	cpop2  [ %sp + %o4 ], %o7
40000b7c:	00 20 08 3d 	unimp  0xffe0083d
40000b80:	51 37 c3 9c 	call  84df19f0 <allocatedLocks+0x44dd6ed0>
40000b84:	54 a7 82 46 	call  929e149c <allocatedLocks+0x529c697c>
40000b88:	00 20 08 3e 	unimp  0xffe0083e
40000b8c:	a7 03 93 14 	unknown
40000b90:	be a4 30 9e 	subcc  %l0, -3938, %i7
40000b94:	00 20 08 3f 	unimp  0xffe0083f
40000b98:	47 6e 37 5c 	call  5db8e908 <allocatedLocks+0x1db73de8>
40000b9c:	cb 32 de ee 	unknown
40000ba0:	00 20 08 40 	unimp  0xffe00840
40000ba4:	70 27 48 b9 	call  9d2e88 <__DYNAMIC+0x9d2e88>
40000ba8:	3c b8 82 d1 	bpos,a   3fe216ec <__DYNAMIC+0x3fe216ec>
40000bac:	00 20 08 41 	unimp  0xffe00841
40000bb0:	88 45 05 0b 	unknown
40000bb4:	42 24 60 dc 	call  48918f24 <allocatedLocks+0x88fe404>
40000bb8:	00 20 08 42 	unimp  0xffe00842
40000bbc:	ce f3 7a 71 	unknown
40000bc0:	6b fd 6f 5b 	call  eff5c92c <allocatedLocks+0xaff41e0c>
40000bc4:	00 20 08 43 	unimp  0xffe00843
40000bc8:	73 bc 2e ff 	call  ef0c7c4 <__DYNAMIC+0xef0c7c4>
40000bcc:	e2 95 69 76 	unknown
40000bd0:	00 20 08 44 	unimp  0xffe00844
40000bd4:	04 21 c1 a4 	unknown
40000bd8:	48 3b 7c 6b 	call  60edfd84 <allocatedLocks+0x20ec5264>
40000bdc:	00 20 08 45 	unimp  0xffe00845
40000be0:	42 87 3e 81 	call  4a1d05e4 <allocatedLocks+0xa1b5ac4>
40000be4:	13 3d 68 3e 	sethi  %hi(0xf5a0f800), %o1
40000be8:	00 20 08 46 	unimp  0xffe00846
40000bec:	c0 d0 74 6c 	unknown
40000bf0:	e8 6a a6 53 	ldstub  [ %o2 + 0x653 ], %l4
40000bf4:	00 20 08 47 	unimp  0xffe00847
40000bf8:	b2 5a 9e 00 	unknown
40000bfc:	3e 06 1a 97 	unknown
40000c00:	00 20 08 48 	unimp  0xffe00848
40000c04:	ad d9 a0 b1 	flush  %g6 + 0xb1
40000c08:	8a 63 51 a2 	unknown
40000c0c:	00 20 08 49 	unimp  0xffe00849
40000c10:	b5 d0 28 b8 	tg  0x8b8
40000c14:	a9 5e ef 9b 	unknown
40000c18:	00 20 08 4a 	unimp  0xffe0084a
40000c1c:	e7 db cc a6 	unknown
40000c20:	ec 17 10 ce 	unknown
40000c24:	00 20 08 4b 	unimp  0xffe0084b
40000c28:	b0 83 02 c3 	unknown
40000c2c:	ac 96 ed 24 	orcc  %i3, 0xd24, %l6
40000c30:	00 20 08 4c 	unimp  0xffe0084c
40000c34:	38 2f f4 ae 	unknown
40000c38:	fe ab fb d3 	unknown
40000c3c:	00 20 08 4d 	unimp  0xffe0084d
40000c40:	8b 58 ee b4 	unknown
40000c44:	cb c3 eb f4 	unknown
40000c48:	00 20 08 4e 	unimp  0xffe0084e
40000c4c:	6c 55 7c d1 	call  f155ff90 <allocatedLocks+0xb1545470>
40000c50:	d1 02 7b f2 	ld  [ %o1 + -1038 ], %f8
40000c54:	00 20 08 4f 	unimp  0xffe0084f
40000c58:	a4 25 d7 0d 	unknown
40000c5c:	e7 58 57 cd 	unknown
40000c60:	00 20 08 50 	unimp  0xffe00850
40000c64:	a4 27 b6 79 	sub  %fp, -2439, %l2
40000c68:	17 9a b4 bb 	fbge  406adf54 <allocatedLocks+0x693434>
40000c6c:	00 20 08 51 	unimp  0xffe00851
40000c70:	0d 42 96 f3 	unknown
40000c74:	01 88 93 04 	fbn  40225884 <allocatedLocks+0x20ad64>
40000c78:	00 20 08 52 	unimp  0xffe00852
40000c7c:	27 c8 cb dd 	cb13,a   40233bf0 <allocatedLocks+0x2190d0>
40000c80:	33 d8 11 ef 	cb0,a   4060543c <allocatedLocks+0x5ea91c>
40000c84:	00 20 08 53 	unimp  0xffe00853
40000c88:	71 55 b7 3a 	call  556e970 <__DYNAMIC+0x556e970>
40000c8c:	61 db 0b 2f 	call  c76c3948 <allocatedLocks+0x876a8e28>
40000c90:	00 20 08 54 	unimp  0xffe00854
40000c94:	4b 64 47 a7 	call  6d912b30 <allocatedLocks+0x2d8f8010>
40000c98:	f6 09 26 1b 	ldub  [ %g4 + 0x61b ], %i3
40000c9c:	00 20 08 55 	unimp  0xffe00855
40000ca0:	b4 ce 69 db 	unknown
40000ca4:	9a 79 6c 97 	sdiv  %g5, 0xc97, %o5
40000ca8:	00 20 08 56 	unimp  0xffe00856
40000cac:	ad c5 f6 6e 	jmpl  %l7 + -2450, %l6
40000cb0:	fd 63 62 1f 	unknown
40000cb4:	00 20 08 57 	unimp  0xffe00857
40000cb8:	71 81 3d 92 	call  6050300 <__DYNAMIC+0x6050300>
40000cbc:	0b 14 0c e4 	sethi  %hi(0x50339000), %g5
40000cc0:	00 20 08 58 	unimp  0xffe00858
40000cc4:	4c f0 de bf 	call  73c387c0 <allocatedLocks+0x33c1dca0>
40000cc8:	e6 4b 16 91 	unknown
40000ccc:	00 20 08 59 	unimp  0xffe00859
40000cd0:	4c d4 b4 e3 	call  7352e05c <allocatedLocks+0x3351353c>
40000cd4:	29 69 bf b0 	unknown
40000cd8:	00 20 08 5a 	unimp  0xffe0085a
40000cdc:	f5 51 e0 c7 	unknown
40000ce0:	17 0c 62 84 	sethi  %hi(0x318a1000), %o3
40000ce4:	00 20 08 5b 	unimp  0xffe0085b
40000ce8:	dc 72 19 28 	unknown
40000cec:	47 f0 0f cb 	call  5fc04c18 <allocatedLocks+0x1fbea0f8>
40000cf0:	00 20 08 5c 	unimp  0xffe0085c
40000cf4:	5e 5e 8b ee 	call  b97a3cac <allocatedLocks+0x7978918c>
40000cf8:	e1 57 f2 4c 	unknown
40000cfc:	00 20 08 5d 	unimp  0xffe0085d
40000d00:	62 af 01 4e 	call  cabc1238 <allocatedLocks+0x8aba6718>
40000d04:	91 96 81 e1 	unknown
40000d08:	00 20 08 5e 	unimp  0xffe0085e
40000d0c:	62 8f 5b 18 	call  ca3d796c <allocatedLocks+0x8a3bce4c>
40000d10:	f9 2c dc d3 	unknown
40000d14:	00 20 08 5f 	unimp  0xffe0085f
40000d18:	72 d0 c6 7b 	call  b432704 <__DYNAMIC+0xb432704>
40000d1c:	fa 5d 75 ab 	unknown
40000d20:	00 20 08 60 	unimp  0xffe00860
40000d24:	65 6e 97 76 	call  d5ba6afc <allocatedLocks+0x95b8bfdc>
40000d28:	8b d0 70 6c 	tcs  %g1 + -3988
40000d2c:	00 20 08 61 	unimp  0xffe00861
40000d30:	10 57 08 5f 	unknown
40000d34:	e0 43 38 63 	unknown
40000d38:	00 20 08 62 	unimp  0xffe00862
40000d3c:	ec c0 25 71 	unknown
40000d40:	86 e0 8e f3 	unknown
40000d44:	00 20 08 63 	unimp  0xffe00863
40000d48:	b0 c0 da d7 	unknown
40000d4c:	46 98 29 ad 	call  5a60b400 <allocatedLocks+0x1a5f08e0>
40000d50:	00 20 08 64 	unimp  0xffe00864
40000d54:	01 65 0a 2a 	unknown
40000d58:	c4 8f 5d 56 	lduba  [ %i5 + %l6 ] (234), %g2
40000d5c:	00 20 08 65 	unimp  0xffe00865
40000d60:	81 17 35 a1 	taddcctv  %i4, -2655, %g0
40000d64:	01 fc 59 73 	cbn  3ff17330 <__DYNAMIC+0x3ff17330>
40000d68:	00 20 08 66 	unimp  0xffe00866
40000d6c:	c2 db a2 3b 	unknown
40000d70:	f4 3a 00 9d 	unknown
40000d74:	00 20 08 67 	unimp  0xffe00867
40000d78:	9b 28 d6 5b 	unknown
40000d7c:	5e 17 17 32 	call  b85c6a44 <allocatedLocks+0x785abf24>
40000d80:	00 20 08 68 	unimp  0xffe00868
40000d84:	a5 4f cd d6 	unknown
40000d88:	1c 65 fb d1 	unknown
40000d8c:	00 20 08 69 	unimp  0xffe00869
40000d90:	e6 50 7a 0d 	ldsh  [ %g1 + -1523 ], %l3
40000d94:	96 b3 7a 6b 	orncc  %o5, -1429, %o3
40000d98:	00 20 08 6a 	unimp  0xffe0086a
40000d9c:	33 c6 2e ce 	cb0,a   4018c8d4 <allocatedLocks+0x171db4>
40000da0:	6e 4a 16 09 	call  f92865c4 <allocatedLocks+0xb926baa4>
40000da4:	00 20 08 6b 	unimp  0xffe0086b
40000da8:	cf c0 ed 5c 	unknown
40000dac:	f7 96 27 4e 	unknown
40000db0:	00 20 08 6c 	unimp  0xffe0086c
40000db4:	9d 04 7e a8 	taddcc  %l1, -344, %sp
40000db8:	82 86 15 d1 	unknown
40000dbc:	00 20 08 6d 	unimp  0xffe0086d
40000dc0:	4d d6 e5 d2 	call  775ba508 <allocatedLocks+0x3759f9e8>
40000dc4:	de 66 31 1e 	unknown
40000dc8:	00 20 08 6e 	unimp  0xffe0086e
40000dcc:	d2 d9 4f f5 	unknown
40000dd0:	f0 3d 90 62 	unknown
40000dd4:	00 20 08 6f 	unimp  0xffe0086f
40000dd8:	78 d4 9e 7f 	call  235287d4 <__DYNAMIC+0x235287d4>
40000ddc:	63 c6 b7 8f 	call  cf1aec18 <allocatedLocks+0x8f1940f8>
40000de0:	00 20 08 70 	unimp  0xffe00870
40000de4:	a5 45 5a 58 	unknown
40000de8:	5c 15 85 8b 	call  b0562414 <allocatedLocks+0x705478f4>
40000dec:	00 20 08 71 	unimp  0xffe00871
40000df0:	cd 0d f6 a0 	unknown
40000df4:	6e ee 6d 81 	call  fbb9c3f8 <allocatedLocks+0xbbb818d8>
40000df8:	00 20 08 72 	unimp  0xffe00872
40000dfc:	41 16 a4 5f 	call  445a9f78 <allocatedLocks+0x458f458>
40000e00:	56 59 29 37 	call  9964b2dc <allocatedLocks+0x596307bc>
40000e04:	00 20 08 73 	unimp  0xffe00873
40000e08:	6e 16 dd 14 	call  f85b8258 <allocatedLocks+0xb859d738>
40000e0c:	ea 7c f4 6e 	swap  [ %l3 + -2962 ], %l5
40000e10:	00 20 08 74 	unimp  0xffe00874
40000e14:	ef d6 9f a2 	unknown
40000e18:	bc 03 76 cf 	add  %o5, -2353, %fp
40000e1c:	00 20 08 75 	unimp  0xffe00875
40000e20:	3b 70 89 33 	unknown
40000e24:	6c ca 3a 9a 	call  f328f88c <allocatedLocks+0xb3274d6c>
40000e28:	00 20 08 76 	unimp  0xffe00876
40000e2c:	8f 39 cf 12 	unknown
40000e30:	82 c8 7f e3 	unknown
40000e34:	00 20 08 77 	unimp  0xffe00877
40000e38:	68 95 c0 d5 	call  e257118c <allocatedLocks+0xa255666c>
40000e3c:	44 79 03 d1 	call  51e41d80 <allocatedLocks+0x11e27260>
40000e40:	00 20 08 78 	unimp  0xffe00878
40000e44:	f7 5c 4b cb 	unknown
40000e48:	57 7f 14 4d 	call  9dfc5f7c <allocatedLocks+0x5dfab45c>
40000e4c:	00 20 08 79 	unimp  0xffe00879
40000e50:	b1 18 a6 99 	tsubcctv  %g2, 0x699, %i0
40000e54:	29 27 e2 3a 	sethi  %hi(0x9f88e800), %l4
40000e58:	00 20 08 7a 	unimp  0xffe0087a
40000e5c:	5d f1 31 d3 	call  b7c4d5a8 <allocatedLocks+0x77c32a88>
40000e60:	26 01 cc 79 	unknown
40000e64:	00 20 08 7b 	unimp  0xffe0087b
40000e68:	17 ea b9 d5 	cb02  3faaf5bc <__DYNAMIC+0x3faaf5bc>
40000e6c:	37 9a d1 40 	fbge,a   406b536c <allocatedLocks+0x69a84c>
40000e70:	00 20 08 7c 	unimp  0xffe0087c
40000e74:	97 b4 69 e1 	cpop1  [ %l1 + %g1 ], %o3
40000e78:	12 1a c0 a3 	unknown
40000e7c:	00 20 08 7d 	unimp  0xffe0087d
40000e80:	2d 89 95 91 	fbg,a   402664c4 <allocatedLocks+0x24b9a4>
40000e84:	db f5 f4 cb 	unknown
40000e88:	00 20 08 7e 	unimp  0xffe0087e
40000e8c:	b9 a5 48 7c 	faddq  %f52, %f28, %f28
40000e90:	0e 1d 07 6b 	unknown
40000e94:	00 20 08 7f 	unimp  0xffe0087f
40000e98:	b2 ff 21 7d 	sdivcc  %i4, 0x17d, %i1
40000e9c:	f9 46 91 e4 	unknown
40000ea0:	00 20 08 80 	unimp  0xffe00880
40000ea4:	8c 23 5d 2c 	unknown
40000ea8:	9f 90 df 69 	unknown
40000eac:	00 20 08 81 	unimp  0xffe00881
40000eb0:	19 a2 a6 74 	fbuge  3f8aa880 <__DYNAMIC+0x3f8aa880>
40000eb4:	59 16 e0 2d 	call  a45b8f68 <allocatedLocks+0x6459e448>
40000eb8:	00 20 08 82 	unimp  0xffe00882
40000ebc:	b5 af 29 58 	unknown
40000ec0:	74 93 11 a2 	call  124c5548 <__DYNAMIC+0x124c5548>
40000ec4:	00 20 08 83 	unimp  0xffe00883
40000ec8:	70 7f 63 f1 	call  1fd9e8c <__DYNAMIC+0x1fd9e8c>
40000ecc:	2c 02 64 0d 	unknown
40000ed0:	00 20 08 84 	unimp  0xffe00884
40000ed4:	30 c3 74 56 	unknown
40000ed8:	a5 a2 f1 d1 	unknown
40000edc:	00 20 08 85 	unimp  0xffe00885
40000ee0:	fd d0 00 2f 	unknown
40000ee4:	9d 46 4e ed 	unknown
40000ee8:	00 20 08 86 	unimp  0xffe00886
40000eec:	96 05 04 c9 	unknown
40000ef0:	a9 1d 30 3c 	tsubcctv  %l4, -4036, %l4
40000ef4:	00 20 08 87 	unimp  0xffe00887
40000ef8:	ce 37 74 f1 	sth  %g7, [ %i5 + -2831 ]
40000efc:	b9 e7 64 9e 	save  %i5, 0x49e, %i4
40000f00:	00 20 10 08 	unimp  0xffe01008
40000f04:	ba 66 d3 68 	unknown
40000f08:	ab 55 6e 64 	unknown
40000f0c:	00 20 10 09 	unimp  0xffe01009
40000f10:	df 09 a4 66 	unknown
40000f14:	08 f1 9f 66 	unknown
40000f18:	00 20 10 0a 	unimp  0xffe0100a
40000f1c:	bc b3 ef b2 	orncc  %o7, 0xfb2, %fp
40000f20:	ca e9 15 e8 	ldstuba  [ %g4 + %o0 ] (175), %g5
40000f24:	00 20 10 0b 	unimp  0xffe0100b
40000f28:	14 49 22 8c 	unknown
40000f2c:	cf f8 6f ff 	unknown
40000f30:	00 20 10 0c 	unimp  0xffe0100c
40000f34:	d7 22 3f da 	st  %f11, [ %o0 + -38 ]
40000f38:	f1 8b 14 55 	ld  [ %o4 + %l5 ], %csr
40000f3c:	00 20 10 0d 	unimp  0xffe0100d
40000f40:	82 c5 ef 12 	addxcc  %l7, 0xf12, %g1
40000f44:	0a f9 23 db 	unknown
40000f48:	00 20 10 0e 	unimp  0xffe0100e
40000f4c:	e4 45 22 d5 	unknown
40000f50:	75 88 60 d8 	call  162192b0 <__DYNAMIC+0x162192b0>
40000f54:	00 20 10 0f 	unimp  0xffe0100f
40000f58:	95 d9 82 97 	unknown
40000f5c:	0f 45 46 cf 	unknown
40000f60:	00 20 10 10 	unimp  0xffe01010
40000f64:	13 c6 a1 0f 	cb0  401a93a0 <allocatedLocks+0x18e880>
40000f68:	96 f3 0e d1 	unknown
40000f6c:	00 20 10 11 	unimp  0xffe01011
40000f70:	24 54 cc b8 	unknown
40000f74:	1b 4b 99 94 	unknown
40000f78:	00 20 10 12 	unimp  0xffe01012
40000f7c:	e0 db 7a e5 	unknown
40000f80:	a7 35 c1 46 	unknown
40000f84:	00 20 10 13 	unimp  0xffe01013
40000f88:	2d 5a 79 d2 	unknown
40000f8c:	7e b5 2e e5 	call  3ad4cb20 <__DYNAMIC+0x3ad4cb20>
40000f90:	00 20 10 14 	unimp  0xffe01014
40000f94:	49 6c 74 cd 	call  65b1e2c8 <allocatedLocks+0x25b037a8>
40000f98:	b4 dd 86 85 	unknown
40000f9c:	00 20 10 15 	unimp  0xffe01015
40000fa0:	07 bb 81 32 	fbul  3fee1468 <__DYNAMIC+0x3fee1468>
40000fa4:	d8 00 d1 99 	ld  [ %g3 + %i1 ], %o4
40000fa8:	00 20 10 16 	unimp  0xffe01016
40000fac:	c9 13 01 8c 	unknown
40000fb0:	83 54 5d 9f 	unknown
40000fb4:	00 20 10 17 	unimp  0xffe01017
40000fb8:	c6 1a 13 41 	unknown
40000fbc:	7a eb b9 d7 	call  2baef718 <__DYNAMIC+0x2baef718>
40000fc0:	00 20 10 18 	unimp  0xffe01018
40000fc4:	97 6e af b1 	unknown
40000fc8:	aa 3b f1 87 	xnor  %o7, -3705, %l5
40000fcc:	00 20 10 19 	unimp  0xffe01019
40000fd0:	c9 71 90 18 	unknown
40000fd4:	d0 18 f4 34 	ldd  [ %g3 + -3020 ], %o0
40000fd8:	00 20 10 1a 	unimp  0xffe0101a
40000fdc:	e1 c7 64 1f 	unknown
40000fe0:	13 f8 5f 26 	cb0  3fe18c78 <__DYNAMIC+0x3fe18c78>
40000fe4:	00 20 10 1b 	unimp  0xffe0101b
40000fe8:	19 8b e9 36 	fbuge  402fb4c0 <allocatedLocks+0x2e09a0>
40000fec:	6f 99 e3 0c 	call  fe679c1c <allocatedLocks+0xbe65f0fc>
40000ff0:	00 20 10 1c 	unimp  0xffe0101c
40000ff4:	37 b4 89 6c 	fbge,a   3fd235a4 <__DYNAMIC+0x3fd235a4>
40000ff8:	55 58 a1 49 	call  9562951c <allocatedLocks+0x5560e9fc>
40000ffc:	00 20 10 1d 	unimp  0xffe0101d
40001000:	92 21 aa ba 	sub  %g6, 0xaba, %o1
40001004:	19 c3 17 ef 	cb023  400c6fc0 <allocatedLocks+0xac4a0>
40001008:	00 20 10 1e 	unimp  0xffe0101e
4000100c:	5d bb e0 00 	call  b6ef900c <allocatedLocks+0x76ede4ec>
40001010:	ab 3b 41 fa 	unknown
40001014:	00 20 10 1f 	unimp  0xffe0101f
40001018:	0c 09 44 3c 	unknown
4000101c:	49 7b 50 ce 	call  65ed5354 <allocatedLocks+0x25eba834>
40001020:	00 20 10 20 	unimp  0xffe01020
40001024:	85 76 e2 d3 	unknown
40001028:	45 39 be 3d 	call  54e7091c <allocatedLocks+0x14e55dfc>
4000102c:	00 20 10 21 	unimp  0xffe01021
40001030:	70 e7 3f ad 	call  39d0ee4 <__DYNAMIC+0x39d0ee4>
40001034:	52 47 0f 5f 	call  891c4db0 <allocatedLocks+0x491aa290>
40001038:	00 20 10 22 	unimp  0xffe01022
4000103c:	dd 9f e7 b4 	ldd  [ %i7 + 0x7b4 ], %c14
40001040:	b8 0b a7 be 	and  %sp, 0x7be, %i4
40001044:	00 20 10 23 	unimp  0xffe01023
40001048:	98 8b ea 56 	andcc  %o7, 0xa56, %o4
4000104c:	a0 2a e0 25 	andn  %o3, 0x25, %l0
40001050:	00 20 10 24 	unimp  0xffe01024
40001054:	d3 e2 5c 23 	unknown
40001058:	fb a9 d6 be 	unknown
4000105c:	00 20 10 25 	unimp  0xffe01025
40001060:	6d 0b 8e c0 	call  f42e4b60 <allocatedLocks+0xb42ca040>
40001064:	88 54 0a c6 	unknown
40001068:	00 20 10 26 	unimp  0xffe01026
4000106c:	ac f4 48 90 	unknown
40001070:	c3 da 2d f8 	unknown
40001074:	00 20 10 27 	unimp  0xffe01027
40001078:	6f 3a 51 af 	call  fce95734 <allocatedLocks+0xbce7ac14>
4000107c:	7d 35 a8 33 	call  34d6b148 <__DYNAMIC+0x34d6b148>
40001080:	00 20 10 28 	unimp  0xffe01028
40001084:	af 66 d9 e6 	unknown
40001088:	b8 4d ca 00 	unknown
4000108c:	00 20 10 29 	unimp  0xffe01029
40001090:	ed e0 f2 58 	unknown
40001094:	29 ec 32 fe 	cb1,a   3fb0dc8c <__DYNAMIC+0x3fb0dc8c>
40001098:	00 20 10 2a 	unimp  0xffe0102a
4000109c:	41 db 39 b0 	call  476cf75c <allocatedLocks+0x76b4c3c>
400010a0:	23 38 25 be 	sethi  %hi(0xe096f800), %l1
400010a4:	00 20 10 2b 	unimp  0xffe0102b
400010a8:	05 84 9d bb 	fblg  40128794 <allocatedLocks+0x10dc74>
400010ac:	3e 55 f1 92 	unknown
400010b0:	00 20 10 2c 	unimp  0xffe0102c
400010b4:	ff ba 87 8c 	unknown
400010b8:	d2 90 90 01 	lduha  [ %g2 + %g1 ] #ASI_P, %o1
400010bc:	00 20 10 2d 	unimp  0xffe0102d
400010c0:	cf d8 ba 18 	unknown
400010c4:	2d 7b 20 d3 	unknown
400010c8:	00 20 10 2e 	unimp  0xffe0102e
400010cc:	35 e1 23 7d 	cb03,a   3f849ec0 <__DYNAMIC+0x3f849ec0>
400010d0:	79 bc 4f 74 	call  26f14ea0 <__DYNAMIC+0x26f14ea0>
400010d4:	00 20 10 2f 	unimp  0xffe0102f
400010d8:	1a f0 ca 9a 	unknown
400010dc:	fa 82 56 6d 	lda  [ %o1 + %o5 ] (179), %i5
400010e0:	00 20 10 30 	unimp  0xffe01030
400010e4:	7f d6 96 c1 	call  3f5a6be8 <__DYNAMIC+0x3f5a6be8>
400010e8:	bc 20 a1 ee 	sub  %g2, 0x1ee, %fp
400010ec:	00 20 10 31 	unimp  0xffe01031
400010f0:	ba 15 20 80 	or  %l4, 0x80, %i5
400010f4:	06 19 46 db 	unknown
400010f8:	00 20 10 32 	unimp  0xffe01032
400010fc:	19 2c 8f cd 	sethi  %hi(0xb23f3400), %o4
40001100:	77 d5 34 14 	call  1f54e150 <__DYNAMIC+0x1f54e150>
40001104:	00 20 10 33 	unimp  0xffe01033
40001108:	0e e0 44 8d 	unknown
4000110c:	3b 6b 6d 48 	unknown
40001110:	00 20 10 34 	unimp  0xffe01034
40001114:	e0 61 ea 6c 	unknown
40001118:	5d 02 a1 13 	call  b40a9564 <allocatedLocks+0x7408ea44>
4000111c:	00 20 10 35 	unimp  0xffe01035
40001120:	8e 9e ba 42 	xorcc  %i2, -1470, %g7
40001124:	2d fb c6 68 	cb2,a   3fef2ac4 <__DYNAMIC+0x3fef2ac4>
40001128:	00 20 10 36 	unimp  0xffe01036
4000112c:	3d a6 7b 67 	fbule,a   3f99fec8 <__DYNAMIC+0x3f99fec8>
40001130:	11 26 4d b2 	sethi  %hi(0x9936c800), %o0
40001134:	00 20 10 37 	unimp  0xffe01037
40001138:	09 23 73 5b 	sethi  %hi(0x8dcd6c00), %g4
4000113c:	eb 25 47 f5 	unknown
40001140:	00 20 10 38 	unimp  0xffe01038
40001144:	84 7d bd 06 	sdiv  %l6, -762, %g2
40001148:	83 1b 77 4f 	tsubcctv  %o5, -2225, %g1
4000114c:	00 20 10 39 	unimp  0xffe01039
40001150:	fd 80 a6 5d 	ld  [ %g2 + 0x65d ], %c30
40001154:	54 48 1a c3 	call  91207c60 <allocatedLocks+0x511ed140>
40001158:	00 20 10 3a 	unimp  0xffe0103a
4000115c:	8c 52 68 a8 	umul  %o1, 0x8a8, %g6
40001160:	2e 4e e9 37 	unknown
40001164:	00 20 10 3b 	unimp  0xffe0103b
40001168:	ce 48 ff bd 	ldsb  [ %g3 + -67 ], %g7
4000116c:	ab 10 7f 92 	taddcctv  %g1, -110, %l5
40001170:	00 20 10 3c 	unimp  0xffe0103c
40001174:	13 8d ab d3 	fbe  4036c0c0 <allocatedLocks+0x3515a0>
40001178:	9f bb 89 ec 	cpop2  [ %sp + %o4 ], %o7
4000117c:	00 20 10 3d 	unimp  0xffe0103d
40001180:	51 37 c3 9c 	call  84df1ff0 <allocatedLocks+0x44dd74d0>
40001184:	54 a7 82 46 	call  929e1a9c <allocatedLocks+0x529c6f7c>
40001188:	00 20 10 3e 	unimp  0xffe0103e
4000118c:	a7 03 93 14 	unknown
40001190:	be a4 30 9e 	subcc  %l0, -3938, %i7
40001194:	00 20 10 3f 	unimp  0xffe0103f
40001198:	47 6e 37 5c 	call  5db8ef08 <allocatedLocks+0x1db743e8>
4000119c:	cb 32 de ee 	unknown
400011a0:	00 20 10 40 	unimp  0xffe01040
400011a4:	70 27 48 b9 	call  9d3488 <__DYNAMIC+0x9d3488>
400011a8:	3c b8 82 d1 	bpos,a   3fe21cec <__DYNAMIC+0x3fe21cec>
400011ac:	00 20 10 41 	unimp  0xffe01041
400011b0:	88 45 05 0b 	unknown
400011b4:	42 24 60 dc 	call  48919524 <allocatedLocks+0x88fea04>
400011b8:	00 20 10 42 	unimp  0xffe01042
400011bc:	ce f3 7a 71 	unknown
400011c0:	6b fd 6f 5b 	call  eff5cf2c <allocatedLocks+0xaff4240c>
400011c4:	00 20 10 43 	unimp  0xffe01043
400011c8:	73 bc 2e ff 	call  ef0cdc4 <__DYNAMIC+0xef0cdc4>
400011cc:	e2 95 69 76 	unknown
400011d0:	00 20 10 44 	unimp  0xffe01044
400011d4:	04 21 c1 a4 	unknown
400011d8:	48 3b 7c 6b 	call  60ee0384 <allocatedLocks+0x20ec5864>
400011dc:	00 20 10 45 	unimp  0xffe01045
400011e0:	42 87 3e 81 	call  4a1d0be4 <allocatedLocks+0xa1b60c4>
400011e4:	13 3d 68 3e 	sethi  %hi(0xf5a0f800), %o1
400011e8:	00 20 10 46 	unimp  0xffe01046
400011ec:	c0 d0 74 6c 	unknown
400011f0:	e8 6a a6 53 	ldstub  [ %o2 + 0x653 ], %l4
400011f4:	00 20 10 47 	unimp  0xffe01047
400011f8:	b2 5a 9e 00 	unknown
400011fc:	3e 06 1a 97 	unknown
40001200:	00 20 10 48 	unimp  0xffe01048
40001204:	ad d9 a0 b1 	flush  %g6 + 0xb1
40001208:	8a 63 51 a2 	unknown
4000120c:	00 20 10 49 	unimp  0xffe01049
40001210:	b5 d0 28 b8 	tg  0x8b8
40001214:	a9 5e ef 9b 	unknown
40001218:	00 20 10 4a 	unimp  0xffe0104a
4000121c:	e7 db cc a6 	unknown
40001220:	ec 17 10 ce 	unknown
40001224:	00 20 10 4b 	unimp  0xffe0104b
40001228:	b0 83 02 c3 	unknown
4000122c:	ac 96 ed 24 	orcc  %i3, 0xd24, %l6
40001230:	00 20 10 4c 	unimp  0xffe0104c
40001234:	38 2f f4 ae 	unknown
40001238:	fe ab fb d3 	unknown
4000123c:	00 20 10 4d 	unimp  0xffe0104d
40001240:	8b 58 ee b4 	unknown
40001244:	cb c3 eb f4 	unknown
40001248:	00 20 10 4e 	unimp  0xffe0104e
4000124c:	6c 55 7c d1 	call  f1560590 <allocatedLocks+0xb1545a70>
40001250:	d1 02 7b f2 	ld  [ %o1 + -1038 ], %f8
40001254:	00 20 10 4f 	unimp  0xffe0104f
40001258:	a4 25 d7 0d 	unknown
4000125c:	e7 58 57 cd 	unknown
40001260:	00 20 10 50 	unimp  0xffe01050
40001264:	a4 27 b6 79 	sub  %fp, -2439, %l2
40001268:	17 9a b4 bb 	fbge  406ae554 <allocatedLocks+0x693a34>
4000126c:	00 20 10 51 	unimp  0xffe01051
40001270:	0d 42 96 f3 	unknown
40001274:	01 88 93 04 	fbn  40225e84 <allocatedLocks+0x20b364>
40001278:	00 20 10 52 	unimp  0xffe01052
4000127c:	27 c8 cb dd 	cb13,a   402341f0 <allocatedLocks+0x2196d0>
40001280:	33 d8 11 ef 	cb0,a   40605a3c <allocatedLocks+0x5eaf1c>
40001284:	00 20 10 53 	unimp  0xffe01053
40001288:	71 55 b7 3a 	call  556ef70 <__DYNAMIC+0x556ef70>
4000128c:	61 db 0b 2f 	call  c76c3f48 <allocatedLocks+0x876a9428>
40001290:	00 20 10 54 	unimp  0xffe01054
40001294:	4b 64 47 a7 	call  6d913130 <allocatedLocks+0x2d8f8610>
40001298:	f6 09 26 1b 	ldub  [ %g4 + 0x61b ], %i3
4000129c:	00 20 10 55 	unimp  0xffe01055
400012a0:	b4 ce 69 db 	unknown
400012a4:	9a 79 6c 97 	sdiv  %g5, 0xc97, %o5
400012a8:	00 20 10 56 	unimp  0xffe01056
400012ac:	ad c5 f6 6e 	jmpl  %l7 + -2450, %l6
400012b0:	fd 63 62 1f 	unknown
400012b4:	00 20 10 57 	unimp  0xffe01057
400012b8:	71 81 3d 92 	call  6050900 <__DYNAMIC+0x6050900>
400012bc:	0b 14 0c e4 	sethi  %hi(0x50339000), %g5
400012c0:	00 20 10 58 	unimp  0xffe01058
400012c4:	4c f0 de bf 	call  73c38dc0 <allocatedLocks+0x33c1e2a0>
400012c8:	e6 4b 16 91 	unknown
400012cc:	00 20 10 59 	unimp  0xffe01059
400012d0:	4c d4 b4 e3 	call  7352e65c <allocatedLocks+0x33513b3c>
400012d4:	29 69 bf b0 	unknown
400012d8:	00 20 10 5a 	unimp  0xffe0105a
400012dc:	f5 51 e0 c7 	unknown
400012e0:	17 0c 62 84 	sethi  %hi(0x318a1000), %o3
400012e4:	00 20 10 5b 	unimp  0xffe0105b
400012e8:	dc 72 19 28 	unknown
400012ec:	47 f0 0f cb 	call  5fc05218 <allocatedLocks+0x1fbea6f8>
400012f0:	00 20 10 5c 	unimp  0xffe0105c
400012f4:	5e 5e 8b ee 	call  b97a42ac <allocatedLocks+0x7978978c>
400012f8:	e1 57 f2 4c 	unknown
400012fc:	00 20 10 5d 	unimp  0xffe0105d
40001300:	62 af 01 4e 	call  cabc1838 <allocatedLocks+0x8aba6d18>
40001304:	91 96 81 e1 	unknown
40001308:	00 20 10 5e 	unimp  0xffe0105e
4000130c:	62 8f 5b 18 	call  ca3d7f6c <allocatedLocks+0x8a3bd44c>
40001310:	f9 2c dc d3 	unknown
40001314:	00 20 10 5f 	unimp  0xffe0105f
40001318:	72 d0 c6 7b 	call  b432d04 <__DYNAMIC+0xb432d04>
4000131c:	fa 5d 75 ab 	unknown
40001320:	00 20 10 60 	unimp  0xffe01060
40001324:	65 6e 97 76 	call  d5ba70fc <allocatedLocks+0x95b8c5dc>
40001328:	8b d0 70 6c 	tcs  %g1 + -3988
4000132c:	00 20 10 61 	unimp  0xffe01061
40001330:	10 57 08 5f 	unknown
40001334:	e0 43 38 63 	unknown
40001338:	00 20 10 62 	unimp  0xffe01062
4000133c:	ec c0 25 71 	unknown
40001340:	86 e0 8e f3 	unknown
40001344:	00 20 10 63 	unimp  0xffe01063
40001348:	b0 c0 da d7 	unknown
4000134c:	46 98 29 ad 	call  5a60ba00 <allocatedLocks+0x1a5f0ee0>
40001350:	00 20 10 64 	unimp  0xffe01064
40001354:	01 65 0a 2a 	unknown
40001358:	c4 8f 5d 56 	lduba  [ %i5 + %l6 ] (234), %g2
4000135c:	00 20 10 65 	unimp  0xffe01065
40001360:	81 17 35 a1 	taddcctv  %i4, -2655, %g0
40001364:	01 fc 59 73 	cbn  3ff17930 <__DYNAMIC+0x3ff17930>
40001368:	00 20 10 66 	unimp  0xffe01066
4000136c:	c2 db a2 3b 	unknown
40001370:	f4 3a 00 9d 	unknown
40001374:	00 20 10 67 	unimp  0xffe01067
40001378:	9b 28 d6 5b 	unknown
4000137c:	5e 17 17 32 	call  b85c7044 <allocatedLocks+0x785ac524>
40001380:	00 20 10 68 	unimp  0xffe01068
40001384:	a5 4f cd d6 	unknown
40001388:	1c 65 fb d1 	unknown
4000138c:	00 20 10 69 	unimp  0xffe01069
40001390:	e6 50 7a 0d 	ldsh  [ %g1 + -1523 ], %l3
40001394:	96 b3 7a 6b 	orncc  %o5, -1429, %o3
40001398:	00 20 10 6a 	unimp  0xffe0106a
4000139c:	33 c6 2e ce 	cb0,a   4018ced4 <allocatedLocks+0x1723b4>
400013a0:	6e 4a 16 09 	call  f9286bc4 <allocatedLocks+0xb926c0a4>
400013a4:	00 20 10 6b 	unimp  0xffe0106b
400013a8:	cf c0 ed 5c 	unknown
400013ac:	f7 96 27 4e 	unknown
400013b0:	00 20 10 6c 	unimp  0xffe0106c
400013b4:	9d 04 7e a8 	taddcc  %l1, -344, %sp
400013b8:	82 86 15 d1 	unknown
400013bc:	00 20 10 6d 	unimp  0xffe0106d
400013c0:	4d d6 e5 d2 	call  775bab08 <allocatedLocks+0x3759ffe8>
400013c4:	de 66 31 1e 	unknown
400013c8:	00 20 10 6e 	unimp  0xffe0106e
400013cc:	d2 d9 4f f5 	unknown
400013d0:	f0 3d 90 62 	unknown
400013d4:	00 20 10 6f 	unimp  0xffe0106f
400013d8:	78 d4 9e 7f 	call  23528dd4 <__DYNAMIC+0x23528dd4>
400013dc:	63 c6 b7 8f 	call  cf1af218 <allocatedLocks+0x8f1946f8>
400013e0:	00 20 10 70 	unimp  0xffe01070
400013e4:	a5 45 5a 58 	unknown
400013e8:	5c 15 85 8b 	call  b0562a14 <allocatedLocks+0x70547ef4>
400013ec:	00 20 10 71 	unimp  0xffe01071
400013f0:	cd 0d f6 a0 	unknown
400013f4:	6e ee 6d 81 	call  fbb9c9f8 <allocatedLocks+0xbbb81ed8>
400013f8:	00 20 10 72 	unimp  0xffe01072
400013fc:	41 16 a4 5f 	call  445aa578 <allocatedLocks+0x458fa58>
40001400:	56 59 29 37 	call  9964b8dc <allocatedLocks+0x59630dbc>
40001404:	00 20 10 73 	unimp  0xffe01073
40001408:	6e 16 dd 14 	call  f85b8858 <allocatedLocks+0xb859dd38>
4000140c:	ea 7c f4 6e 	swap  [ %l3 + -2962 ], %l5
40001410:	00 20 10 74 	unimp  0xffe01074
40001414:	ef d6 9f a2 	unknown
40001418:	bc 03 76 cf 	add  %o5, -2353, %fp
4000141c:	00 20 10 75 	unimp  0xffe01075
40001420:	3b 70 89 33 	unknown
40001424:	6c ca 3a 9a 	call  f328fe8c <allocatedLocks+0xb327536c>
40001428:	00 20 10 76 	unimp  0xffe01076
4000142c:	8f 39 cf 12 	unknown
40001430:	82 c8 7f e3 	unknown
40001434:	00 20 10 77 	unimp  0xffe01077
40001438:	68 95 c0 d5 	call  e257178c <allocatedLocks+0xa2556c6c>
4000143c:	44 79 03 d1 	call  51e42380 <allocatedLocks+0x11e27860>
40001440:	00 20 10 78 	unimp  0xffe01078
40001444:	f7 5c 4b cb 	unknown
40001448:	57 7f 14 4d 	call  9dfc657c <allocatedLocks+0x5dfaba5c>
4000144c:	00 20 10 79 	unimp  0xffe01079
40001450:	b1 18 a6 99 	tsubcctv  %g2, 0x699, %i0
40001454:	29 27 e2 3a 	sethi  %hi(0x9f88e800), %l4
40001458:	00 20 10 7a 	unimp  0xffe0107a
4000145c:	5d f1 31 d3 	call  b7c4dba8 <allocatedLocks+0x77c33088>
40001460:	26 01 cc 79 	unknown
40001464:	00 20 10 7b 	unimp  0xffe0107b
40001468:	17 ea b9 d5 	cb02  3faafbbc <__DYNAMIC+0x3faafbbc>
4000146c:	37 9a d1 40 	fbge,a   406b596c <allocatedLocks+0x69ae4c>
40001470:	00 20 10 7c 	unimp  0xffe0107c
40001474:	97 b4 69 e1 	cpop1  [ %l1 + %g1 ], %o3
40001478:	12 1a c0 a3 	unknown
4000147c:	00 20 10 7d 	unimp  0xffe0107d
40001480:	2d 89 95 91 	fbg,a   40266ac4 <allocatedLocks+0x24bfa4>
40001484:	db f5 f4 cb 	unknown
40001488:	00 20 10 7e 	unimp  0xffe0107e
4000148c:	b9 a5 48 7c 	faddq  %f52, %f28, %f28
40001490:	0e 1d 07 6b 	unknown
40001494:	00 20 10 7f 	unimp  0xffe0107f
40001498:	b2 ff 21 7d 	sdivcc  %i4, 0x17d, %i1
4000149c:	f9 46 91 e4 	unknown
400014a0:	00 20 10 80 	unimp  0xffe01080
400014a4:	8c 23 5d 2c 	unknown
400014a8:	9f 90 df 69 	unknown
400014ac:	00 20 10 81 	unimp  0xffe01081
400014b0:	19 a2 a6 74 	fbuge  3f8aae80 <__DYNAMIC+0x3f8aae80>
400014b4:	59 16 e0 2d 	call  a45b9568 <allocatedLocks+0x6459ea48>
400014b8:	00 20 10 82 	unimp  0xffe01082
400014bc:	b5 af 29 58 	unknown
400014c0:	74 93 11 a2 	call  124c5b48 <__DYNAMIC+0x124c5b48>
400014c4:	00 20 10 83 	unimp  0xffe01083
400014c8:	70 7f 63 f1 	call  1fda48c <__DYNAMIC+0x1fda48c>
400014cc:	2c 02 64 0d 	unknown
400014d0:	00 20 10 84 	unimp  0xffe01084
400014d4:	30 c3 74 56 	unknown
400014d8:	a5 a2 f1 d1 	unknown
400014dc:	00 20 10 85 	unimp  0xffe01085
400014e0:	fd d0 00 2f 	unknown
400014e4:	9d 46 4e ed 	unknown
400014e8:	00 20 10 86 	unimp  0xffe01086
400014ec:	96 05 04 c9 	unknown
400014f0:	a9 1d 30 3c 	tsubcctv  %l4, -4036, %l4
400014f4:	00 20 10 87 	unimp  0xffe01087
400014f8:	ce 37 74 f1 	sth  %g7, [ %i5 + -2831 ]
400014fc:	b9 e7 64 9e 	save  %i5, 0x49e, %i4
40001500:	00 20 18 08 	unimp  0xffe01808
40001504:	ba 66 d3 68 	unknown
40001508:	ab 55 6e 64 	unknown
4000150c:	00 20 18 09 	unimp  0xffe01809
40001510:	df 09 a4 66 	unknown
40001514:	08 f1 9f 66 	unknown
40001518:	00 20 18 0a 	unimp  0xffe0180a
4000151c:	bc b3 ef b2 	orncc  %o7, 0xfb2, %fp
40001520:	ca e9 15 e8 	ldstuba  [ %g4 + %o0 ] (175), %g5
40001524:	00 20 18 0b 	unimp  0xffe0180b
40001528:	14 49 22 8c 	unknown
4000152c:	cf f8 6f ff 	unknown
40001530:	00 20 18 0c 	unimp  0xffe0180c
40001534:	d7 22 3f da 	st  %f11, [ %o0 + -38 ]
40001538:	f1 8b 14 55 	ld  [ %o4 + %l5 ], %csr
4000153c:	00 20 18 0d 	unimp  0xffe0180d
40001540:	82 c5 ef 12 	addxcc  %l7, 0xf12, %g1
40001544:	0a f9 23 db 	unknown
40001548:	00 20 18 0e 	unimp  0xffe0180e
4000154c:	e4 45 22 d5 	unknown
40001550:	75 88 60 d8 	call  162198b0 <__DYNAMIC+0x162198b0>
40001554:	00 20 18 0f 	unimp  0xffe0180f
40001558:	95 d9 82 97 	unknown
4000155c:	0f 45 46 cf 	unknown
40001560:	00 20 18 10 	unimp  0xffe01810
40001564:	13 c6 a1 0f 	cb0  401a99a0 <allocatedLocks+0x18ee80>
40001568:	96 f3 0e d1 	unknown
4000156c:	00 20 18 11 	unimp  0xffe01811
40001570:	24 54 cc b8 	unknown
40001574:	1b 4b 99 94 	unknown
40001578:	00 20 18 12 	unimp  0xffe01812
4000157c:	e0 db 7a e5 	unknown
40001580:	a7 35 c1 46 	unknown
40001584:	00 20 18 13 	unimp  0xffe01813
40001588:	2d 5a 79 d2 	unknown
4000158c:	7e b5 2e e5 	call  3ad4d120 <__DYNAMIC+0x3ad4d120>
40001590:	00 20 18 14 	unimp  0xffe01814
40001594:	49 6c 74 cd 	call  65b1e8c8 <allocatedLocks+0x25b03da8>
40001598:	b4 dd 86 85 	unknown
4000159c:	00 20 18 15 	unimp  0xffe01815
400015a0:	07 bb 81 32 	fbul  3fee1a68 <__DYNAMIC+0x3fee1a68>
400015a4:	d8 00 d1 99 	ld  [ %g3 + %i1 ], %o4
400015a8:	00 20 18 16 	unimp  0xffe01816
400015ac:	c9 13 01 8c 	unknown
400015b0:	83 54 5d 9f 	unknown
400015b4:	00 20 18 17 	unimp  0xffe01817
400015b8:	c6 1a 13 41 	unknown
400015bc:	7a eb b9 d7 	call  2baefd18 <__DYNAMIC+0x2baefd18>
400015c0:	00 20 18 18 	unimp  0xffe01818
400015c4:	97 6e af b1 	unknown
400015c8:	aa 3b f1 87 	xnor  %o7, -3705, %l5
400015cc:	00 20 18 19 	unimp  0xffe01819
400015d0:	c9 71 90 18 	unknown
400015d4:	d0 18 f4 34 	ldd  [ %g3 + -3020 ], %o0
400015d8:	00 20 18 1a 	unimp  0xffe0181a
400015dc:	e1 c7 64 1f 	unknown
400015e0:	13 f8 5f 26 	cb0  3fe19278 <__DYNAMIC+0x3fe19278>
400015e4:	00 20 18 1b 	unimp  0xffe0181b
400015e8:	19 8b e9 36 	fbuge  402fbac0 <allocatedLocks+0x2e0fa0>
400015ec:	6f 99 e3 0c 	call  fe67a21c <allocatedLocks+0xbe65f6fc>
400015f0:	00 20 18 1c 	unimp  0xffe0181c
400015f4:	37 b4 89 6c 	fbge,a   3fd23ba4 <__DYNAMIC+0x3fd23ba4>
400015f8:	55 58 a1 49 	call  95629b1c <allocatedLocks+0x5560effc>
400015fc:	00 20 18 1d 	unimp  0xffe0181d
40001600:	92 21 aa ba 	sub  %g6, 0xaba, %o1
40001604:	19 c3 17 ef 	cb023  400c75c0 <allocatedLocks+0xacaa0>
40001608:	00 20 18 1e 	unimp  0xffe0181e
4000160c:	5d bb e0 00 	call  b6ef960c <allocatedLocks+0x76edeaec>
40001610:	ab 3b 41 fa 	unknown
40001614:	00 20 18 1f 	unimp  0xffe0181f
40001618:	0c 09 44 3c 	unknown
4000161c:	49 7b 50 ce 	call  65ed5954 <allocatedLocks+0x25ebae34>
40001620:	00 20 18 20 	unimp  0xffe01820
40001624:	85 76 e2 d3 	unknown
40001628:	45 39 be 3d 	call  54e70f1c <allocatedLocks+0x14e563fc>
4000162c:	00 20 18 21 	unimp  0xffe01821
40001630:	70 e7 3f ad 	call  39d14e4 <__DYNAMIC+0x39d14e4>
40001634:	52 47 0f 5f 	call  891c53b0 <allocatedLocks+0x491aa890>
40001638:	00 20 18 22 	unimp  0xffe01822
4000163c:	dd 9f e7 b4 	ldd  [ %i7 + 0x7b4 ], %c14
40001640:	b8 0b a7 be 	and  %sp, 0x7be, %i4
40001644:	00 20 18 23 	unimp  0xffe01823
40001648:	98 8b ea 56 	andcc  %o7, 0xa56, %o4
4000164c:	a0 2a e0 25 	andn  %o3, 0x25, %l0
40001650:	00 20 18 24 	unimp  0xffe01824
40001654:	d3 e2 5c 23 	unknown
40001658:	fb a9 d6 be 	unknown
4000165c:	00 20 18 25 	unimp  0xffe01825
40001660:	6d 0b 8e c0 	call  f42e5160 <allocatedLocks+0xb42ca640>
40001664:	88 54 0a c6 	unknown
40001668:	00 20 18 26 	unimp  0xffe01826
4000166c:	ac f4 48 90 	unknown
40001670:	c3 da 2d f8 	unknown
40001674:	00 20 18 27 	unimp  0xffe01827
40001678:	6f 3a 51 af 	call  fce95d34 <allocatedLocks+0xbce7b214>
4000167c:	7d 35 a8 33 	call  34d6b748 <__DYNAMIC+0x34d6b748>
40001680:	00 20 18 28 	unimp  0xffe01828
40001684:	af 66 d9 e6 	unknown
40001688:	b8 4d ca 00 	unknown
4000168c:	00 20 18 29 	unimp  0xffe01829
40001690:	ed e0 f2 58 	unknown
40001694:	29 ec 32 fe 	cb1,a   3fb0e28c <__DYNAMIC+0x3fb0e28c>
40001698:	00 20 18 2a 	unimp  0xffe0182a
4000169c:	41 db 39 b0 	call  476cfd5c <allocatedLocks+0x76b523c>
400016a0:	23 38 25 be 	sethi  %hi(0xe096f800), %l1
400016a4:	00 20 18 2b 	unimp  0xffe0182b
400016a8:	05 84 9d bb 	fblg  40128d94 <allocatedLocks+0x10e274>
400016ac:	3e 55 f1 92 	unknown
400016b0:	00 20 18 2c 	unimp  0xffe0182c
400016b4:	ff ba 87 8c 	unknown
400016b8:	d2 90 90 01 	lduha  [ %g2 + %g1 ] #ASI_P, %o1
400016bc:	00 20 18 2d 	unimp  0xffe0182d
400016c0:	cf d8 ba 18 	unknown
400016c4:	2d 7b 20 d3 	unknown
400016c8:	00 20 18 2e 	unimp  0xffe0182e
400016cc:	35 e1 23 7d 	cb03,a   3f84a4c0 <__DYNAMIC+0x3f84a4c0>
400016d0:	79 bc 4f 74 	call  26f154a0 <__DYNAMIC+0x26f154a0>
400016d4:	00 20 18 2f 	unimp  0xffe0182f
400016d8:	1a f0 ca 9a 	unknown
400016dc:	fa 82 56 6d 	lda  [ %o1 + %o5 ] (179), %i5
400016e0:	00 20 18 30 	unimp  0xffe01830
400016e4:	7f d6 96 c1 	call  3f5a71e8 <__DYNAMIC+0x3f5a71e8>
400016e8:	bc 20 a1 ee 	sub  %g2, 0x1ee, %fp
400016ec:	00 20 18 31 	unimp  0xffe01831
400016f0:	ba 15 20 80 	or  %l4, 0x80, %i5
400016f4:	06 19 46 db 	unknown
400016f8:	00 20 18 32 	unimp  0xffe01832
400016fc:	19 2c 8f cd 	sethi  %hi(0xb23f3400), %o4
40001700:	77 d5 34 14 	call  1f54e750 <__DYNAMIC+0x1f54e750>
40001704:	00 20 18 33 	unimp  0xffe01833
40001708:	0e e0 44 8d 	unknown
4000170c:	3b 6b 6d 48 	unknown
40001710:	00 20 18 34 	unimp  0xffe01834
40001714:	e0 61 ea 6c 	unknown
40001718:	5d 02 a1 13 	call  b40a9b64 <allocatedLocks+0x7408f044>
4000171c:	00 20 18 35 	unimp  0xffe01835
40001720:	8e 9e ba 42 	xorcc  %i2, -1470, %g7
40001724:	2d fb c6 68 	cb2,a   3fef30c4 <__DYNAMIC+0x3fef30c4>
40001728:	00 20 18 36 	unimp  0xffe01836
4000172c:	3d a6 7b 67 	fbule,a   3f9a04c8 <__DYNAMIC+0x3f9a04c8>
40001730:	11 26 4d b2 	sethi  %hi(0x9936c800), %o0
40001734:	00 20 18 37 	unimp  0xffe01837
40001738:	09 23 73 5b 	sethi  %hi(0x8dcd6c00), %g4
4000173c:	eb 25 47 f5 	unknown
40001740:	00 20 18 38 	unimp  0xffe01838
40001744:	84 7d bd 06 	sdiv  %l6, -762, %g2
40001748:	83 1b 77 4f 	tsubcctv  %o5, -2225, %g1
4000174c:	00 20 18 39 	unimp  0xffe01839
40001750:	fd 80 a6 5d 	ld  [ %g2 + 0x65d ], %c30
40001754:	54 48 1a c3 	call  91208260 <allocatedLocks+0x511ed740>
40001758:	00 20 18 3a 	unimp  0xffe0183a
4000175c:	8c 52 68 a8 	umul  %o1, 0x8a8, %g6
40001760:	2e 4e e9 37 	unknown
40001764:	00 20 18 3b 	unimp  0xffe0183b
40001768:	ce 48 ff bd 	ldsb  [ %g3 + -67 ], %g7
4000176c:	ab 10 7f 92 	taddcctv  %g1, -110, %l5
40001770:	00 20 18 3c 	unimp  0xffe0183c
40001774:	13 8d ab d3 	fbe  4036c6c0 <allocatedLocks+0x351ba0>
40001778:	9f bb 89 ec 	cpop2  [ %sp + %o4 ], %o7
4000177c:	00 20 18 3d 	unimp  0xffe0183d
40001780:	51 37 c3 9c 	call  84df25f0 <allocatedLocks+0x44dd7ad0>
40001784:	54 a7 82 46 	call  929e209c <allocatedLocks+0x529c757c>
40001788:	00 20 18 3e 	unimp  0xffe0183e
4000178c:	a7 03 93 14 	unknown
40001790:	be a4 30 9e 	subcc  %l0, -3938, %i7
40001794:	00 20 18 3f 	unimp  0xffe0183f
40001798:	47 6e 37 5c 	call  5db8f508 <allocatedLocks+0x1db749e8>
4000179c:	cb 32 de ee 	unknown
400017a0:	00 20 18 40 	unimp  0xffe01840
400017a4:	70 27 48 b9 	call  9d3a88 <__DYNAMIC+0x9d3a88>
400017a8:	3c b8 82 d1 	bpos,a   3fe222ec <__DYNAMIC+0x3fe222ec>
400017ac:	00 20 18 41 	unimp  0xffe01841
400017b0:	88 45 05 0b 	unknown
400017b4:	42 24 60 dc 	call  48919b24 <allocatedLocks+0x88ff004>
400017b8:	00 20 18 42 	unimp  0xffe01842
400017bc:	ce f3 7a 71 	unknown
400017c0:	6b fd 6f 5b 	call  eff5d52c <allocatedLocks+0xaff42a0c>
400017c4:	00 20 18 43 	unimp  0xffe01843
400017c8:	73 bc 2e ff 	call  ef0d3c4 <__DYNAMIC+0xef0d3c4>
400017cc:	e2 95 69 76 	unknown
400017d0:	00 20 18 44 	unimp  0xffe01844
400017d4:	04 21 c1 a4 	unknown
400017d8:	48 3b 7c 6b 	call  60ee0984 <allocatedLocks+0x20ec5e64>
400017dc:	00 20 18 45 	unimp  0xffe01845
400017e0:	42 87 3e 81 	call  4a1d11e4 <allocatedLocks+0xa1b66c4>
400017e4:	13 3d 68 3e 	sethi  %hi(0xf5a0f800), %o1
400017e8:	00 20 18 46 	unimp  0xffe01846
400017ec:	c0 d0 74 6c 	unknown
400017f0:	e8 6a a6 53 	ldstub  [ %o2 + 0x653 ], %l4
400017f4:	00 20 18 47 	unimp  0xffe01847
400017f8:	b2 5a 9e 00 	unknown
400017fc:	3e 06 1a 97 	unknown
40001800:	00 20 18 48 	unimp  0xffe01848
40001804:	ad d9 a0 b1 	flush  %g6 + 0xb1
40001808:	8a 63 51 a2 	unknown
4000180c:	00 20 18 49 	unimp  0xffe01849
40001810:	b5 d0 28 b8 	tg  0x8b8
40001814:	a9 5e ef 9b 	unknown
40001818:	00 20 18 4a 	unimp  0xffe0184a
4000181c:	e7 db cc a6 	unknown
40001820:	ec 17 10 ce 	unknown
40001824:	00 20 18 4b 	unimp  0xffe0184b
40001828:	b0 83 02 c3 	unknown
4000182c:	ac 96 ed 24 	orcc  %i3, 0xd24, %l6
40001830:	00 20 18 4c 	unimp  0xffe0184c
40001834:	38 2f f4 ae 	unknown
40001838:	fe ab fb d3 	unknown
4000183c:	00 20 18 4d 	unimp  0xffe0184d
40001840:	8b 58 ee b4 	unknown
40001844:	cb c3 eb f4 	unknown
40001848:	00 20 18 4e 	unimp  0xffe0184e
4000184c:	6c 55 7c d1 	call  f1560b90 <allocatedLocks+0xb1546070>
40001850:	d1 02 7b f2 	ld  [ %o1 + -1038 ], %f8
40001854:	00 20 18 4f 	unimp  0xffe0184f
40001858:	a4 25 d7 0d 	unknown
4000185c:	e7 58 57 cd 	unknown
40001860:	00 20 18 50 	unimp  0xffe01850
40001864:	a4 27 b6 79 	sub  %fp, -2439, %l2
40001868:	17 9a b4 bb 	fbge  406aeb54 <allocatedLocks+0x694034>
4000186c:	00 20 18 51 	unimp  0xffe01851
40001870:	0d 42 96 f3 	unknown
40001874:	01 88 93 04 	fbn  40226484 <allocatedLocks+0x20b964>
40001878:	00 20 18 52 	unimp  0xffe01852
4000187c:	27 c8 cb dd 	cb13,a   402347f0 <allocatedLocks+0x219cd0>
40001880:	33 d8 11 ef 	cb0,a   4060603c <allocatedLocks+0x5eb51c>
40001884:	00 20 18 53 	unimp  0xffe01853
40001888:	71 55 b7 3a 	call  556f570 <__DYNAMIC+0x556f570>
4000188c:	61 db 0b 2f 	call  c76c4548 <allocatedLocks+0x876a9a28>
40001890:	00 20 18 54 	unimp  0xffe01854
40001894:	4b 64 47 a7 	call  6d913730 <allocatedLocks+0x2d8f8c10>
40001898:	f6 09 26 1b 	ldub  [ %g4 + 0x61b ], %i3
4000189c:	00 20 18 55 	unimp  0xffe01855
400018a0:	b4 ce 69 db 	unknown
400018a4:	9a 79 6c 97 	sdiv  %g5, 0xc97, %o5
400018a8:	00 20 18 56 	unimp  0xffe01856
400018ac:	ad c5 f6 6e 	jmpl  %l7 + -2450, %l6
400018b0:	fd 63 62 1f 	unknown
400018b4:	00 20 18 57 	unimp  0xffe01857
400018b8:	71 81 3d 92 	call  6050f00 <__DYNAMIC+0x6050f00>
400018bc:	0b 14 0c e4 	sethi  %hi(0x50339000), %g5
400018c0:	00 20 18 58 	unimp  0xffe01858
400018c4:	4c f0 de bf 	call  73c393c0 <allocatedLocks+0x33c1e8a0>
400018c8:	e6 4b 16 91 	unknown
400018cc:	00 20 18 59 	unimp  0xffe01859
400018d0:	4c d4 b4 e3 	call  7352ec5c <allocatedLocks+0x3351413c>
400018d4:	29 69 bf b0 	unknown
400018d8:	00 20 18 5a 	unimp  0xffe0185a
400018dc:	f5 51 e0 c7 	unknown
400018e0:	17 0c 62 84 	sethi  %hi(0x318a1000), %o3
400018e4:	00 20 18 5b 	unimp  0xffe0185b
400018e8:	dc 72 19 28 	unknown
400018ec:	47 f0 0f cb 	call  5fc05818 <allocatedLocks+0x1fbeacf8>
400018f0:	00 20 18 5c 	unimp  0xffe0185c
400018f4:	5e 5e 8b ee 	call  b97a48ac <allocatedLocks+0x79789d8c>
400018f8:	e1 57 f2 4c 	unknown
400018fc:	00 20 18 5d 	unimp  0xffe0185d
40001900:	62 af 01 4e 	call  cabc1e38 <allocatedLocks+0x8aba7318>
40001904:	91 96 81 e1 	unknown
40001908:	00 20 18 5e 	unimp  0xffe0185e
4000190c:	62 8f 5b 18 	call  ca3d856c <allocatedLocks+0x8a3bda4c>
40001910:	f9 2c dc d3 	unknown
40001914:	00 20 18 5f 	unimp  0xffe0185f
40001918:	72 d0 c6 7b 	call  b433304 <__DYNAMIC+0xb433304>
4000191c:	fa 5d 75 ab 	unknown
40001920:	00 20 18 60 	unimp  0xffe01860
40001924:	65 6e 97 76 	call  d5ba76fc <allocatedLocks+0x95b8cbdc>
40001928:	8b d0 70 6c 	tcs  %g1 + -3988
4000192c:	00 20 18 61 	unimp  0xffe01861
40001930:	10 57 08 5f 	unknown
40001934:	e0 43 38 63 	unknown
40001938:	00 20 18 62 	unimp  0xffe01862
4000193c:	ec c0 25 71 	unknown
40001940:	86 e0 8e f3 	unknown
40001944:	00 20 18 63 	unimp  0xffe01863
40001948:	b0 c0 da d7 	unknown
4000194c:	46 98 29 ad 	call  5a60c000 <allocatedLocks+0x1a5f14e0>
40001950:	00 20 18 64 	unimp  0xffe01864
40001954:	01 65 0a 2a 	unknown
40001958:	c4 8f 5d 56 	lduba  [ %i5 + %l6 ] (234), %g2
4000195c:	00 20 18 65 	unimp  0xffe01865
40001960:	81 17 35 a1 	taddcctv  %i4, -2655, %g0
40001964:	01 fc 59 73 	cbn  3ff17f30 <__DYNAMIC+0x3ff17f30>
40001968:	00 20 18 66 	unimp  0xffe01866
4000196c:	c2 db a2 3b 	unknown
40001970:	f4 3a 00 9d 	unknown
40001974:	00 20 18 67 	unimp  0xffe01867
40001978:	9b 28 d6 5b 	unknown
4000197c:	5e 17 17 32 	call  b85c7644 <allocatedLocks+0x785acb24>
40001980:	00 20 18 68 	unimp  0xffe01868
40001984:	a5 4f cd d6 	unknown
40001988:	1c 65 fb d1 	unknown
4000198c:	00 20 18 69 	unimp  0xffe01869
40001990:	e6 50 7a 0d 	ldsh  [ %g1 + -1523 ], %l3
40001994:	96 b3 7a 6b 	orncc  %o5, -1429, %o3
40001998:	00 20 18 6a 	unimp  0xffe0186a
4000199c:	33 c6 2e ce 	cb0,a   4018d4d4 <allocatedLocks+0x1729b4>
400019a0:	6e 4a 16 09 	call  f92871c4 <allocatedLocks+0xb926c6a4>
400019a4:	00 20 18 6b 	unimp  0xffe0186b
400019a8:	cf c0 ed 5c 	unknown
400019ac:	f7 96 27 4e 	unknown
400019b0:	00 20 18 6c 	unimp  0xffe0186c
400019b4:	9d 04 7e a8 	taddcc  %l1, -344, %sp
400019b8:	82 86 15 d1 	unknown
400019bc:	00 20 18 6d 	unimp  0xffe0186d
400019c0:	4d d6 e5 d2 	call  775bb108 <allocatedLocks+0x375a05e8>
400019c4:	de 66 31 1e 	unknown
400019c8:	00 20 18 6e 	unimp  0xffe0186e
400019cc:	d2 d9 4f f5 	unknown
400019d0:	f0 3d 90 62 	unknown
400019d4:	00 20 18 6f 	unimp  0xffe0186f
400019d8:	78 d4 9e 7f 	call  235293d4 <__DYNAMIC+0x235293d4>
400019dc:	63 c6 b7 8f 	call  cf1af818 <allocatedLocks+0x8f194cf8>
400019e0:	00 20 18 70 	unimp  0xffe01870
400019e4:	a5 45 5a 58 	unknown
400019e8:	5c 15 85 8b 	call  b0563014 <allocatedLocks+0x705484f4>
400019ec:	00 20 18 71 	unimp  0xffe01871
400019f0:	cd 0d f6 a0 	unknown
400019f4:	6e ee 6d 81 	call  fbb9cff8 <allocatedLocks+0xbbb824d8>
400019f8:	00 20 18 72 	unimp  0xffe01872
400019fc:	41 16 a4 5f 	call  445aab78 <allocatedLocks+0x4590058>
40001a00:	56 59 29 37 	call  9964bedc <allocatedLocks+0x596313bc>
40001a04:	00 20 18 73 	unimp  0xffe01873
40001a08:	6e 16 dd 14 	call  f85b8e58 <allocatedLocks+0xb859e338>
40001a0c:	ea 7c f4 6e 	swap  [ %l3 + -2962 ], %l5
40001a10:	00 20 18 74 	unimp  0xffe01874
40001a14:	ef d6 9f a2 	unknown
40001a18:	bc 03 76 cf 	add  %o5, -2353, %fp
40001a1c:	00 20 18 75 	unimp  0xffe01875
40001a20:	3b 70 89 33 	unknown
40001a24:	6c ca 3a 9a 	call  f329048c <allocatedLocks+0xb327596c>
40001a28:	00 20 18 76 	unimp  0xffe01876
40001a2c:	8f 39 cf 12 	unknown
40001a30:	82 c8 7f e3 	unknown
40001a34:	00 20 18 77 	unimp  0xffe01877
40001a38:	68 95 c0 d5 	call  e2571d8c <allocatedLocks+0xa255726c>
40001a3c:	44 79 03 d1 	call  51e42980 <allocatedLocks+0x11e27e60>
40001a40:	00 20 18 78 	unimp  0xffe01878
40001a44:	f7 5c 4b cb 	unknown
40001a48:	57 7f 14 4d 	call  9dfc6b7c <allocatedLocks+0x5dfac05c>
40001a4c:	00 20 18 79 	unimp  0xffe01879
40001a50:	b1 18 a6 99 	tsubcctv  %g2, 0x699, %i0
40001a54:	29 27 e2 3a 	sethi  %hi(0x9f88e800), %l4
40001a58:	00 20 18 7a 	unimp  0xffe0187a
40001a5c:	5d f1 31 d3 	call  b7c4e1a8 <allocatedLocks+0x77c33688>
40001a60:	26 01 cc 79 	unknown
40001a64:	00 20 18 7b 	unimp  0xffe0187b
40001a68:	17 ea b9 d5 	cb02  3fab01bc <__DYNAMIC+0x3fab01bc>
40001a6c:	37 9a d1 40 	fbge,a   406b5f6c <allocatedLocks+0x69b44c>
40001a70:	00 20 18 7c 	unimp  0xffe0187c
40001a74:	97 b4 69 e1 	cpop1  [ %l1 + %g1 ], %o3
40001a78:	12 1a c0 a3 	unknown
40001a7c:	00 20 18 7d 	unimp  0xffe0187d
40001a80:	2d 89 95 91 	fbg,a   402670c4 <allocatedLocks+0x24c5a4>
40001a84:	db f5 f4 cb 	unknown
40001a88:	00 20 18 7e 	unimp  0xffe0187e
40001a8c:	b9 a5 48 7c 	faddq  %f52, %f28, %f28
40001a90:	0e 1d 07 6b 	unknown
40001a94:	00 20 18 7f 	unimp  0xffe0187f
40001a98:	b2 ff 21 7d 	sdivcc  %i4, 0x17d, %i1
40001a9c:	f9 46 91 e4 	unknown
40001aa0:	00 20 18 80 	unimp  0xffe01880
40001aa4:	8c 23 5d 2c 	unknown
40001aa8:	9f 90 df 69 	unknown
40001aac:	00 20 18 81 	unimp  0xffe01881
40001ab0:	19 a2 a6 74 	fbuge  3f8ab480 <__DYNAMIC+0x3f8ab480>
40001ab4:	59 16 e0 2d 	call  a45b9b68 <allocatedLocks+0x6459f048>
40001ab8:	00 20 18 82 	unimp  0xffe01882
40001abc:	b5 af 29 58 	unknown
40001ac0:	74 93 11 a2 	call  124c6148 <__DYNAMIC+0x124c6148>
40001ac4:	00 20 18 83 	unimp  0xffe01883
40001ac8:	70 7f 63 f1 	call  1fdaa8c <__DYNAMIC+0x1fdaa8c>
40001acc:	2c 02 64 0d 	unknown
40001ad0:	00 20 18 84 	unimp  0xffe01884
40001ad4:	30 c3 74 56 	unknown
40001ad8:	a5 a2 f1 d1 	unknown
40001adc:	00 20 18 85 	unimp  0xffe01885
40001ae0:	fd d0 00 2f 	unknown
40001ae4:	9d 46 4e ed 	unknown
40001ae8:	00 20 18 86 	unimp  0xffe01886
40001aec:	96 05 04 c9 	unknown
40001af0:	a9 1d 30 3c 	tsubcctv  %l4, -4036, %l4
40001af4:	00 20 18 87 	unimp  0xffe01887
40001af8:	ce 37 74 f1 	sth  %g7, [ %i5 + -2831 ]
40001afc:	b9 e7 64 9e 	save  %i5, 0x49e, %i4

40001b00 <dmem_blob_size>:
40001b00:	00 00 18 00 	unimp  0x1800
40001b04:	01 00 00 00 	nop 
40001b08:	01 00 00 00 	nop 
40001b0c:	01 00 00 00 	nop 
40001b10:	01 00 00 00 	nop 
40001b14:	01 00 00 00 	nop 
40001b18:	01 00 00 00 	nop 
40001b1c:	01 00 00 00 	nop 
40001b20:	01 00 00 00 	nop 
40001b24:	01 00 00 00 	nop 
40001b28:	01 00 00 00 	nop 
40001b2c:	01 00 00 00 	nop 
40001b30:	01 00 00 00 	nop 
40001b34:	01 00 00 00 	nop 
40001b38:	01 00 00 00 	nop 
40001b3c:	01 00 00 00 	nop 
40001b40:	01 00 00 00 	nop 
40001b44:	01 00 00 00 	nop 
40001b48:	01 00 00 00 	nop 
40001b4c:	01 00 00 00 	nop 
40001b50:	01 00 00 00 	nop 
40001b54:	01 00 00 00 	nop 
40001b58:	01 00 00 00 	nop 
40001b5c:	01 00 00 00 	nop 
40001b60:	01 00 00 00 	nop 
40001b64:	01 00 00 00 	nop 
40001b68:	01 00 00 00 	nop 
40001b6c:	01 00 00 00 	nop 
40001b70:	01 00 00 00 	nop 
40001b74:	01 00 00 00 	nop 
40001b78:	01 00 00 00 	nop 
40001b7c:	01 00 00 00 	nop 
40001b80:	01 00 00 00 	nop 
40001b84:	01 00 00 00 	nop 
40001b88:	01 00 00 00 	nop 
40001b8c:	01 00 00 00 	nop 
40001b90:	01 00 00 00 	nop 
40001b94:	01 00 00 00 	nop 
40001b98:	01 00 00 00 	nop 
40001b9c:	01 00 00 00 	nop 
40001ba0:	01 00 00 00 	nop 
40001ba4:	01 00 00 00 	nop 
40001ba8:	01 00 00 00 	nop 
40001bac:	01 00 00 00 	nop 
40001bb0:	01 00 00 00 	nop 
40001bb4:	01 00 00 00 	nop 
40001bb8:	01 00 00 00 	nop 
40001bbc:	01 00 00 00 	nop 
40001bc0:	01 00 00 00 	nop 
40001bc4:	01 00 00 00 	nop 
40001bc8:	01 00 00 00 	nop 
40001bcc:	01 00 00 00 	nop 
40001bd0:	01 00 00 00 	nop 
40001bd4:	01 00 00 00 	nop 
40001bd8:	01 00 00 00 	nop 
40001bdc:	01 00 00 00 	nop 
40001be0:	01 00 00 00 	nop 
40001be4:	01 00 00 00 	nop 
40001be8:	01 00 00 00 	nop 
40001bec:	01 00 00 00 	nop 
40001bf0:	01 00 00 00 	nop 
40001bf4:	01 00 00 00 	nop 
40001bf8:	01 00 00 00 	nop 
40001bfc:	01 00 00 00 	nop 

40001c00 <imem_blob_size>:
40001c00:	00 00 10 00 	unimp  0x1000
40001c04:	01 00 00 00 	nop 
40001c08:	01 00 00 00 	nop 
40001c0c:	01 00 00 00 	nop 
40001c10:	01 00 00 00 	nop 
40001c14:	01 00 00 00 	nop 
40001c18:	01 00 00 00 	nop 
40001c1c:	01 00 00 00 	nop 
40001c20:	01 00 00 00 	nop 
40001c24:	01 00 00 00 	nop 
40001c28:	01 00 00 00 	nop 
40001c2c:	01 00 00 00 	nop 
40001c30:	01 00 00 00 	nop 
40001c34:	01 00 00 00 	nop 
40001c38:	01 00 00 00 	nop 
40001c3c:	01 00 00 00 	nop 
40001c40:	01 00 00 00 	nop 
40001c44:	01 00 00 00 	nop 
40001c48:	01 00 00 00 	nop 
40001c4c:	01 00 00 00 	nop 
40001c50:	01 00 00 00 	nop 
40001c54:	01 00 00 00 	nop 
40001c58:	01 00 00 00 	nop 
40001c5c:	01 00 00 00 	nop 
40001c60:	01 00 00 00 	nop 
40001c64:	01 00 00 00 	nop 
40001c68:	01 00 00 00 	nop 
40001c6c:	01 00 00 00 	nop 
40001c70:	01 00 00 00 	nop 
40001c74:	01 00 00 00 	nop 
40001c78:	01 00 00 00 	nop 
40001c7c:	01 00 00 00 	nop 
40001c80:	01 00 00 00 	nop 
40001c84:	01 00 00 00 	nop 
40001c88:	01 00 00 00 	nop 
40001c8c:	01 00 00 00 	nop 
40001c90:	01 00 00 00 	nop 
40001c94:	01 00 00 00 	nop 
40001c98:	01 00 00 00 	nop 
40001c9c:	01 00 00 00 	nop 
40001ca0:	01 00 00 00 	nop 
40001ca4:	01 00 00 00 	nop 
40001ca8:	01 00 00 00 	nop 
40001cac:	01 00 00 00 	nop 
40001cb0:	01 00 00 00 	nop 
40001cb4:	01 00 00 00 	nop 
40001cb8:	01 00 00 00 	nop 
40001cbc:	01 00 00 00 	nop 
40001cc0:	01 00 00 00 	nop 
40001cc4:	01 00 00 00 	nop 
40001cc8:	01 00 00 00 	nop 
40001ccc:	01 00 00 00 	nop 
40001cd0:	01 00 00 00 	nop 
40001cd4:	01 00 00 00 	nop 
40001cd8:	01 00 00 00 	nop 
40001cdc:	01 00 00 00 	nop 
40001ce0:	01 00 00 00 	nop 
40001ce4:	01 00 00 00 	nop 
40001ce8:	01 00 00 00 	nop 
40001cec:	01 00 00 00 	nop 
40001cf0:	01 00 00 00 	nop 
40001cf4:	01 00 00 00 	nop 
40001cf8:	01 00 00 00 	nop 
40001cfc:	01 00 00 00 	nop 

40001d00 <imem_blob>:
40001d00:	d4 01 00 04 	ld  [ %g4 + %g4 ], %o2
40001d04:	54 02 02 40 	call  90082604 <allocatedLocks+0x50067ae4>
40001d08:	54 03 04 40 	call  900c2e08 <allocatedLocks+0x500a82e8>
40001d0c:	54 06 00 03 	call  90181d18 <allocatedLocks+0x501671f8>
40001d10:	e8 00 00 00 	ld  [ %g0 ], %l4
40001d14:	68 00 00 00 	call  e0001d14 <allocatedLocks+0x9ffe71f4>
40001d18:	68 00 00 00 	call  e0001d18 <allocatedLocks+0x9ffe71f8>
40001d1c:	68 00 00 00 	call  e0001d1c <allocatedLocks+0x9ffe71fc>
40001d20:	91 22 38 02 	mulscc  %o0, -2046, %o0
40001d24:	11 23 38 03 	sethi  %hi(0x8ce00c00), %o0
40001d28:	11 21 3c 40 	sethi  %hi(0x84f10000), %o0
40001d2c:	68 00 00 00 	call  e0001d2c <allocatedLocks+0x9ffe720c>
40001d30:	51 21 3c 00 	call  84850d30 <allocatedLocks+0x44836210>
40001d34:	51 26 3c 18 	call  84990d94 <allocatedLocks+0x44976274>
40001d38:	68 00 00 00 	call  e0001d38 <allocatedLocks+0x9ffe7218>
40001d3c:	68 00 00 00 	call  e0001d3c <allocatedLocks+0x9ffe721c>
40001d40:	e8 00 00 00 	ld  [ %g0 ], %l4
40001d44:	68 00 00 00 	call  e0001d44 <allocatedLocks+0x9ffe7224>
40001d48:	68 00 00 00 	call  e0001d48 <allocatedLocks+0x9ffe7228>
40001d4c:	68 00 00 00 	call  e0001d4c <allocatedLocks+0x9ffe722c>
40001d50:	51 22 3c 10 	call  84890d90 <allocatedLocks+0x44876270>
40001d54:	51 21 3c 08 	call  84850d74 <allocatedLocks+0x44836254>
40001d58:	68 00 00 00 	call  e0001d58 <allocatedLocks+0x9ffe7238>
40001d5c:	68 00 00 00 	call  e0001d5c <allocatedLocks+0x9ffe723c>
40001d60:	d4 04 00 03 	ld  [ %l0 + %g3 ], %o2
40001d64:	68 00 00 00 	call  e0001d64 <allocatedLocks+0x9ffe7244>
40001d68:	68 00 00 00 	call  e0001d68 <allocatedLocks+0x9ffe7248>
40001d6c:	68 00 00 00 	call  e0001d6c <allocatedLocks+0x9ffe724c>
40001d70:	4d 22 3c 10 	call  74890db0 <allocatedLocks+0x34876290>
40001d74:	68 00 00 00 	call  e0001d74 <allocatedLocks+0x9ffe7254>
40001d78:	68 00 00 00 	call  e0001d78 <allocatedLocks+0x9ffe7258>
40001d7c:	68 00 00 00 	call  e0001d7c <allocatedLocks+0x9ffe725c>
40001d80:	e8 00 00 00 	ld  [ %g0 ], %l4
40001d84:	68 00 00 00 	call  e0001d84 <allocatedLocks+0x9ffe7264>
40001d88:	68 00 00 00 	call  e0001d88 <allocatedLocks+0x9ffe7268>
40001d8c:	68 00 00 00 	call  e0001d8c <allocatedLocks+0x9ffe726c>
40001d90:	51 21 3c 20 	call  84850e10 <allocatedLocks+0x448362f0>
40001d94:	51 22 3c 28 	call  84890e34 <allocatedLocks+0x44876314>
40001d98:	51 24 3c 18 	call  84910df8 <allocatedLocks+0x448f62d8>
40001d9c:	68 00 00 00 	call  e0001d9c <allocatedLocks+0x9ffe727c>
40001da0:	d4 06 00 01 	ld  [ %i0 + %g1 ], %o2
40001da4:	68 00 00 00 	call  e0001da4 <allocatedLocks+0x9ffe7284>
40001da8:	68 00 00 00 	call  e0001da8 <allocatedLocks+0x9ffe7288>
40001dac:	68 00 00 00 	call  e0001dac <allocatedLocks+0x9ffe728c>
40001db0:	4d 21 3c 20 	call  74850e30 <allocatedLocks+0x34836310>
40001db4:	4d 22 3c 28 	call  74890e54 <allocatedLocks+0x34876334>
40001db8:	68 00 00 00 	call  e0001db8 <allocatedLocks+0x9ffe7298>
40001dbc:	68 00 00 00 	call  e0001dbc <allocatedLocks+0x9ffe729c>
40001dc0:	99 38 c4 00 	unknown
40001dc4:	19 39 cc 00 	sethi  %hi(0xe7300000), %o4
40001dc8:	19 3a d4 00 	sethi  %hi(0xeb500000), %o4
40001dcc:	19 3b dc 00 	sethi  %hi(0xef700000), %o4
40001dd0:	19 3c e4 00 	sethi  %hi(0xf3900000), %o4
40001dd4:	19 3d ec 00 	sethi  %hi(0xf7b00000), %o4
40001dd8:	19 3e f4 00 	sethi  %hi(0xfbd00000), %o4
40001ddc:	19 3f fc 00 	sethi  %hi(0xfff00000), %o4
40001de0:	99 28 44 00 	unknown
40001de4:	19 29 4c 00 	sethi  %hi(0xa5300000), %o4
40001de8:	19 2a 54 00 	sethi  %hi(0xa9500000), %o4
40001dec:	19 2b 5c 00 	sethi  %hi(0xad700000), %o4
40001df0:	19 2c 64 00 	sethi  %hi(0xb1900000), %o4
40001df4:	19 2d 6c 00 	sethi  %hi(0xb5b00000), %o4
40001df8:	19 2e 74 00 	sethi  %hi(0xb9d00000), %o4
40001dfc:	19 2f 7c 00 	sethi  %hi(0xbdf00000), %o4
40001e00:	e8 00 00 00 	ld  [ %g0 ], %l4
40001e04:	68 00 00 00 	call  e0001e04 <allocatedLocks+0x9ffe72e4>
40001e08:	68 00 00 00 	call  e0001e08 <allocatedLocks+0x9ffe72e8>
40001e0c:	68 00 00 00 	call  e0001e0c <allocatedLocks+0x9ffe72ec>
40001e10:	4d e4 00 01 	call  77901e14 <allocatedLocks+0x378e72f4>
40001e14:	4e 10 10 00 	call  78405e14 <allocatedLocks+0x383eb2f4>
40001e18:	4e 14 14 40 	call  78506f18 <allocatedLocks+0x384ec3f8>
40001e1c:	68 00 00 00 	call  e0001e1c <allocatedLocks+0x9ffe72fc>
40001e20:	c7 38 24 10 	std  %f34, [ 0x410 ]
40001e24:	47 39 24 11 	call  5ce4ae68 <allocatedLocks+0x1ce30348>
40001e28:	47 3a 24 12 	call  5ce8ae70 <allocatedLocks+0x1ce70350>
40001e2c:	47 3b 24 13 	call  5cecae78 <allocatedLocks+0x1ceb0358>
40001e30:	47 3c 24 14 	call  5cf0ae80 <allocatedLocks+0x1cef0360>
40001e34:	47 3d 24 15 	call  5cf4ae88 <allocatedLocks+0x1cf30368>
40001e38:	47 3e 24 16 	call  5cf8ae90 <allocatedLocks+0x1cf70370>
40001e3c:	47 3f 24 17 	call  5cfcae98 <allocatedLocks+0x1cfb0378>
40001e40:	c7 28 2c 10 	unknown
40001e44:	47 29 2c 11 	call  5ca4ce88 <allocatedLocks+0x1ca32368>
40001e48:	47 2a 2c 12 	call  5ca8ce90 <allocatedLocks+0x1ca72370>
40001e4c:	47 2b 2c 13 	call  5cacce98 <allocatedLocks+0x1cab2378>
40001e50:	47 2c 2c 14 	call  5cb0cea0 <allocatedLocks+0x1caf2380>
40001e54:	47 2d 2c 15 	call  5cb4cea8 <allocatedLocks+0x1cb32388>
40001e58:	47 2e 2c 16 	call  5cb8ceb0 <allocatedLocks+0x1cb72390>
40001e5c:	47 2f 2c 17 	call  5cbcceb8 <allocatedLocks+0x1cbb2398>
40001e60:	8a 57 fd 06 	umul  %i7, -762, %g5
40001e64:	11 21 0c 20 	sethi  %hi(0x84308000), %o0
40001e68:	11 22 14 20 	sethi  %hi(0x88508000), %o0
40001e6c:	68 00 00 00 	call  e0001e6c <allocatedLocks+0x9ffe734c>
40001e70:	68 00 00 00 	call  e0001e70 <allocatedLocks+0x9ffe7350>
40001e74:	68 00 00 00 	call  e0001e74 <allocatedLocks+0x9ffe7354>
40001e78:	68 00 00 00 	call  e0001e78 <allocatedLocks+0x9ffe7358>
40001e7c:	68 00 00 00 	call  e0001e7c <allocatedLocks+0x9ffe735c>
40001e80:	91 23 1c 80 	unknown
40001e84:	68 00 00 00 	call  e0001e84 <allocatedLocks+0x9ffe7364>
40001e88:	68 00 00 00 	call  e0001e88 <allocatedLocks+0x9ffe7368>
40001e8c:	68 00 00 00 	call  e0001e8c <allocatedLocks+0x9ffe736c>
40001e90:	52 18 00 03 	call  88601e9c <allocatedLocks+0x485e737c>
40001e94:	52 1c 1c 20 	call  88708f14 <allocatedLocks+0x486ee3f4>
40001e98:	52 08 1c 40 	call  88208f98 <allocatedLocks+0x481ee478>
40001e9c:	52 0c 1c 60 	call  8830901c <allocatedLocks+0x482ee4fc>
40001ea0:	d4 06 00 01 	ld  [ %i0 + %g1 ], %o2
40001ea4:	68 00 00 00 	call  e0001ea4 <allocatedLocks+0x9ffe7384>
40001ea8:	68 00 00 00 	call  e0001ea8 <allocatedLocks+0x9ffe7388>
40001eac:	68 00 00 00 	call  e0001eac <allocatedLocks+0x9ffe738c>
40001eb0:	4d 21 3c 20 	call  74850f30 <allocatedLocks+0x34836410>
40001eb4:	4d 22 3c 28 	call  74890f54 <allocatedLocks+0x34876434>
40001eb8:	68 00 00 00 	call  e0001eb8 <allocatedLocks+0x9ffe7398>
40001ebc:	68 00 00 00 	call  e0001ebc <allocatedLocks+0x9ffe739c>
40001ec0:	99 38 c4 00 	unknown
40001ec4:	19 39 cc 00 	sethi  %hi(0xe7300000), %o4
40001ec8:	19 3a d4 00 	sethi  %hi(0xeb500000), %o4
40001ecc:	19 3b dc 00 	sethi  %hi(0xef700000), %o4
40001ed0:	19 3c e4 00 	sethi  %hi(0xf3900000), %o4
40001ed4:	19 3d ec 00 	sethi  %hi(0xf7b00000), %o4
40001ed8:	19 3e f4 00 	sethi  %hi(0xfbd00000), %o4
40001edc:	19 3f fc 00 	sethi  %hi(0xfff00000), %o4
40001ee0:	99 28 44 00 	unknown
40001ee4:	19 29 4c 00 	sethi  %hi(0xa5300000), %o4
40001ee8:	19 2a 54 00 	sethi  %hi(0xa9500000), %o4
40001eec:	19 2b 5c 00 	sethi  %hi(0xad700000), %o4
40001ef0:	19 2c 64 00 	sethi  %hi(0xb1900000), %o4
40001ef4:	19 2d 6c 00 	sethi  %hi(0xb5b00000), %o4
40001ef8:	19 2e 74 00 	sethi  %hi(0xb9d00000), %o4
40001efc:	19 2f 7c 00 	sethi  %hi(0xbdf00000), %o4
40001f00:	e8 00 00 00 	ld  [ %g0 ], %l4
40001f04:	68 00 00 00 	call  e0001f04 <allocatedLocks+0x9ffe73e4>
40001f08:	68 00 00 00 	call  e0001f08 <allocatedLocks+0x9ffe73e8>
40001f0c:	68 00 00 00 	call  e0001f0c <allocatedLocks+0x9ffe73ec>
40001f10:	4d e4 0c 10 	call  77904f50 <allocatedLocks+0x378ea430>
40001f14:	4e 10 10 00 	call  78405f14 <allocatedLocks+0x383eb3f4>
40001f18:	4e 14 14 40 	call  78507018 <allocatedLocks+0x384ec4f8>
40001f1c:	68 00 00 00 	call  e0001f1c <allocatedLocks+0x9ffe73fc>
40001f20:	c7 38 24 10 	std  %f34, [ 0x410 ]
40001f24:	47 39 24 11 	call  5ce4af68 <allocatedLocks+0x1ce30448>
40001f28:	47 3a 24 12 	call  5ce8af70 <allocatedLocks+0x1ce70450>
40001f2c:	47 3b 24 13 	call  5cecaf78 <allocatedLocks+0x1ceb0458>
40001f30:	47 3c 24 14 	call  5cf0af80 <allocatedLocks+0x1cef0460>
40001f34:	47 3d 24 15 	call  5cf4af88 <allocatedLocks+0x1cf30468>
40001f38:	47 3e 24 16 	call  5cf8af90 <allocatedLocks+0x1cf70470>
40001f3c:	47 3f 24 17 	call  5cfcaf98 <allocatedLocks+0x1cfb0478>
40001f40:	c7 28 2c 10 	unknown
40001f44:	47 29 2c 11 	call  5ca4cf88 <allocatedLocks+0x1ca32468>
40001f48:	47 2a 2c 12 	call  5ca8cf90 <allocatedLocks+0x1ca72470>
40001f4c:	47 2b 2c 13 	call  5caccf98 <allocatedLocks+0x1cab2478>
40001f50:	47 2c 2c 14 	call  5cb0cfa0 <allocatedLocks+0x1caf2480>
40001f54:	47 2d 2c 15 	call  5cb4cfa8 <allocatedLocks+0x1cb32488>
40001f58:	47 2e 2c 16 	call  5cb8cfb0 <allocatedLocks+0x1cb72490>
40001f5c:	47 2f 2c 17 	call  5cbccfb8 <allocatedLocks+0x1cbb2498>
40001f60:	8a 57 fd 06 	umul  %i7, -762, %g5
40001f64:	11 21 0c 20 	sethi  %hi(0x84308000), %o0
40001f68:	11 22 14 20 	sethi  %hi(0x88508000), %o0
40001f6c:	68 00 00 00 	call  e0001f6c <allocatedLocks+0x9ffe744c>
40001f70:	68 00 00 00 	call  e0001f70 <allocatedLocks+0x9ffe7450>
40001f74:	68 00 00 00 	call  e0001f74 <allocatedLocks+0x9ffe7454>
40001f78:	68 00 00 00 	call  e0001f78 <allocatedLocks+0x9ffe7458>
40001f7c:	68 00 00 00 	call  e0001f7c <allocatedLocks+0x9ffe745c>
40001f80:	91 23 1c 80 	unknown
40001f84:	68 00 00 00 	call  e0001f84 <allocatedLocks+0x9ffe7464>
40001f88:	68 00 00 00 	call  e0001f88 <allocatedLocks+0x9ffe7468>
40001f8c:	68 00 00 00 	call  e0001f8c <allocatedLocks+0x9ffe746c>
40001f90:	52 18 00 03 	call  88601f9c <allocatedLocks+0x485e747c>
40001f94:	52 1c 1c 20 	call  88709014 <allocatedLocks+0x486ee4f4>
40001f98:	52 08 1c 40 	call  88209098 <allocatedLocks+0x481ee578>
40001f9c:	52 0c 1c 60 	call  8830911c <allocatedLocks+0x482ee5fc>
40001fa0:	d4 06 00 01 	ld  [ %i0 + %g1 ], %o2
40001fa4:	68 00 00 00 	call  e0001fa4 <allocatedLocks+0x9ffe7484>
40001fa8:	68 00 00 00 	call  e0001fa8 <allocatedLocks+0x9ffe7488>
40001fac:	68 00 00 00 	call  e0001fac <allocatedLocks+0x9ffe748c>
40001fb0:	4d 21 3c 20 	call  74851030 <allocatedLocks+0x34836510>
40001fb4:	4d 22 3c 28 	call  74891054 <allocatedLocks+0x34876534>
40001fb8:	68 00 00 00 	call  e0001fb8 <allocatedLocks+0x9ffe7498>
40001fbc:	68 00 00 00 	call  e0001fbc <allocatedLocks+0x9ffe749c>
40001fc0:	99 38 c4 00 	unknown
40001fc4:	19 39 cc 00 	sethi  %hi(0xe7300000), %o4
40001fc8:	19 3a d4 00 	sethi  %hi(0xeb500000), %o4
40001fcc:	19 3b dc 00 	sethi  %hi(0xef700000), %o4
40001fd0:	19 3c e4 00 	sethi  %hi(0xf3900000), %o4
40001fd4:	19 3d ec 00 	sethi  %hi(0xf7b00000), %o4
40001fd8:	19 3e f4 00 	sethi  %hi(0xfbd00000), %o4
40001fdc:	19 3f fc 00 	sethi  %hi(0xfff00000), %o4
40001fe0:	99 28 44 00 	unknown
40001fe4:	19 29 4c 00 	sethi  %hi(0xa5300000), %o4
40001fe8:	19 2a 54 00 	sethi  %hi(0xa9500000), %o4
40001fec:	19 2b 5c 00 	sethi  %hi(0xad700000), %o4
40001ff0:	19 2c 64 00 	sethi  %hi(0xb1900000), %o4
40001ff4:	19 2d 6c 00 	sethi  %hi(0xb5b00000), %o4
40001ff8:	19 2e 74 00 	sethi  %hi(0xb9d00000), %o4
40001ffc:	19 2f 7c 00 	sethi  %hi(0xbdf00000), %o4
40002000:	e8 00 00 00 	ld  [ %g0 ], %l4
40002004:	68 00 00 00 	call  e0002004 <allocatedLocks+0x9ffe74e4>
40002008:	68 00 00 00 	call  e0002008 <allocatedLocks+0x9ffe74e8>
4000200c:	68 00 00 00 	call  e000200c <allocatedLocks+0x9ffe74ec>
40002010:	4d e4 0c 40 	call  77905110 <allocatedLocks+0x378ea5f0>
40002014:	4e 10 10 00 	call  78406014 <allocatedLocks+0x383eb4f4>
40002018:	4e 14 14 40 	call  78507118 <allocatedLocks+0x384ec5f8>
4000201c:	68 00 00 00 	call  e000201c <allocatedLocks+0x9ffe74fc>
40002020:	c7 38 24 10 	std  %f34, [ 0x410 ]
40002024:	47 39 24 11 	call  5ce4b068 <allocatedLocks+0x1ce30548>
40002028:	47 3a 24 12 	call  5ce8b070 <allocatedLocks+0x1ce70550>
4000202c:	47 3b 24 13 	call  5cecb078 <allocatedLocks+0x1ceb0558>
40002030:	47 3c 24 14 	call  5cf0b080 <allocatedLocks+0x1cef0560>
40002034:	47 3d 24 15 	call  5cf4b088 <allocatedLocks+0x1cf30568>
40002038:	47 3e 24 16 	call  5cf8b090 <allocatedLocks+0x1cf70570>
4000203c:	47 3f 24 17 	call  5cfcb098 <allocatedLocks+0x1cfb0578>
40002040:	c7 28 2c 10 	unknown
40002044:	47 29 2c 11 	call  5ca4d088 <allocatedLocks+0x1ca32568>
40002048:	47 2a 2c 12 	call  5ca8d090 <allocatedLocks+0x1ca72570>
4000204c:	47 2b 2c 13 	call  5cacd098 <allocatedLocks+0x1cab2578>
40002050:	47 2c 2c 14 	call  5cb0d0a0 <allocatedLocks+0x1caf2580>
40002054:	47 2d 2c 15 	call  5cb4d0a8 <allocatedLocks+0x1cb32588>
40002058:	47 2e 2c 16 	call  5cb8d0b0 <allocatedLocks+0x1cb72590>
4000205c:	47 2f 2c 17 	call  5cbcd0b8 <allocatedLocks+0x1cbb2598>
40002060:	8a 57 fd 06 	umul  %i7, -762, %g5
40002064:	11 21 0c 20 	sethi  %hi(0x84308000), %o0
40002068:	11 22 14 20 	sethi  %hi(0x88508000), %o0
4000206c:	68 00 00 00 	call  e000206c <allocatedLocks+0x9ffe754c>
40002070:	68 00 00 00 	call  e0002070 <allocatedLocks+0x9ffe7550>
40002074:	68 00 00 00 	call  e0002074 <allocatedLocks+0x9ffe7554>
40002078:	68 00 00 00 	call  e0002078 <allocatedLocks+0x9ffe7558>
4000207c:	68 00 00 00 	call  e000207c <allocatedLocks+0x9ffe755c>
40002080:	91 23 1c 80 	unknown
40002084:	68 00 00 00 	call  e0002084 <allocatedLocks+0x9ffe7564>
40002088:	68 00 00 00 	call  e0002088 <allocatedLocks+0x9ffe7568>
4000208c:	68 00 00 00 	call  e000208c <allocatedLocks+0x9ffe756c>
40002090:	52 18 00 03 	call  8860209c <allocatedLocks+0x485e757c>
40002094:	52 1c 1c 20 	call  88709114 <allocatedLocks+0x486ee5f4>
40002098:	52 08 1c 40 	call  88209198 <allocatedLocks+0x481ee678>
4000209c:	52 0c 1c 60 	call  8830921c <allocatedLocks+0x482ee6fc>
400020a0:	d4 06 00 01 	ld  [ %i0 + %g1 ], %o2
400020a4:	68 00 00 00 	call  e00020a4 <allocatedLocks+0x9ffe7584>
400020a8:	68 00 00 00 	call  e00020a8 <allocatedLocks+0x9ffe7588>
400020ac:	68 00 00 00 	call  e00020ac <allocatedLocks+0x9ffe758c>
400020b0:	4d 21 3c 20 	call  74851130 <allocatedLocks+0x34836610>
400020b4:	4d 22 3c 28 	call  74891154 <allocatedLocks+0x34876634>
400020b8:	68 00 00 00 	call  e00020b8 <allocatedLocks+0x9ffe7598>
400020bc:	68 00 00 00 	call  e00020bc <allocatedLocks+0x9ffe759c>
400020c0:	99 38 c4 00 	unknown
400020c4:	19 39 cc 00 	sethi  %hi(0xe7300000), %o4
400020c8:	19 3a d4 00 	sethi  %hi(0xeb500000), %o4
400020cc:	19 3b dc 00 	sethi  %hi(0xef700000), %o4
400020d0:	19 3c e4 00 	sethi  %hi(0xf3900000), %o4
400020d4:	19 3d ec 00 	sethi  %hi(0xf7b00000), %o4
400020d8:	19 3e f4 00 	sethi  %hi(0xfbd00000), %o4
400020dc:	19 3f fc 00 	sethi  %hi(0xfff00000), %o4
400020e0:	99 28 44 00 	unknown
400020e4:	19 29 4c 00 	sethi  %hi(0xa5300000), %o4
400020e8:	19 2a 54 00 	sethi  %hi(0xa9500000), %o4
400020ec:	19 2b 5c 00 	sethi  %hi(0xad700000), %o4
400020f0:	19 2c 64 00 	sethi  %hi(0xb1900000), %o4
400020f4:	19 2d 6c 00 	sethi  %hi(0xb5b00000), %o4
400020f8:	19 2e 74 00 	sethi  %hi(0xb9d00000), %o4
400020fc:	19 2f 7c 00 	sethi  %hi(0xbdf00000), %o4
40002100:	e8 00 00 00 	ld  [ %g0 ], %l4
40002104:	68 00 00 00 	call  e0002104 <allocatedLocks+0x9ffe75e4>
40002108:	68 00 00 00 	call  e0002108 <allocatedLocks+0x9ffe75e8>
4000210c:	68 00 00 00 	call  e000210c <allocatedLocks+0x9ffe75ec>
40002110:	4d e4 0c 50 	call  77905250 <allocatedLocks+0x378ea730>
40002114:	4e 10 10 00 	call  78406114 <allocatedLocks+0x383eb5f4>
40002118:	4e 14 14 40 	call  78507218 <allocatedLocks+0x384ec6f8>
4000211c:	68 00 00 00 	call  e000211c <allocatedLocks+0x9ffe75fc>
40002120:	c7 38 24 10 	std  %f34, [ 0x410 ]
40002124:	47 39 24 11 	call  5ce4b168 <allocatedLocks+0x1ce30648>
40002128:	47 3a 24 12 	call  5ce8b170 <allocatedLocks+0x1ce70650>
4000212c:	47 3b 24 13 	call  5cecb178 <allocatedLocks+0x1ceb0658>
40002130:	47 3c 24 14 	call  5cf0b180 <allocatedLocks+0x1cef0660>
40002134:	47 3d 24 15 	call  5cf4b188 <allocatedLocks+0x1cf30668>
40002138:	47 3e 24 16 	call  5cf8b190 <allocatedLocks+0x1cf70670>
4000213c:	47 3f 24 17 	call  5cfcb198 <allocatedLocks+0x1cfb0678>
40002140:	c7 28 2c 10 	unknown
40002144:	47 29 2c 11 	call  5ca4d188 <allocatedLocks+0x1ca32668>
40002148:	47 2a 2c 12 	call  5ca8d190 <allocatedLocks+0x1ca72670>
4000214c:	47 2b 2c 13 	call  5cacd198 <allocatedLocks+0x1cab2678>
40002150:	47 2c 2c 14 	call  5cb0d1a0 <allocatedLocks+0x1caf2680>
40002154:	47 2d 2c 15 	call  5cb4d1a8 <allocatedLocks+0x1cb32688>
40002158:	47 2e 2c 16 	call  5cb8d1b0 <allocatedLocks+0x1cb72690>
4000215c:	47 2f 2c 17 	call  5cbcd1b8 <allocatedLocks+0x1cbb2698>
40002160:	8a 57 fd 06 	umul  %i7, -762, %g5
40002164:	11 21 0c 20 	sethi  %hi(0x84308000), %o0
40002168:	11 22 14 20 	sethi  %hi(0x88508000), %o0
4000216c:	68 00 00 00 	call  e000216c <allocatedLocks+0x9ffe764c>
40002170:	68 00 00 00 	call  e0002170 <allocatedLocks+0x9ffe7650>
40002174:	68 00 00 00 	call  e0002174 <allocatedLocks+0x9ffe7654>
40002178:	68 00 00 00 	call  e0002178 <allocatedLocks+0x9ffe7658>
4000217c:	68 00 00 00 	call  e000217c <allocatedLocks+0x9ffe765c>
40002180:	91 23 1c 80 	unknown
40002184:	68 00 00 00 	call  e0002184 <allocatedLocks+0x9ffe7664>
40002188:	68 00 00 00 	call  e0002188 <allocatedLocks+0x9ffe7668>
4000218c:	68 00 00 00 	call  e000218c <allocatedLocks+0x9ffe766c>
40002190:	52 18 00 03 	call  8860219c <allocatedLocks+0x485e767c>
40002194:	52 1c 1c 20 	call  88709214 <allocatedLocks+0x486ee6f4>
40002198:	52 08 1c 40 	call  88209298 <allocatedLocks+0x481ee778>
4000219c:	52 0c 1c 60 	call  8830931c <allocatedLocks+0x482ee7fc>
400021a0:	e8 00 00 00 	ld  [ %g0 ], %l4
400021a4:	68 00 00 00 	call  e00021a4 <allocatedLocks+0x9ffe7684>
400021a8:	68 00 00 00 	call  e00021a8 <allocatedLocks+0x9ffe7688>
400021ac:	68 00 00 00 	call  e00021ac <allocatedLocks+0x9ffe768c>
400021b0:	4d 21 3c 20 	call  74851230 <allocatedLocks+0x34836710>
400021b4:	4d 22 3c 28 	call  74891254 <allocatedLocks+0x34876734>
400021b8:	4d 24 3c 18 	call  74911218 <allocatedLocks+0x348f66f8>
400021bc:	68 00 00 00 	call  e00021bc <allocatedLocks+0x9ffe769c>
400021c0:	91 22 14 80 	unknown
400021c4:	e8 00 00 00 	ld  [ %g0 ], %l4
400021c8:	e8 00 00 00 	ld  [ %g0 ], %l4
400021cc:	68 00 00 00 	call  e00021cc <allocatedLocks+0x9ffe76ac>
400021d0:	e8 00 00 00 	ld  [ %g0 ], %l4
400021d4:	68 00 00 00 	call  e00021d4 <allocatedLocks+0x9ffe76b4>
400021d8:	68 00 00 00 	call  e00021d8 <allocatedLocks+0x9ffe76b8>
400021dc:	68 00 00 00 	call  e00021dc <allocatedLocks+0x9ffe76bc>
400021e0:	89 17 dd 04 	unknown
400021e4:	68 00 00 00 	call  e00021e4 <allocatedLocks+0x9ffe76c4>
400021e8:	68 00 00 00 	call  e00021e8 <allocatedLocks+0x9ffe76c8>
400021ec:	68 00 00 00 	call  e00021ec <allocatedLocks+0x9ffe76cc>
400021f0:	51 22 3c 28 	call  84891290 <allocatedLocks+0x44876770>
400021f4:	68 00 00 00 	call  e00021f4 <allocatedLocks+0x9ffe76d4>
400021f8:	68 00 00 00 	call  e00021f8 <allocatedLocks+0x9ffe76d8>
400021fc:	68 00 00 00 	call  e00021fc <allocatedLocks+0x9ffe76dc>
40002200:	d4 02 00 80 	ld  [ %o0 ], %o2
40002204:	54 08 02 40 	call  90202b04 <allocatedLocks+0x501e7fe4>
40002208:	68 00 00 00 	call  e0002208 <allocatedLocks+0x9ffe76e8>
4000220c:	68 00 00 00 	call  e000220c <allocatedLocks+0x9ffe76ec>
40002210:	4d 25 3c 00 	call  74951210 <allocatedLocks+0x349366f0>
40002214:	4d 21 3c 08 	call  74851234 <allocatedLocks+0x34836714>
40002218:	68 00 00 00 	call  e0002218 <allocatedLocks+0x9ffe76f8>
4000221c:	68 00 00 00 	call  e000221c <allocatedLocks+0x9ffe76fc>
40002220:	91 21 08 02 	unknown
40002224:	11 22 38 08 	sethi  %hi(0x88e02000), %o0
40002228:	e8 00 00 00 	ld  [ %g0 ], %l4
4000222c:	68 00 00 00 	call  e000222c <allocatedLocks+0x9ffe770c>
40002230:	e8 00 00 00 	ld  [ %g0 ], %l4
40002234:	68 00 00 00 	call  e0002234 <allocatedLocks+0x9ffe7714>
40002238:	68 00 00 00 	call  e0002238 <allocatedLocks+0x9ffe7718>
4000223c:	68 00 00 00 	call  e000223c <allocatedLocks+0x9ffe771c>
40002240:	e8 00 00 00 	ld  [ %g0 ], %l4
40002244:	68 00 00 00 	call  e0002244 <allocatedLocks+0x9ffe7724>
40002248:	68 00 00 00 	call  e0002248 <allocatedLocks+0x9ffe7728>
4000224c:	68 00 00 00 	call  e000224c <allocatedLocks+0x9ffe772c>
40002250:	51 21 3c 08 	call  84851270 <allocatedLocks+0x44836750>
40002254:	51 21 3c 20 	call  848512d4 <allocatedLocks+0x448367b4>
40002258:	51 22 3c 10 	call  84891298 <allocatedLocks+0x44876778>
4000225c:	51 22 3c 28 	call  848912fc <allocatedLocks+0x448767dc>
40002260:	95 25 2c 01 	mulscc  %l4, 0xc01, %o2
40002264:	e8 00 00 00 	ld  [ %g0 ], %l4
40002268:	e8 00 00 00 	ld  [ %g0 ], %l4
4000226c:	68 00 00 00 	call  e000226c <allocatedLocks+0x9ffe774c>
40002270:	e8 00 00 00 	ld  [ %g0 ], %l4
40002274:	68 00 00 00 	call  e0002274 <allocatedLocks+0x9ffe7754>
40002278:	68 00 00 00 	call  e0002278 <allocatedLocks+0x9ffe7758>
4000227c:	68 00 00 00 	call  e000227c <allocatedLocks+0x9ffe775c>
40002280:	89 17 d7 05 	unknown
40002284:	68 00 00 00 	call  e0002284 <allocatedLocks+0x9ffe7764>
40002288:	68 00 00 00 	call  e0002288 <allocatedLocks+0x9ffe7768>
4000228c:	68 00 00 00 	call  e000228c <allocatedLocks+0x9ffe776c>
40002290:	51 25 3c 00 	call  84951290 <allocatedLocks+0x44936770>
40002294:	68 00 00 00 	call  e0002294 <allocatedLocks+0x9ffe7774>
40002298:	68 00 00 00 	call  e0002298 <allocatedLocks+0x9ffe7778>
4000229c:	68 00 00 00 	call  e000229c <allocatedLocks+0x9ffe777c>
400022a0:	ec 00 00 00 	ld  [ %g0 ], %l6
	...

40002d00 <get_blob_info>:
40002d00:	9d e3 bf a0 	save  %sp, -96, %sp
40002d04:	27 10 00 07 	sethi  %hi(0x40001c00), %l3
40002d08:	a6 14 e0 00 	mov  %l3, %l3	! 40001c00 <imem_blob_size>
40002d0c:	e8 04 e0 00 	ld  [ %l3 ], %l4
40002d10:	e8 26 20 00 	st  %l4, [ %i0 ]
40002d14:	27 10 00 07 	sethi  %hi(0x40001c00), %l3
40002d18:	a6 14 e1 00 	or  %l3, 0x100, %l3	! 40001d00 <imem_blob>
40002d1c:	e6 26 20 04 	st  %l3, [ %i0 + 4 ]
40002d20:	27 10 00 06 	sethi  %hi(0x40001800), %l3
40002d24:	a6 14 e3 00 	or  %l3, 0x300, %l3	! 40001b00 <dmem_blob_size>
40002d28:	e8 04 e0 00 	ld  [ %l3 ], %l4
40002d2c:	e8 26 20 08 	st  %l4, [ %i0 + 8 ]
40002d30:	27 10 00 00 	sethi  %hi(0x40000000), %l3
40002d34:	a6 14 e3 00 	or  %l3, 0x300, %l3	! 40000300 <dmem_blob>
40002d38:	e6 26 20 0c 	st  %l3, [ %i0 + 0xc ]
40002d3c:	81 c7 e0 08 	ret 
40002d40:	81 e8 00 00 	restore 
40002d44:	01 00 00 00 	nop 

40002d48 <cortos_lock_acquire_buzy>:
40002d48:	9d e3 bf a0 	save  %sp, -96, %sp

40002d4c <wait_for_lock>:
40002d4c:	e2 0e 00 00 	ldub  [ %i0 ], %l1
40002d50:	80 94 40 00 	tst  %l1
40002d54:	12 bf ff fe 	bne  40002d4c <wait_for_lock>
40002d58:	01 00 00 00 	nop 

40002d5c <try_to_lock>:
40002d5c:	e2 6e 00 00 	ldstub  [ %i0 ], %l1
40002d60:	80 94 40 00 	tst  %l1
40002d64:	02 80 00 03 	be  40002d70 <out>
40002d68:	01 00 00 00 	nop 
40002d6c:	30 bf ff f8 	b,a   40002d4c <wait_for_lock>

40002d70 <out>:
40002d70:	b0 10 20 01 	mov  1, %i0	! 1 <__DYNAMIC+0x1>
40002d74:	81 e8 00 00 	restore 
40002d78:	81 c3 e0 08 	retl 
40002d7c:	01 00 00 00 	nop 

40002d80 <cortos_lock_acquire>:
40002d80:	9d e3 bf a0 	save  %sp, -96, %sp

40002d84 <try_to_lock_once>:
40002d84:	e2 6e 00 00 	ldstub  [ %i0 ], %l1
40002d88:	80 94 40 00 	tst  %l1
40002d8c:	02 80 00 03 	be  40002d98 <lock_acquired>
40002d90:	01 00 00 00 	nop 
40002d94:	30 80 00 03 	b,a   40002da0 <lock_not_acquired>

40002d98 <lock_acquired>:
40002d98:	10 80 00 03 	b  40002da4 <exit_cortos_lock_acquire>
40002d9c:	b0 10 20 01 	mov  1, %i0

40002da0 <lock_not_acquired>:
40002da0:	b0 10 00 00 	mov  %g0, %i0

40002da4 <exit_cortos_lock_acquire>:
40002da4:	81 e8 00 00 	restore 
40002da8:	81 c3 e0 08 	retl 
40002dac:	01 00 00 00 	nop 

40002db0 <cortos_lock_release>:
40002db0:	9d e3 bf a0 	save  %sp, -96, %sp
40002db4:	81 43 c0 00 	stbar 
40002db8:	c0 2e 00 00 	clrb  [ %i0 ]
40002dbc:	81 e8 00 00 	restore 
40002dc0:	81 c3 e0 08 	retl 
40002dc4:	01 00 00 00 	nop 
40002dc8:	40 00 32 40 	call  4000f6c8 <__sparc_get_pc_thunk.l7+0x6c8>
40002dcc:	40 00 32 78 	call  4000f7ac <__sparc_get_pc_thunk.l7+0x7ac>
40002dd0:	40 00 32 84 	call  4000f7e0 <__sparc_get_pc_thunk.l7+0x7e0>
40002dd4:	40 00 32 90 	call  4000f814 <__sparc_get_pc_thunk.l7+0x814>
40002dd8:	40 00 32 9c 	call  4000f848 <__sparc_get_pc_thunk.l7+0x848>
40002ddc:	40 00 32 a8 	call  4000f87c <__sparc_get_pc_thunk.l7+0x87c>
40002de0:	40 00 32 b4 	call  4000f8b0 <__sparc_get_pc_thunk.l7+0x8b0>
40002de4:	40 00 32 c0 	call  4000f8e4 <__sparc_get_pc_thunk.l7+0x8e4>
40002de8:	40 00 32 cc 	call  4000f918 <__sparc_get_pc_thunk.l7+0x918>
40002dec:	40 00 32 d8 	call  4000f94c <__sparc_get_pc_thunk.l7+0x94c>
40002df0:	40 00 32 e4 	call  4000f980 <__sparc_get_pc_thunk.l7+0x980>
40002df4:	40 00 32 f0 	call  4000f9b4 <__sparc_get_pc_thunk.l7+0x9b4>
40002df8:	40 00 32 fc 	call  4000f9e8 <__sparc_get_pc_thunk.l7+0x9e8>
40002dfc:	40 00 33 08 	call  4000fa1c <__sparc_get_pc_thunk.l7+0xa1c>
40002e00:	40 00 32 60 	call  4000f780 <__sparc_get_pc_thunk.l7+0x780>
40002e04:	40 00 32 6c 	call  4000f7b4 <__sparc_get_pc_thunk.l7+0x7b4>
40002e08:	40 00 33 24 	call  4000fa98 <__sparc_get_pc_thunk.l7+0xa98>
40002e0c:	40 00 33 5c 	call  4000fb7c <__sparc_get_pc_thunk.l7+0xb7c>
40002e10:	40 00 33 68 	call  4000fbb0 <__sparc_get_pc_thunk.l7+0xbb0>
40002e14:	40 00 33 74 	call  4000fbe4 <__sparc_get_pc_thunk.l7+0xbe4>
40002e18:	40 00 33 80 	call  4000fc18 <__sparc_get_pc_thunk.l7+0xc18>
40002e1c:	40 00 33 8c 	call  4000fc4c <__sparc_get_pc_thunk.l7+0xc4c>
40002e20:	40 00 33 98 	call  4000fc80 <__sparc_get_pc_thunk.l7+0xc80>
40002e24:	40 00 33 a4 	call  4000fcb4 <__sparc_get_pc_thunk.l7+0xcb4>
40002e28:	40 00 33 b0 	call  4000fce8 <__sparc_get_pc_thunk.l7+0xce8>
40002e2c:	40 00 33 bc 	call  4000fd1c <__sparc_get_pc_thunk.l7+0xd1c>
40002e30:	40 00 33 c8 	call  4000fd50 <__sparc_get_pc_thunk.l7+0xd50>
40002e34:	40 00 33 d4 	call  4000fd84 <__sparc_get_pc_thunk.l7+0xd84>
40002e38:	40 00 33 e0 	call  4000fdb8 <__sparc_get_pc_thunk.l7+0xdb8>
40002e3c:	40 00 33 ec 	call  4000fdec <__sparc_get_pc_thunk.l7+0xdec>
40002e40:	40 00 33 44 	call  4000fb50 <__sparc_get_pc_thunk.l7+0xb50>
40002e44:	40 00 33 50 	call  4000fb84 <__sparc_get_pc_thunk.l7+0xb84>

40002e48 <__ajit_clear_all_gp_registers__>:
40002e48:	82 10 00 00 	mov  %g0, %g1
40002e4c:	84 10 00 00 	mov  %g0, %g2
40002e50:	86 10 00 00 	mov  %g0, %g3
40002e54:	88 10 00 00 	mov  %g0, %g4
40002e58:	8a 10 00 00 	mov  %g0, %g5
40002e5c:	8c 10 00 00 	mov  %g0, %g6
40002e60:	8e 10 00 00 	mov  %g0, %g7
40002e64:	b0 10 00 00 	mov  %g0, %i0
40002e68:	b2 10 00 00 	mov  %g0, %i1
40002e6c:	b4 10 00 00 	mov  %g0, %i2
40002e70:	b6 10 00 00 	mov  %g0, %i3
40002e74:	b8 10 00 00 	mov  %g0, %i4
40002e78:	ba 10 00 00 	mov  %g0, %i5
40002e7c:	bc 10 00 00 	mov  %g0, %fp
40002e80:	be 10 00 00 	mov  %g0, %i7
40002e84:	a0 10 00 00 	mov  %g0, %l0
40002e88:	a2 10 00 00 	mov  %g0, %l1
40002e8c:	a4 10 00 00 	mov  %g0, %l2
40002e90:	a6 10 00 00 	mov  %g0, %l3
40002e94:	a8 10 00 00 	mov  %g0, %l4
40002e98:	aa 10 00 00 	mov  %g0, %l5
40002e9c:	ac 10 00 00 	mov  %g0, %l6
40002ea0:	ae 10 00 00 	mov  %g0, %l7
40002ea4:	90 10 00 00 	mov  %g0, %o0
40002ea8:	92 10 00 00 	mov  %g0, %o1
40002eac:	94 10 00 00 	mov  %g0, %o2
40002eb0:	96 10 00 00 	mov  %g0, %o3
40002eb4:	98 10 00 00 	mov  %g0, %o4
40002eb8:	9a 10 00 00 	mov  %g0, %o5
40002ebc:	9c 10 00 00 	mov  %g0, %sp
40002ec0:	9e 10 00 00 	mov  %g0, %o7
40002ec4:	82 10 20 07 	mov  7, %g1
40002ec8:	81 e0 00 00 	save 
40002ecc:	a0 10 00 00 	mov  %g0, %l0
40002ed0:	a2 10 00 00 	mov  %g0, %l1
40002ed4:	a4 10 00 00 	mov  %g0, %l2
40002ed8:	a6 10 00 00 	mov  %g0, %l3
40002edc:	a8 10 00 00 	mov  %g0, %l4
40002ee0:	aa 10 00 00 	mov  %g0, %l5
40002ee4:	ac 10 00 00 	mov  %g0, %l6
40002ee8:	ae 10 00 00 	mov  %g0, %l7
40002eec:	90 10 00 00 	mov  %g0, %o0
40002ef0:	92 10 00 00 	mov  %g0, %o1
40002ef4:	94 10 00 00 	mov  %g0, %o2
40002ef8:	96 10 00 00 	mov  %g0, %o3
40002efc:	98 10 00 00 	mov  %g0, %o4
40002f00:	9a 10 00 00 	mov  %g0, %o5
40002f04:	9c 10 00 00 	mov  %g0, %sp
40002f08:	9e 10 00 00 	mov  %g0, %o7
40002f0c:	82 80 7f ff 	addcc  %g1, -1, %g1
40002f10:	12 bf ff ee 	bne  40002ec8 <__ajit_clear_all_gp_registers__+0x80>
40002f14:	01 00 00 00 	nop 
40002f18:	82 10 20 07 	mov  7, %g1	! 7 <__DYNAMIC+0x7>
40002f1c:	81 e8 00 00 	restore 
40002f20:	82 80 7f ff 	addcc  %g1, -1, %g1
40002f24:	12 bf ff fe 	bne  40002f1c <__ajit_clear_all_gp_registers__+0xd4>
40002f28:	01 00 00 00 	nop 
40002f2c:	81 c3 e0 08 	retl 
40002f30:	01 00 00 00 	nop 

40002f34 <ajit_read_from_scratch_pad>:
40002f34:	80 a2 20 1f 	cmp  %o0, 0x1f
40002f38:	18 80 00 05 	bgu  40002f4c <ajit_read_from_scratch_pad+0x18>
40002f3c:	82 10 20 00 	clr  %g1
40002f40:	91 2a 20 02 	sll  %o0, 2, %o0
40002f44:	03 3f ff cb 	sethi  %hi(0xffff2c00), %g1
40002f48:	c2 02 00 01 	ld  [ %o0 + %g1 ], %g1
40002f4c:	81 c3 e0 08 	retl 
40002f50:	90 10 00 01 	mov  %g1, %o0

40002f54 <ajit_write_to_scratch_pad>:
40002f54:	80 a2 20 1f 	cmp  %o0, 0x1f
40002f58:	18 80 00 04 	bgu  40002f68 <ajit_write_to_scratch_pad+0x14>
40002f5c:	91 2a 20 02 	sll  %o0, 2, %o0
40002f60:	03 3f ff cb 	sethi  %hi(0xffff2c00), %g1
40002f64:	d2 22 00 01 	st  %o1, [ %o0 + %g1 ]
40002f68:	81 c3 e0 08 	retl 
40002f6c:	01 00 00 00 	nop 

40002f70 <ajit_configure_i2c_master>:
40002f70:	81 80 20 00 	mov  %g0, %y
40002f74:	01 00 00 00 	nop 
40002f78:	01 00 00 00 	nop 
40002f7c:	01 00 00 00 	nop 
40002f80:	92 72 00 09 	udiv  %o0, %o1, %o1
40002f84:	03 3f ff cd 	sethi  %hi(0xffff3400), %g1
40002f88:	93 32 60 02 	srl  %o1, 2, %o1
40002f8c:	82 10 62 00 	or  %g1, 0x200, %g1
40002f90:	90 10 20 00 	clr  %o0
40002f94:	81 c3 e0 08 	retl 
40002f98:	d2 20 40 00 	st  %o1, [ %g1 ]

40002f9c <ajit_i2c_master_is_ready>:
40002f9c:	03 3f ff cd 	sethi  %hi(0xffff3400), %g1
40002fa0:	82 10 62 08 	or  %g1, 0x208, %g1	! ffff3608 <allocatedLocks+0xbffd8ae8>
40002fa4:	d0 00 40 00 	ld  [ %g1 ], %o0
40002fa8:	91 32 20 0a 	srl  %o0, 0xa, %o0
40002fac:	81 c3 e0 08 	retl 
40002fb0:	90 0a 20 01 	and  %o0, 1, %o0

40002fb4 <ajit_i2c_master_write_command>:
40002fb4:	03 3f ff cd 	sethi  %hi(0xffff3400), %g1
40002fb8:	82 10 62 04 	or  %g1, 0x204, %g1	! ffff3604 <allocatedLocks+0xbffd8ae4>
40002fbc:	81 c3 e0 08 	retl 
40002fc0:	d0 20 40 00 	st  %o0, [ %g1 ]

40002fc4 <ajit_i2c_master_read_status>:
40002fc4:	03 3f ff cd 	sethi  %hi(0xffff3400), %g1
40002fc8:	82 10 62 08 	or  %g1, 0x208, %g1	! ffff3608 <allocatedLocks+0xbffd8ae8>
40002fcc:	81 c3 e0 08 	retl 
40002fd0:	d0 00 40 00 	ld  [ %g1 ], %o0

40002fd4 <ajit_i2c_master_access_slave_memory_device>:
40002fd4:	03 3f ff cd 	sethi  %hi(0xffff3400), %g1
40002fd8:	84 10 62 08 	or  %g1, 0x208, %g2	! ffff3608 <allocatedLocks+0xbffd8ae8>
40002fdc:	c4 00 80 00 	ld  [ %g2 ], %g2
40002fe0:	80 88 a4 00 	btst  0x400, %g2
40002fe4:	02 80 00 11 	be  40003028 <ajit_i2c_master_access_slave_memory_device+0x54>
40002fe8:	82 10 62 04 	or  %g1, 0x204, %g1
40002fec:	91 2a 20 10 	sll  %o0, 0x10, %o0
40002ff0:	87 2a 60 1f 	sll  %o1, 0x1f, %g3
40002ff4:	09 18 00 00 	sethi  %hi(0x60000000), %g4
40002ff8:	95 2a a0 08 	sll  %o2, 8, %o2
40002ffc:	90 12 00 04 	or  %o0, %g4, %o0
40003000:	90 12 00 03 	or  %o0, %g3, %o0
40003004:	94 12 00 0a 	or  %o0, %o2, %o2
40003008:	96 12 80 0b 	or  %o2, %o3, %o3
4000300c:	d6 20 40 00 	st  %o3, [ %g1 ]
40003010:	80 a2 60 00 	cmp  %o1, 0
40003014:	02 80 00 03 	be  40003020 <ajit_i2c_master_access_slave_memory_device+0x4c>
40003018:	90 10 20 00 	clr  %o0
4000301c:	90 10 00 02 	mov  %g2, %o0
40003020:	81 c3 e0 08 	retl 
40003024:	90 0a 20 ff 	and  %o0, 0xff, %o0
40003028:	30 80 00 00 	b,a   40003028 <ajit_i2c_master_access_slave_memory_device+0x54>

4000302c <__ajit_read_core_thread_id_word__>:
4000302c:	91 47 40 00 	rd  %asr29, %o0
40003030:	81 c3 e0 08 	retl 
40003034:	01 00 00 00 	nop 

40003038 <ajit_read_thread_descriptor>:
40003038:	9d e3 bf a0 	save  %sp, -96, %sp
4000303c:	83 47 00 00 	rd  %asr28, %g1
40003040:	87 30 60 1e 	srl  %g1, 0x1e, %g3
40003044:	80 a0 e0 03 	cmp  %g3, 3
40003048:	02 80 00 0a 	be  40003070 <ajit_read_thread_descriptor+0x38>
4000304c:	84 10 20 20 	mov  0x20, %g2
40003050:	80 a0 e0 02 	cmp  %g3, 2
40003054:	02 80 00 07 	be  40003070 <ajit_read_thread_descriptor+0x38>
40003058:	84 10 20 10 	mov  0x10, %g2
4000305c:	86 18 e0 01 	xor  %g3, 1, %g3
40003060:	80 a0 00 03 	cmp  %g0, %g3
40003064:	84 60 20 00 	subx  %g0, 0, %g2
40003068:	84 08 a0 fc 	and  %g2, 0xfc, %g2
4000306c:	84 00 a0 08 	add  %g2, 8, %g2
40003070:	87 30 60 1c 	srl  %g1, 0x1c, %g3
40003074:	86 08 e0 03 	and  %g3, 3, %g3
40003078:	80 a0 e0 03 	cmp  %g3, 3
4000307c:	02 80 00 2d 	be  40003130 <ajit_read_thread_descriptor+0xf8>
40003080:	c4 2e 00 00 	stb  %g2, [ %i0 ]
40003084:	80 a0 e0 02 	cmp  %g3, 2
40003088:	02 80 00 07 	be  400030a4 <ajit_read_thread_descriptor+0x6c>
4000308c:	84 10 20 10 	mov  0x10, %g2
40003090:	86 18 e0 01 	xor  %g3, 1, %g3
40003094:	80 a0 00 03 	cmp  %g0, %g3
40003098:	84 60 20 00 	subx  %g0, 0, %g2
4000309c:	84 08 a0 fc 	and  %g2, 0xfc, %g2
400030a0:	84 00 a0 08 	add  %g2, 8, %g2
400030a4:	99 30 60 1a 	srl  %g1, 0x1a, %o4
400030a8:	9b 30 60 18 	srl  %g1, 0x18, %o5
400030ac:	9f 30 60 14 	srl  %g1, 0x14, %o7
400030b0:	b3 30 60 10 	srl  %g1, 0x10, %i1
400030b4:	b5 30 60 0c 	srl  %g1, 0xc, %i2
400030b8:	b7 30 60 09 	srl  %g1, 9, %i3
400030bc:	b9 30 60 07 	srl  %g1, 7, %i4
400030c0:	bb 30 60 05 	srl  %g1, 5, %i5
400030c4:	89 30 60 02 	srl  %g1, 2, %g4
400030c8:	87 30 60 01 	srl  %g1, 1, %g3
400030cc:	98 0b 20 03 	and  %o4, 3, %o4
400030d0:	9a 0b 60 03 	and  %o5, 3, %o5
400030d4:	9e 0b e0 0f 	and  %o7, 0xf, %o7
400030d8:	b2 0e 60 0f 	and  %i1, 0xf, %i1
400030dc:	b4 0e a0 0f 	and  %i2, 0xf, %i2
400030e0:	b6 0e e0 07 	and  %i3, 7, %i3
400030e4:	b8 0f 20 03 	and  %i4, 3, %i4
400030e8:	ba 0f 60 03 	and  %i5, 3, %i5
400030ec:	88 09 20 01 	and  %g4, 1, %g4
400030f0:	86 08 e0 01 	and  %g3, 1, %g3
400030f4:	82 08 60 01 	and  %g1, 1, %g1
400030f8:	c4 2e 20 01 	stb  %g2, [ %i0 + 1 ]
400030fc:	d8 2e 20 02 	stb  %o4, [ %i0 + 2 ]
40003100:	da 2e 20 03 	stb  %o5, [ %i0 + 3 ]
40003104:	de 2e 20 04 	stb  %o7, [ %i0 + 4 ]
40003108:	f2 2e 20 05 	stb  %i1, [ %i0 + 5 ]
4000310c:	f4 2e 20 06 	stb  %i2, [ %i0 + 6 ]
40003110:	f6 2e 20 07 	stb  %i3, [ %i0 + 7 ]
40003114:	f8 2e 20 08 	stb  %i4, [ %i0 + 8 ]
40003118:	fa 2e 20 09 	stb  %i5, [ %i0 + 9 ]
4000311c:	c8 2e 20 0a 	stb  %g4, [ %i0 + 0xa ]
40003120:	c6 2e 20 0b 	stb  %g3, [ %i0 + 0xb ]
40003124:	c2 2e 20 0c 	stb  %g1, [ %i0 + 0xc ]
40003128:	81 c7 e0 08 	ret 
4000312c:	81 e8 00 00 	restore 
40003130:	10 bf ff dd 	b  400030a4 <ajit_read_thread_descriptor+0x6c>
40003134:	84 10 20 20 	mov  0x20, %g2

40003138 <ajit_get_core_and_thread_id>:
40003138:	83 47 40 00 	rd  %asr29, %g1
4000313c:	85 30 60 08 	srl  %g1, 8, %g2
40003140:	c4 2a 00 00 	stb  %g2, [ %o0 ]
40003144:	81 c3 e0 08 	retl 
40003148:	c2 2a 40 00 	stb  %g1, [ %o1 ]

4000314c <__ajit_read_cycle_count_register_high__>:
4000314c:	91 47 80 00 	rd  %asr30, %o0
40003150:	81 c3 e0 08 	retl 
40003154:	01 00 00 00 	nop 

40003158 <__ajit_read_cycle_count_register_low__>:
40003158:	91 47 c0 00 	rd  %asr31, %o0
4000315c:	81 c3 e0 08 	retl 
40003160:	01 00 00 00 	nop 

40003164 <__ajit_get_clock_time>:
40003164:	99 47 c0 00 	rd  %asr31, %o4
40003168:	83 47 80 00 	rd  %asr30, %g1
4000316c:	86 10 20 00 	clr  %g3
40003170:	9a 10 00 0c 	mov  %o4, %o5
40003174:	98 10 20 00 	clr  %o4
40003178:	86 10 c0 0d 	or  %g3, %o5, %g3
4000317c:	84 10 40 0c 	or  %g1, %o4, %g2
40003180:	92 10 00 03 	mov  %g3, %o1
40003184:	81 c3 e0 08 	retl 
40003188:	90 10 00 02 	mov  %g2, %o0

4000318c <__ajit_sleep__>:
4000318c:	95 47 c0 00 	rd  %asr31, %o2
40003190:	83 47 80 00 	rd  %asr30, %g1
40003194:	9a 10 20 00 	clr  %o5
40003198:	96 10 00 0a 	mov  %o2, %o3
4000319c:	9a 13 40 0b 	or  %o5, %o3, %o5
400031a0:	92 83 40 08 	addcc  %o5, %o0, %o1
400031a4:	94 10 20 00 	clr  %o2
400031a8:	98 10 40 0a 	or  %g1, %o2, %o4
400031ac:	90 43 20 00 	addx  %o4, 0, %o0
400031b0:	80 a2 00 0c 	cmp  %o0, %o4
400031b4:	08 80 00 0c 	bleu  400031e4 <__ajit_sleep__+0x58>
400031b8:	01 00 00 00 	nop 
400031bc:	99 47 c0 00 	rd  %asr31, %o4
400031c0:	83 47 80 00 	rd  %asr30, %g1
400031c4:	86 10 20 00 	clr  %g3
400031c8:	9a 10 00 0c 	mov  %o4, %o5
400031cc:	98 10 20 00 	clr  %o4
400031d0:	98 10 40 0c 	or  %g1, %o4, %o4
400031d4:	80 a2 00 0c 	cmp  %o0, %o4
400031d8:	18 bf ff f9 	bgu  400031bc <__ajit_sleep__+0x30>
400031dc:	9a 10 c0 0d 	or  %g3, %o5, %o5
400031e0:	80 a2 00 0c 	cmp  %o0, %o4
400031e4:	12 80 00 04 	bne  400031f4 <__ajit_sleep__+0x68>
400031e8:	80 a2 40 0d 	cmp  %o1, %o5
400031ec:	18 bf ff f4 	bgu  400031bc <__ajit_sleep__+0x30>
400031f0:	01 00 00 00 	nop 
400031f4:	81 c3 e0 08 	retl 
400031f8:	01 00 00 00 	nop 

400031fc <__ajit_set_mmu_default_cacheable_bit__>:
400031fc:	80 a0 00 08 	cmp  %g0, %o0
40003200:	84 10 20 00 	clr  %g2
40003204:	82 40 20 00 	addx  %g0, 0, %g1
40003208:	83 28 60 08 	sll  %g1, 8, %g1
4000320c:	c2 a0 80 80 	sta  %g1, [ %g2 ] #ASI_N
40003210:	81 c3 e0 08 	retl 
40003214:	01 00 00 00 	nop 

40003218 <__ajit_store_word_mmu_reg__>:
40003218:	d0 a2 40 80 	sta  %o0, [ %o1 ] #ASI_N
4000321c:	81 c3 e0 08 	retl 
40003220:	01 00 00 00 	nop 

40003224 <__ajit_store_word_mmu_bypass__>:
40003224:	d0 a2 44 00 	sta  %o0, [ %o1 ] #ASI_SCRATCHPAD
40003228:	81 c3 e0 08 	retl 
4000322c:	01 00 00 00 	nop 

40003230 <__ajit_store_word_to_physical_address__>:
40003230:	86 0a 60 0f 	and  %o1, 0xf, %g3
40003234:	80 a0 e0 0f 	cmp  %g3, 0xf
40003238:	08 80 00 05 	bleu  4000324c <__ajit_store_word_to_physical_address__+0x1c>
4000323c:	83 28 e0 02 	sll  %g3, 2, %g1
40003240:	d0 a2 84 00 	sta  %o0, [ %o2 ] #ASI_SCRATCHPAD
40003244:	81 c3 e0 08 	retl 
40003248:	01 00 00 00 	nop 
4000324c:	05 10 00 0b 	sethi  %hi(0x40002c00), %g2
40003250:	84 10 a1 c8 	or  %g2, 0x1c8, %g2	! 40002dc8 <cortos_lock_release+0x18>
40003254:	c2 00 80 01 	ld  [ %g2 + %g1 ], %g1
40003258:	81 c0 40 00 	jmp  %g1
4000325c:	01 00 00 00 	nop 
40003260:	d0 a2 85 c0 	sta  %o0, [ %o2 ] (46)
40003264:	81 c3 e0 08 	retl 
40003268:	01 00 00 00 	nop 
4000326c:	d0 a2 85 e0 	sta  %o0, [ %o2 ] (47)
40003270:	81 c3 e0 08 	retl 
40003274:	01 00 00 00 	nop 
40003278:	d0 a2 84 20 	sta  %o0, [ %o2 ] #ASI_MMU
4000327c:	81 c3 e0 08 	retl 
40003280:	01 00 00 00 	nop 
40003284:	d0 a2 84 40 	sta  %o0, [ %o2 ] (34)
40003288:	81 c3 e0 08 	retl 
4000328c:	01 00 00 00 	nop 
40003290:	d0 a2 84 60 	sta  %o0, [ %o2 ] #ASI_BLK_INIT_QUAD_LDD_AIUS
40003294:	81 c3 e0 08 	retl 
40003298:	01 00 00 00 	nop 
4000329c:	d0 a2 84 80 	sta  %o0, [ %o2 ] #ASI_NUCLEUS_QUAD_LDD
400032a0:	81 c3 e0 08 	retl 
400032a4:	01 00 00 00 	nop 
400032a8:	d0 a2 84 a0 	sta  %o0, [ %o2 ] #ASI_QUEUE
400032ac:	81 c3 e0 08 	retl 
400032b0:	01 00 00 00 	nop 
400032b4:	d0 a2 84 c0 	sta  %o0, [ %o2 ] #ASI_QUAD_LDD_PHYS_4V
400032b8:	81 c3 e0 08 	retl 
400032bc:	01 00 00 00 	nop 
400032c0:	d0 a2 84 e0 	sta  %o0, [ %o2 ] (39)
400032c4:	81 c3 e0 08 	retl 
400032c8:	01 00 00 00 	nop 
400032cc:	d0 a2 85 00 	sta  %o0, [ %o2 ] (40)
400032d0:	81 c3 e0 08 	retl 
400032d4:	01 00 00 00 	nop 
400032d8:	d0 a2 85 20 	sta  %o0, [ %o2 ] (41)
400032dc:	81 c3 e0 08 	retl 
400032e0:	01 00 00 00 	nop 
400032e4:	d0 a2 85 40 	sta  %o0, [ %o2 ] (42)
400032e8:	81 c3 e0 08 	retl 
400032ec:	01 00 00 00 	nop 
400032f0:	d0 a2 85 60 	sta  %o0, [ %o2 ] (43)
400032f4:	81 c3 e0 08 	retl 
400032f8:	01 00 00 00 	nop 
400032fc:	d0 a2 85 80 	sta  %o0, [ %o2 ] #ASI_NUCLEUS_QUAD_LDD_L
40003300:	81 c3 e0 08 	retl 
40003304:	01 00 00 00 	nop 
40003308:	d0 a2 85 a0 	sta  %o0, [ %o2 ] (45)
4000330c:	81 c3 e0 08 	retl 
40003310:	01 00 00 00 	nop 

40003314 <__ajit_load_word_from_physical_address__>:
40003314:	86 0a 20 0f 	and  %o0, 0xf, %g3
40003318:	80 a0 e0 0f 	cmp  %g3, 0xf
4000331c:	08 80 00 05 	bleu  40003330 <__ajit_load_word_from_physical_address__+0x1c>
40003320:	83 28 e0 02 	sll  %g3, 2, %g1
40003324:	d0 82 44 00 	lda  [ %o1 ] #ASI_SCRATCHPAD, %o0
40003328:	81 c3 e0 08 	retl 
4000332c:	01 00 00 00 	nop 
40003330:	05 10 00 0b 	sethi  %hi(0x40002c00), %g2
40003334:	84 10 a2 08 	or  %g2, 0x208, %g2	! 40002e08 <cortos_lock_release+0x58>
40003338:	c2 00 80 01 	ld  [ %g2 + %g1 ], %g1
4000333c:	81 c0 40 00 	jmp  %g1
40003340:	01 00 00 00 	nop 
40003344:	d0 82 45 c0 	lda  [ %o1 ] (46), %o0
40003348:	81 c3 e0 08 	retl 
4000334c:	01 00 00 00 	nop 
40003350:	d0 82 45 e0 	lda  [ %o1 ] (47), %o0
40003354:	81 c3 e0 08 	retl 
40003358:	01 00 00 00 	nop 
4000335c:	d0 82 44 20 	lda  [ %o1 ] #ASI_MMU, %o0
40003360:	81 c3 e0 08 	retl 
40003364:	01 00 00 00 	nop 
40003368:	d0 82 44 40 	lda  [ %o1 ] (34), %o0
4000336c:	81 c3 e0 08 	retl 
40003370:	01 00 00 00 	nop 
40003374:	d0 82 44 60 	lda  [ %o1 ] #ASI_BLK_INIT_QUAD_LDD_AIUS, %o0
40003378:	81 c3 e0 08 	retl 
4000337c:	01 00 00 00 	nop 
40003380:	d0 82 44 80 	lda  [ %o1 ] #ASI_NUCLEUS_QUAD_LDD, %o0
40003384:	81 c3 e0 08 	retl 
40003388:	01 00 00 00 	nop 
4000338c:	d0 82 44 a0 	lda  [ %o1 ] #ASI_QUEUE, %o0
40003390:	81 c3 e0 08 	retl 
40003394:	01 00 00 00 	nop 
40003398:	d0 82 44 c0 	lda  [ %o1 ] #ASI_QUAD_LDD_PHYS_4V, %o0
4000339c:	81 c3 e0 08 	retl 
400033a0:	01 00 00 00 	nop 
400033a4:	d0 82 44 e0 	lda  [ %o1 ] (39), %o0
400033a8:	81 c3 e0 08 	retl 
400033ac:	01 00 00 00 	nop 
400033b0:	d0 82 45 00 	lda  [ %o1 ] (40), %o0
400033b4:	81 c3 e0 08 	retl 
400033b8:	01 00 00 00 	nop 
400033bc:	d0 82 45 20 	lda  [ %o1 ] (41), %o0
400033c0:	81 c3 e0 08 	retl 
400033c4:	01 00 00 00 	nop 
400033c8:	d0 82 45 40 	lda  [ %o1 ] (42), %o0
400033cc:	81 c3 e0 08 	retl 
400033d0:	01 00 00 00 	nop 
400033d4:	d0 82 45 60 	lda  [ %o1 ] (43), %o0
400033d8:	81 c3 e0 08 	retl 
400033dc:	01 00 00 00 	nop 
400033e0:	d0 82 45 80 	lda  [ %o1 ] #ASI_NUCLEUS_QUAD_LDD_L, %o0
400033e4:	81 c3 e0 08 	retl 
400033e8:	01 00 00 00 	nop 
400033ec:	d0 82 45 a0 	lda  [ %o1 ] (45), %o0
400033f0:	81 c3 e0 08 	retl 
400033f4:	01 00 00 00 	nop 

400033f8 <__ajit_load_word_mmu_reg__>:
400033f8:	d0 82 00 80 	lda  [ %o0 ] #ASI_N, %o0
400033fc:	81 c3 e0 08 	retl 
40003400:	01 00 00 00 	nop 

40003404 <__ajit_load_word_mmu_bypass__>:
40003404:	d0 82 04 00 	lda  [ %o0 ] #ASI_SCRATCHPAD, %o0
40003408:	81 c3 e0 08 	retl 
4000340c:	01 00 00 00 	nop 

40003410 <__ajit_flush_icache__>:
40003410:	81 d8 20 00 	flush  %g0
40003414:	81 c3 e0 08 	retl 
40003418:	01 00 00 00 	nop 

4000341c <__ajit_flush_dcache__>:
4000341c:	c0 a0 02 60 	sta  %g0, [ %g0 ] (19)
40003420:	81 c3 e0 08 	retl 
40003424:	01 00 00 00 	nop 

40003428 <__ajit_flush_line__>:
40003428:	82 10 20 00 	clr  %g1	! 0 <__DYNAMIC>
4000342c:	c2 a2 02 80 	sta  %g1, [ %o0 ] #ASI_PHYS_USE_EC
40003430:	81 c3 e0 08 	retl 
40003434:	01 00 00 00 	nop 

40003438 <__ajit_write_timer_control_register_via_bypass__>:
40003438:	03 3f ff cc 	sethi  %hi(0xffff3000), %g1
4000343c:	82 10 61 00 	or  %g1, 0x100, %g1	! ffff3100 <allocatedLocks+0xbffd85e0>
40003440:	d0 a0 44 00 	sta  %o0, [ %g1 ] #ASI_SCRATCHPAD
40003444:	81 c3 e0 08 	retl 
40003448:	01 00 00 00 	nop 

4000344c <__ajit_read_timer_control_register_via_bypass__>:
4000344c:	11 3f ff cc 	sethi  %hi(0xffff3000), %o0
40003450:	90 12 21 00 	or  %o0, 0x100, %o0	! ffff3100 <allocatedLocks+0xbffd85e0>
40003454:	d0 82 04 00 	lda  [ %o0 ] #ASI_SCRATCHPAD, %o0
40003458:	81 c3 e0 08 	retl 
4000345c:	01 00 00 00 	nop 

40003460 <__ajit_write_timer_control_register_via_vmap__>:
40003460:	03 3f ff cc 	sethi  %hi(0xffff3000), %g1
40003464:	82 10 61 00 	or  %g1, 0x100, %g1	! ffff3100 <allocatedLocks+0xbffd85e0>
40003468:	81 c3 e0 08 	retl 
4000346c:	d0 20 40 00 	st  %o0, [ %g1 ]

40003470 <__ajit_read_timer_control_register_via_vmap__>:
40003470:	03 3f ff cc 	sethi  %hi(0xffff3000), %g1
40003474:	82 10 61 00 	or  %g1, 0x100, %g1	! ffff3100 <allocatedLocks+0xbffd85e0>
40003478:	81 c3 e0 08 	retl 
4000347c:	d0 00 40 00 	ld  [ %g1 ], %o0

40003480 <__ajit_write_serial_control_register_via_bypass__>:
40003480:	03 3f ff cc 	sethi  %hi(0xffff3000), %g1
40003484:	82 10 62 00 	or  %g1, 0x200, %g1	! ffff3200 <allocatedLocks+0xbffd86e0>
40003488:	d0 a0 44 00 	sta  %o0, [ %g1 ] #ASI_SCRATCHPAD
4000348c:	81 c3 e0 08 	retl 
40003490:	01 00 00 00 	nop 

40003494 <__ajit_read_serial_control_register_via_bypass__>:
40003494:	11 3f ff cc 	sethi  %hi(0xffff3000), %o0
40003498:	90 12 22 00 	or  %o0, 0x200, %o0	! ffff3200 <allocatedLocks+0xbffd86e0>
4000349c:	d0 82 04 00 	lda  [ %o0 ] #ASI_SCRATCHPAD, %o0
400034a0:	81 c3 e0 08 	retl 
400034a4:	01 00 00 00 	nop 

400034a8 <__ajit_write_serial_tx_register_via_bypass__>:
400034a8:	03 3f ff cc 	sethi  %hi(0xffff3000), %g1
400034ac:	82 10 62 04 	or  %g1, 0x204, %g1	! ffff3204 <allocatedLocks+0xbffd86e4>
400034b0:	d0 a8 44 00 	stba  %o0, [ %g1 ] #ASI_SCRATCHPAD
400034b4:	81 c3 e0 08 	retl 
400034b8:	01 00 00 00 	nop 

400034bc <__ajit_read_serial_tx_register_via_bypass__>:
400034bc:	11 3f ff cc 	sethi  %hi(0xffff3000), %o0
400034c0:	90 12 22 04 	or  %o0, 0x204, %o0	! ffff3204 <allocatedLocks+0xbffd86e4>
400034c4:	d0 8a 04 00 	lduba  [ %o0 ] #ASI_SCRATCHPAD, %o0
400034c8:	81 c3 e0 08 	retl 
400034cc:	90 0a 20 ff 	and  %o0, 0xff, %o0

400034d0 <__ajit_read_serial_rx_register_via_bypass__>:
400034d0:	11 3f ff cc 	sethi  %hi(0xffff3000), %o0
400034d4:	90 12 22 08 	or  %o0, 0x208, %o0	! ffff3208 <allocatedLocks+0xbffd86e8>
400034d8:	d0 8a 04 00 	lduba  [ %o0 ] #ASI_SCRATCHPAD, %o0
400034dc:	81 c3 e0 08 	retl 
400034e0:	90 0a 20 ff 	and  %o0, 0xff, %o0

400034e4 <__ajit_write_serial_baud_limit_register_via_bypass__>:
400034e4:	03 3f ff cc 	sethi  %hi(0xffff3000), %g1
400034e8:	82 10 62 0c 	or  %g1, 0x20c, %g1	! ffff320c <allocatedLocks+0xbffd86ec>
400034ec:	d0 a0 44 00 	sta  %o0, [ %g1 ] #ASI_SCRATCHPAD
400034f0:	81 c3 e0 08 	retl 
400034f4:	01 00 00 00 	nop 

400034f8 <__ajit_read_serial_baud_limit_register_via_bypass__>:
400034f8:	11 3f ff cc 	sethi  %hi(0xffff3000), %o0
400034fc:	90 12 22 0c 	or  %o0, 0x20c, %o0	! ffff320c <allocatedLocks+0xbffd86ec>
40003500:	d0 82 04 00 	lda  [ %o0 ] #ASI_SCRATCHPAD, %o0
40003504:	81 c3 e0 08 	retl 
40003508:	01 00 00 00 	nop 

4000350c <__ajit_write_serial_baud_frequency_register_via_bypass__>:
4000350c:	03 3f ff cc 	sethi  %hi(0xffff3000), %g1
40003510:	82 10 62 10 	or  %g1, 0x210, %g1	! ffff3210 <allocatedLocks+0xbffd86f0>
40003514:	d0 a0 44 00 	sta  %o0, [ %g1 ] #ASI_SCRATCHPAD
40003518:	81 c3 e0 08 	retl 
4000351c:	01 00 00 00 	nop 

40003520 <__ajit_read_serial_baud_frequency_register_via_bypass__>:
40003520:	11 3f ff cc 	sethi  %hi(0xffff3000), %o0
40003524:	90 12 22 10 	or  %o0, 0x210, %o0	! ffff3210 <allocatedLocks+0xbffd86f0>
40003528:	d0 82 04 00 	lda  [ %o0 ] #ASI_SCRATCHPAD, %o0
4000352c:	81 c3 e0 08 	retl 
40003530:	01 00 00 00 	nop 

40003534 <__ajit_write_serial_control_register_via_vmap__>:
40003534:	03 3f ff cc 	sethi  %hi(0xffff3000), %g1
40003538:	82 10 62 00 	or  %g1, 0x200, %g1	! ffff3200 <allocatedLocks+0xbffd86e0>
4000353c:	81 c3 e0 08 	retl 
40003540:	d0 20 40 00 	st  %o0, [ %g1 ]

40003544 <__ajit_read_serial_control_register_via_vmap__>:
40003544:	03 3f ff cc 	sethi  %hi(0xffff3000), %g1
40003548:	82 10 62 00 	or  %g1, 0x200, %g1	! ffff3200 <allocatedLocks+0xbffd86e0>
4000354c:	81 c3 e0 08 	retl 
40003550:	d0 08 40 00 	ldub  [ %g1 ], %o0

40003554 <__ajit_write_serial_tx_register_via_vmap__>:
40003554:	03 3f ff cc 	sethi  %hi(0xffff3000), %g1
40003558:	82 10 62 04 	or  %g1, 0x204, %g1	! ffff3204 <allocatedLocks+0xbffd86e4>
4000355c:	81 c3 e0 08 	retl 
40003560:	d0 28 40 00 	stb  %o0, [ %g1 ]

40003564 <__ajit_read_serial_tx_register_via_vmap__>:
40003564:	03 3f ff cc 	sethi  %hi(0xffff3000), %g1
40003568:	82 10 62 04 	or  %g1, 0x204, %g1	! ffff3204 <allocatedLocks+0xbffd86e4>
4000356c:	81 c3 e0 08 	retl 
40003570:	d0 08 40 00 	ldub  [ %g1 ], %o0

40003574 <__ajit_read_serial_rx_register_via_vmap__>:
40003574:	03 3f ff cc 	sethi  %hi(0xffff3000), %g1
40003578:	82 10 62 08 	or  %g1, 0x208, %g1	! ffff3208 <allocatedLocks+0xbffd86e8>
4000357c:	81 c3 e0 08 	retl 
40003580:	d0 08 40 00 	ldub  [ %g1 ], %o0

40003584 <__ajit_read_serial_baud_limit_register_via_vmap__>:
40003584:	03 3f ff cc 	sethi  %hi(0xffff3000), %g1
40003588:	82 10 62 0c 	or  %g1, 0x20c, %g1	! ffff320c <allocatedLocks+0xbffd86ec>
4000358c:	81 c3 e0 08 	retl 
40003590:	d0 00 40 00 	ld  [ %g1 ], %o0

40003594 <__ajit_write_serial_baud_limit_register_via_vmap__>:
40003594:	03 3f ff cc 	sethi  %hi(0xffff3000), %g1
40003598:	82 10 62 0c 	or  %g1, 0x20c, %g1	! ffff320c <allocatedLocks+0xbffd86ec>
4000359c:	81 c3 e0 08 	retl 
400035a0:	d0 20 40 00 	st  %o0, [ %g1 ]

400035a4 <__ajit_read_serial_baud_frequency_register_via_vmap__>:
400035a4:	03 3f ff cc 	sethi  %hi(0xffff3000), %g1
400035a8:	82 10 62 10 	or  %g1, 0x210, %g1	! ffff3210 <allocatedLocks+0xbffd86f0>
400035ac:	81 c3 e0 08 	retl 
400035b0:	d0 00 40 00 	ld  [ %g1 ], %o0

400035b4 <__ajit_write_serial_baud_frequency_register_via_vmap__>:
400035b4:	03 3f ff cc 	sethi  %hi(0xffff3000), %g1
400035b8:	82 10 62 10 	or  %g1, 0x210, %g1	! ffff3210 <allocatedLocks+0xbffd86f0>
400035bc:	81 c3 e0 08 	retl 
400035c0:	d0 20 40 00 	st  %o0, [ %g1 ]

400035c4 <calculate_baud_control_values_for_uart>:
400035c4:	91 2a 20 04 	sll  %o0, 4, %o0
400035c8:	80 a2 00 09 	cmp  %o0, %o1
400035cc:	1a 80 00 05 	bcc  400035e0 <calculate_baud_control_values_for_uart+0x1c>
400035d0:	c0 22 80 00 	clr  [ %o2 ]
400035d4:	82 92 20 00 	orcc  %o0, 0, %g1
400035d8:	12 80 00 05 	bne  400035ec <calculate_baud_control_values_for_uart+0x28>
400035dc:	84 10 00 09 	mov  %o1, %g2
400035e0:	81 c3 e0 08 	retl 
400035e4:	c0 22 c0 00 	clr  [ %o3 ]
400035e8:	82 10 00 03 	mov  %g3, %g1
400035ec:	81 80 20 00 	mov  %g0, %y
400035f0:	01 00 00 00 	nop 
400035f4:	01 00 00 00 	nop 
400035f8:	01 00 00 00 	nop 
400035fc:	86 70 80 01 	udiv  %g2, %g1, %g3
40003600:	86 58 c0 01 	smul  %g3, %g1, %g3
40003604:	86 20 80 03 	sub  %g2, %g3, %g3
40003608:	80 a0 e0 00 	cmp  %g3, 0
4000360c:	12 bf ff f7 	bne  400035e8 <calculate_baud_control_values_for_uart+0x24>
40003610:	84 10 00 01 	mov  %g1, %g2
40003614:	81 80 20 00 	mov  %g0, %y
40003618:	01 00 00 00 	nop 
4000361c:	01 00 00 00 	nop 
40003620:	01 00 00 00 	nop 
40003624:	84 72 00 01 	udiv  %o0, %g1, %g2
40003628:	c4 22 c0 00 	st  %g2, [ %o3 ]
4000362c:	81 80 20 00 	mov  %g0, %y
40003630:	01 00 00 00 	nop 
40003634:	01 00 00 00 	nop 
40003638:	01 00 00 00 	nop 
4000363c:	86 72 40 01 	udiv  %o1, %g1, %g3
40003640:	84 20 c0 02 	sub  %g3, %g2, %g2
40003644:	81 c3 e0 08 	retl 
40003648:	c4 22 80 00 	st  %g2, [ %o2 ]

4000364c <__ajit_serial_configure_inner__>:
4000364c:	05 3f ff cc 	sethi  %hi(0xffff3000), %g2
40003650:	80 a2 60 00 	cmp  %o1, 0
40003654:	12 80 00 03 	bne  40003660 <__ajit_serial_configure_inner__+0x14>
40003658:	82 10 a2 40 	or  %g2, 0x240, %g1
4000365c:	82 10 a2 00 	or  %g2, 0x200, %g1
40003660:	80 a2 20 00 	cmp  %o0, 0
40003664:	02 80 00 15 	be  400036b8 <__ajit_serial_configure_inner__+0x6c>
40003668:	01 00 00 00 	nop 
4000366c:	c4 00 40 00 	ld  [ %g1 ], %g2
40003670:	80 a2 a0 00 	cmp  %o2, 0
40003674:	02 80 00 03 	be  40003680 <__ajit_serial_configure_inner__+0x34>
40003678:	86 08 bf fe 	and  %g2, -2, %g3
4000367c:	86 10 a0 01 	or  %g2, 1, %g3
40003680:	80 a2 e0 00 	cmp  %o3, 0
40003684:	02 80 00 03 	be  40003690 <__ajit_serial_configure_inner__+0x44>
40003688:	84 08 ff fd 	and  %g3, -3, %g2
4000368c:	84 10 e0 02 	or  %g3, 2, %g2
40003690:	80 a3 20 00 	cmp  %o4, 0
40003694:	02 80 00 03 	be  400036a0 <__ajit_serial_configure_inner__+0x54>
40003698:	86 08 bf fb 	and  %g2, -5, %g3
4000369c:	86 10 a0 04 	or  %g2, 4, %g3
400036a0:	80 a2 20 00 	cmp  %o0, 0
400036a4:	12 80 00 08 	bne  400036c4 <__ajit_serial_configure_inner__+0x78>
400036a8:	01 00 00 00 	nop 
400036ac:	c6 a0 44 00 	sta  %g3, [ %g1 ] #ASI_SCRATCHPAD
400036b0:	81 c3 e0 08 	retl 
400036b4:	01 00 00 00 	nop 
400036b8:	c4 80 44 00 	lda  [ %g1 ] #ASI_SCRATCHPAD, %g2
400036bc:	10 bf ff ee 	b  40003674 <__ajit_serial_configure_inner__+0x28>
400036c0:	80 a2 a0 00 	cmp  %o2, 0
400036c4:	81 c3 e0 08 	retl 
400036c8:	c6 20 40 00 	st  %g3, [ %g1 ]

400036cc <__ajit_serial_configure_via_vmap__>:
400036cc:	82 10 00 08 	mov  %o0, %g1
400036d0:	96 10 00 09 	mov  %o1, %o3
400036d4:	98 10 00 0a 	mov  %o2, %o4
400036d8:	90 10 20 01 	mov  1, %o0
400036dc:	92 10 20 00 	clr  %o1
400036e0:	94 10 00 01 	mov  %g1, %o2
400036e4:	82 13 c0 00 	mov  %o7, %g1
400036e8:	7f ff ff d9 	call  4000364c <__ajit_serial_configure_inner__>
400036ec:	9e 10 40 00 	mov  %g1, %o7

400036f0 <__ajit_serial_configure_via_bypass__>:
400036f0:	82 10 00 08 	mov  %o0, %g1
400036f4:	96 10 00 09 	mov  %o1, %o3
400036f8:	98 10 00 0a 	mov  %o2, %o4
400036fc:	90 10 20 00 	clr  %o0
40003700:	92 10 20 00 	clr  %o1
40003704:	94 10 00 01 	mov  %g1, %o2
40003708:	82 13 c0 00 	mov  %o7, %g1
4000370c:	7f ff ff d0 	call  4000364c <__ajit_serial_configure_inner__>
40003710:	9e 10 40 00 	mov  %g1, %o7

40003714 <__ajit_serial_set_baudrate_inner__>:
40003714:	95 2a a0 04 	sll  %o2, 4, %o2
40003718:	80 a2 80 0b 	cmp  %o2, %o3
4000371c:	1a 80 00 06 	bcc  40003734 <__ajit_serial_set_baudrate_inner__+0x20>
40003720:	84 10 20 00 	clr  %g2
40003724:	80 a2 a0 00 	cmp  %o2, 0
40003728:	12 80 00 0f 	bne  40003764 <__ajit_serial_set_baudrate_inner__+0x50>
4000372c:	84 10 00 0b 	mov  %o3, %g2
40003730:	84 10 20 00 	clr  %g2
40003734:	86 10 20 00 	clr  %g3
40003738:	80 a2 60 00 	cmp  %o1, 0
4000373c:	02 80 00 25 	be  400037d0 <__ajit_serial_set_baudrate_inner__+0xbc>
40003740:	03 3f ff cc 	sethi  %hi(0xffff3000), %g1
40003744:	88 10 62 4c 	or  %g1, 0x24c, %g4	! ffff324c <allocatedLocks+0xbffd872c>
40003748:	80 a2 20 00 	cmp  %o0, 0
4000374c:	12 80 00 25 	bne  400037e0 <__ajit_serial_set_baudrate_inner__+0xcc>
40003750:	82 10 62 50 	or  %g1, 0x250, %g1
40003754:	c6 a1 04 00 	sta  %g3, [ %g4 ] #ASI_SCRATCHPAD
40003758:	c4 a0 44 00 	sta  %g2, [ %g1 ] #ASI_SCRATCHPAD
4000375c:	81 c3 e0 08 	retl 
40003760:	01 00 00 00 	nop 
40003764:	10 80 00 03 	b  40003770 <__ajit_serial_set_baudrate_inner__+0x5c>
40003768:	82 10 00 0a 	mov  %o2, %g1
4000376c:	82 10 00 03 	mov  %g3, %g1
40003770:	81 80 20 00 	mov  %g0, %y
40003774:	01 00 00 00 	nop 
40003778:	01 00 00 00 	nop 
4000377c:	01 00 00 00 	nop 
40003780:	86 70 80 01 	udiv  %g2, %g1, %g3
40003784:	86 58 c0 01 	smul  %g3, %g1, %g3
40003788:	86 20 80 03 	sub  %g2, %g3, %g3
4000378c:	80 a0 e0 00 	cmp  %g3, 0
40003790:	12 bf ff f7 	bne  4000376c <__ajit_serial_set_baudrate_inner__+0x58>
40003794:	84 10 00 01 	mov  %g1, %g2
40003798:	81 80 20 00 	mov  %g0, %y
4000379c:	01 00 00 00 	nop 
400037a0:	01 00 00 00 	nop 
400037a4:	01 00 00 00 	nop 
400037a8:	84 72 80 01 	udiv  %o2, %g1, %g2
400037ac:	81 80 20 00 	mov  %g0, %y
400037b0:	01 00 00 00 	nop 
400037b4:	01 00 00 00 	nop 
400037b8:	01 00 00 00 	nop 
400037bc:	86 72 c0 01 	udiv  %o3, %g1, %g3
400037c0:	80 a2 60 00 	cmp  %o1, 0
400037c4:	86 20 c0 02 	sub  %g3, %g2, %g3
400037c8:	12 bf ff df 	bne  40003744 <__ajit_serial_set_baudrate_inner__+0x30>
400037cc:	03 3f ff cc 	sethi  %hi(0xffff3000), %g1
400037d0:	88 10 62 0c 	or  %g1, 0x20c, %g4	! ffff320c <allocatedLocks+0xbffd86ec>
400037d4:	80 a2 20 00 	cmp  %o0, 0
400037d8:	02 bf ff df 	be  40003754 <__ajit_serial_set_baudrate_inner__+0x40>
400037dc:	82 10 62 10 	or  %g1, 0x210, %g1
400037e0:	c6 21 00 00 	st  %g3, [ %g4 ]
400037e4:	81 c3 e0 08 	retl 
400037e8:	c4 20 40 00 	st  %g2, [ %g1 ]

400037ec <__ajit_serial_set_baudrate_via_vmap__>:
400037ec:	94 10 00 08 	mov  %o0, %o2
400037f0:	96 10 00 09 	mov  %o1, %o3
400037f4:	90 10 20 01 	mov  1, %o0
400037f8:	92 10 20 00 	clr  %o1
400037fc:	82 13 c0 00 	mov  %o7, %g1
40003800:	7f ff ff c5 	call  40003714 <__ajit_serial_set_baudrate_inner__>
40003804:	9e 10 40 00 	mov  %g1, %o7

40003808 <__ajit_serial_set_baudrate_via_bypass__>:
40003808:	94 10 00 08 	mov  %o0, %o2
4000380c:	96 10 00 09 	mov  %o1, %o3
40003810:	90 10 20 00 	clr  %o0
40003814:	92 10 20 00 	clr  %o1
40003818:	82 13 c0 00 	mov  %o7, %g1
4000381c:	7f ff ff be 	call  40003714 <__ajit_serial_set_baudrate_inner__>
40003820:	9e 10 40 00 	mov  %g1, %o7

40003824 <__ajit_serial_putchar_inner__>:
40003824:	84 10 00 08 	mov  %o0, %g2
40003828:	80 a2 60 00 	cmp  %o1, 0
4000382c:	02 80 00 17 	be  40003888 <__ajit_serial_putchar_inner__+0x64>
40003830:	07 3f ff cc 	sethi  %hi(0xffff3000), %g3
40003834:	82 10 e2 40 	or  %g3, 0x240, %g1	! ffff3240 <allocatedLocks+0xbffd8720>
40003838:	86 10 e2 44 	or  %g3, 0x244, %g3
4000383c:	80 a0 a0 00 	cmp  %g2, 0
40003840:	02 80 00 0f 	be  4000387c <__ajit_serial_putchar_inner__+0x58>
40003844:	01 00 00 00 	nop 
40003848:	c2 00 40 00 	ld  [ %g1 ], %g1
4000384c:	80 88 60 01 	btst  1, %g1
40003850:	02 80 00 09 	be  40003874 <__ajit_serial_putchar_inner__+0x50>
40003854:	90 10 20 00 	clr  %o0
40003858:	80 88 60 08 	btst  8, %g1
4000385c:	12 80 00 06 	bne  40003874 <__ajit_serial_putchar_inner__+0x50>
40003860:	80 a0 a0 00 	cmp  %g2, 0
40003864:	32 80 00 0c 	bne,a   40003894 <__ajit_serial_putchar_inner__+0x70>
40003868:	d4 28 c0 00 	stb  %o2, [ %g3 ]
4000386c:	d4 a8 c4 00 	stba  %o2, [ %g3 ] #ASI_SCRATCHPAD
40003870:	90 10 20 01 	mov  1, %o0
40003874:	81 c3 e0 08 	retl 
40003878:	01 00 00 00 	nop 
4000387c:	c2 80 44 00 	lda  [ %g1 ] #ASI_SCRATCHPAD, %g1
40003880:	10 bf ff f4 	b  40003850 <__ajit_serial_putchar_inner__+0x2c>
40003884:	80 88 60 01 	btst  1, %g1
40003888:	82 10 e2 00 	or  %g3, 0x200, %g1
4000388c:	10 bf ff ec 	b  4000383c <__ajit_serial_putchar_inner__+0x18>
40003890:	86 10 e2 04 	or  %g3, 0x204, %g3
40003894:	81 c3 e0 08 	retl 
40003898:	90 10 20 01 	mov  1, %o0

4000389c <__ajit_serial_putchar_via_vmap__>:
4000389c:	94 10 00 08 	mov  %o0, %o2
400038a0:	92 10 20 00 	clr  %o1
400038a4:	90 10 20 01 	mov  1, %o0
400038a8:	82 13 c0 00 	mov  %o7, %g1
400038ac:	7f ff ff de 	call  40003824 <__ajit_serial_putchar_inner__>
400038b0:	9e 10 40 00 	mov  %g1, %o7

400038b4 <__ajit_serial_putchar_via_bypass__>:
400038b4:	94 10 00 08 	mov  %o0, %o2
400038b8:	92 10 20 00 	clr  %o1
400038bc:	90 10 20 00 	clr  %o0
400038c0:	82 13 c0 00 	mov  %o7, %g1
400038c4:	7f ff ff d8 	call  40003824 <__ajit_serial_putchar_inner__>
400038c8:	9e 10 40 00 	mov  %g1, %o7

400038cc <__ajit_serial_getchar_inner__>:
400038cc:	80 a2 60 00 	cmp  %o1, 0
400038d0:	02 80 00 0f 	be  4000390c <__ajit_serial_getchar_inner__+0x40>
400038d4:	05 3f ff cc 	sethi  %hi(0xffff3000), %g2
400038d8:	82 10 a2 40 	or  %g2, 0x240, %g1	! ffff3240 <allocatedLocks+0xbffd8720>
400038dc:	80 a2 20 00 	cmp  %o0, 0
400038e0:	02 80 00 0f 	be  4000391c <__ajit_serial_getchar_inner__+0x50>
400038e4:	84 10 a2 48 	or  %g2, 0x248, %g2
400038e8:	c2 00 40 00 	ld  [ %g1 ], %g1
400038ec:	82 08 60 12 	and  %g1, 0x12, %g1
400038f0:	80 a0 60 12 	cmp  %g1, 0x12
400038f4:	12 80 00 13 	bne  40003940 <__ajit_serial_getchar_inner__+0x74>
400038f8:	01 00 00 00 	nop 
400038fc:	c2 08 80 00 	ldub  [ %g2 ], %g1
40003900:	90 10 20 01 	mov  1, %o0
40003904:	81 c3 e0 08 	retl 
40003908:	c2 2a 80 00 	stb  %g1, [ %o2 ]
4000390c:	82 10 a2 00 	or  %g2, 0x200, %g1
40003910:	80 a2 20 00 	cmp  %o0, 0
40003914:	12 bf ff f5 	bne  400038e8 <__ajit_serial_getchar_inner__+0x1c>
40003918:	84 10 a2 08 	or  %g2, 0x208, %g2
4000391c:	c2 80 44 00 	lda  [ %g1 ] #ASI_SCRATCHPAD, %g1
40003920:	82 08 60 12 	and  %g1, 0x12, %g1
40003924:	80 a0 60 12 	cmp  %g1, 0x12
40003928:	12 80 00 06 	bne  40003940 <__ajit_serial_getchar_inner__+0x74>
4000392c:	01 00 00 00 	nop 
40003930:	c4 88 84 00 	lduba  [ %g2 ] #ASI_SCRATCHPAD, %g2
40003934:	90 10 20 01 	mov  1, %o0
40003938:	81 c3 e0 08 	retl 
4000393c:	c4 2a 80 00 	stb  %g2, [ %o2 ]
40003940:	81 c3 e0 08 	retl 
40003944:	90 10 20 00 	clr  %o0

40003948 <__ajit_serial_getchar_via_vmap__>:
40003948:	9d e3 bf 98 	save  %sp, -104, %sp
4000394c:	90 10 20 01 	mov  1, %o0
40003950:	92 10 20 00 	clr  %o1
40003954:	7f ff ff de 	call  400038cc <__ajit_serial_getchar_inner__>
40003958:	94 07 bf ff 	add  %fp, -1, %o2
4000395c:	80 a2 20 00 	cmp  %o0, 0
40003960:	22 bf ff fc 	be,a   40003950 <__ajit_serial_getchar_via_vmap__+0x8>
40003964:	90 10 20 01 	mov  1, %o0
40003968:	f0 4f bf ff 	ldsb  [ %fp + -1 ], %i0
4000396c:	81 c7 e0 08 	ret 
40003970:	81 e8 00 00 	restore 

40003974 <__ajit_serial_getchar_via_bypass__>:
40003974:	9d e3 bf 98 	save  %sp, -104, %sp
40003978:	90 10 20 00 	clr  %o0
4000397c:	92 10 20 00 	clr  %o1
40003980:	7f ff ff d3 	call  400038cc <__ajit_serial_getchar_inner__>
40003984:	94 07 bf ff 	add  %fp, -1, %o2
40003988:	80 a2 20 00 	cmp  %o0, 0
4000398c:	22 bf ff fc 	be,a   4000397c <__ajit_serial_getchar_via_bypass__+0x8>
40003990:	90 10 20 00 	clr  %o0
40003994:	f0 4f bf ff 	ldsb  [ %fp + -1 ], %i0
40003998:	81 c7 e0 08 	ret 
4000399c:	81 e8 00 00 	restore 

400039a0 <__ajit_serial_puts_inner__>:
400039a0:	9d e3 bf a0 	save  %sp, -96, %sp
400039a4:	80 a6 e0 00 	cmp  %i3, 0
400039a8:	02 80 00 1a 	be  40003a10 <__ajit_serial_puts_inner__+0x70>
400039ac:	01 00 00 00 	nop 
400039b0:	d4 0e 80 00 	ldub  [ %i2 ], %o2
400039b4:	95 2a a0 18 	sll  %o2, 0x18, %o2
400039b8:	80 a2 a0 00 	cmp  %o2, 0
400039bc:	02 80 00 15 	be  40003a10 <__ajit_serial_puts_inner__+0x70>
400039c0:	ba 06 a0 01 	add  %i2, 1, %i5
400039c4:	10 80 00 03 	b  400039d0 <__ajit_serial_puts_inner__+0x30>
400039c8:	b8 06 80 1b 	add  %i2, %i3, %i4
400039cc:	95 2a a0 18 	sll  %o2, 0x18, %o2
400039d0:	95 3a a0 18 	sra  %o2, 0x18, %o2
400039d4:	90 10 00 18 	mov  %i0, %o0
400039d8:	7f ff ff 93 	call  40003824 <__ajit_serial_putchar_inner__>
400039dc:	92 10 00 19 	mov  %i1, %o1
400039e0:	80 a2 20 00 	cmp  %o0, 0
400039e4:	22 bf ff fa 	be,a   400039cc <__ajit_serial_puts_inner__+0x2c>
400039e8:	d4 0e 80 00 	ldub  [ %i2 ], %o2
400039ec:	80 a7 40 1c 	cmp  %i5, %i4
400039f0:	02 80 00 08 	be  40003a10 <__ajit_serial_puts_inner__+0x70>
400039f4:	b4 10 00 1d 	mov  %i5, %i2
400039f8:	ba 07 60 01 	inc  %i5
400039fc:	d4 0f 7f ff 	ldub  [ %i5 + -1 ], %o2
40003a00:	95 2a a0 18 	sll  %o2, 0x18, %o2
40003a04:	80 a2 a0 00 	cmp  %o2, 0
40003a08:	12 bf ff f3 	bne  400039d4 <__ajit_serial_puts_inner__+0x34>
40003a0c:	95 3a a0 18 	sra  %o2, 0x18, %o2
40003a10:	81 c7 e0 08 	ret 
40003a14:	81 e8 00 00 	restore 

40003a18 <__ajit_serial_puts_via_vmap__>:
40003a18:	94 10 00 08 	mov  %o0, %o2
40003a1c:	96 10 00 09 	mov  %o1, %o3
40003a20:	90 10 20 01 	mov  1, %o0
40003a24:	92 10 20 00 	clr  %o1
40003a28:	82 13 c0 00 	mov  %o7, %g1
40003a2c:	7f ff ff dd 	call  400039a0 <__ajit_serial_puts_inner__>
40003a30:	9e 10 40 00 	mov  %g1, %o7

40003a34 <__ajit_serial_puts_via_bypass__>:
40003a34:	94 10 00 08 	mov  %o0, %o2
40003a38:	96 10 00 09 	mov  %o1, %o3
40003a3c:	90 10 20 00 	clr  %o0
40003a40:	92 10 20 00 	clr  %o1
40003a44:	82 13 c0 00 	mov  %o7, %g1
40003a48:	7f ff ff d6 	call  400039a0 <__ajit_serial_puts_inner__>
40003a4c:	9e 10 40 00 	mov  %g1, %o7

40003a50 <__ajit_serial_gets_inner__>:
40003a50:	9d e3 bf 98 	save  %sp, -104, %sp
40003a54:	80 a6 e0 01 	cmp  %i3, 1
40003a58:	22 80 00 18 	be,a   40003ab8 <__ajit_serial_gets_inner__+0x68>
40003a5c:	b6 06 80 1b 	add  %i2, %i3, %i3
40003a60:	a0 06 ff ff 	add  %i3, -1, %l0
40003a64:	b8 10 20 00 	clr  %i4
40003a68:	ba 10 20 00 	clr  %i5
40003a6c:	c0 2f bf ff 	clrb  [ %fp + -1 ]
40003a70:	90 10 00 18 	mov  %i0, %o0
40003a74:	92 10 00 19 	mov  %i1, %o1
40003a78:	7f ff ff 95 	call  400038cc <__ajit_serial_getchar_inner__>
40003a7c:	94 07 bf ff 	add  %fp, -1, %o2
40003a80:	80 a2 20 00 	cmp  %o0, 0
40003a84:	22 bf ff fc 	be,a   40003a74 <__ajit_serial_gets_inner__+0x24>
40003a88:	90 10 00 18 	mov  %i0, %o0
40003a8c:	c2 0f bf ff 	ldub  [ %fp + -1 ], %g1
40003a90:	c2 2e 80 1c 	stb  %g1, [ %i2 + %i4 ]
40003a94:	83 28 60 18 	sll  %g1, 0x18, %g1
40003a98:	80 a0 60 00 	cmp  %g1, 0
40003a9c:	22 80 00 07 	be,a   40003ab8 <__ajit_serial_gets_inner__+0x68>
40003aa0:	b6 06 80 1b 	add  %i2, %i3, %i3
40003aa4:	ba 07 60 01 	inc  %i5
40003aa8:	80 a7 40 10 	cmp  %i5, %l0
40003aac:	12 bf ff f0 	bne  40003a6c <__ajit_serial_gets_inner__+0x1c>
40003ab0:	b8 10 00 1d 	mov  %i5, %i4
40003ab4:	b6 06 80 1b 	add  %i2, %i3, %i3
40003ab8:	c0 2e ff ff 	clrb  [ %i3 + -1 ]
40003abc:	81 c7 e0 08 	ret 
40003ac0:	81 e8 00 00 	restore 

40003ac4 <__ajit_serial_gets_via_vmap__>:
40003ac4:	94 10 00 08 	mov  %o0, %o2
40003ac8:	96 10 00 09 	mov  %o1, %o3
40003acc:	90 10 20 01 	mov  1, %o0
40003ad0:	92 10 20 00 	clr  %o1
40003ad4:	82 13 c0 00 	mov  %o7, %g1
40003ad8:	7f ff ff de 	call  40003a50 <__ajit_serial_gets_inner__>
40003adc:	9e 10 40 00 	mov  %g1, %o7

40003ae0 <__ajit_serial_gets_via_bypass__>:
40003ae0:	94 10 00 08 	mov  %o0, %o2
40003ae4:	96 10 00 09 	mov  %o1, %o3
40003ae8:	90 10 20 00 	clr  %o0
40003aec:	92 10 20 00 	clr  %o1
40003af0:	82 13 c0 00 	mov  %o7, %g1
40003af4:	7f ff ff d7 	call  40003a50 <__ajit_serial_gets_inner__>
40003af8:	9e 10 40 00 	mov  %g1, %o7

40003afc <__ajit_serial_set_uart_reset_inner__>:
40003afc:	05 3f ff cc 	sethi  %hi(0xffff3000), %g2
40003b00:	80 a2 60 00 	cmp  %o1, 0
40003b04:	12 80 00 03 	bne  40003b10 <__ajit_serial_set_uart_reset_inner__+0x14>
40003b08:	82 10 a2 40 	or  %g2, 0x240, %g1
40003b0c:	82 10 a2 00 	or  %g2, 0x200, %g1
40003b10:	80 a2 20 00 	cmp  %o0, 0
40003b14:	02 80 00 0d 	be  40003b48 <__ajit_serial_set_uart_reset_inner__+0x4c>
40003b18:	01 00 00 00 	nop 
40003b1c:	c6 00 40 00 	ld  [ %g1 ], %g3
40003b20:	80 a2 a0 00 	cmp  %o2, 0
40003b24:	12 80 00 03 	bne  40003b30 <__ajit_serial_set_uart_reset_inner__+0x34>
40003b28:	84 10 e0 20 	or  %g3, 0x20, %g2
40003b2c:	84 08 ff df 	and  %g3, -33, %g2
40003b30:	80 a2 20 00 	cmp  %o0, 0
40003b34:	12 80 00 08 	bne  40003b54 <__ajit_serial_set_uart_reset_inner__+0x58>
40003b38:	01 00 00 00 	nop 
40003b3c:	c4 a0 44 00 	sta  %g2, [ %g1 ] #ASI_SCRATCHPAD
40003b40:	81 c3 e0 08 	retl 
40003b44:	01 00 00 00 	nop 
40003b48:	c6 80 44 00 	lda  [ %g1 ] #ASI_SCRATCHPAD, %g3
40003b4c:	10 bf ff f6 	b  40003b24 <__ajit_serial_set_uart_reset_inner__+0x28>
40003b50:	80 a2 a0 00 	cmp  %o2, 0
40003b54:	81 c3 e0 08 	retl 
40003b58:	c4 20 40 00 	st  %g2, [ %g1 ]

40003b5c <__ajit_serial_set_uart_reset_via_vmap__>:
40003b5c:	94 10 00 08 	mov  %o0, %o2
40003b60:	92 10 20 00 	clr  %o1
40003b64:	90 10 20 01 	mov  1, %o0
40003b68:	82 13 c0 00 	mov  %o7, %g1
40003b6c:	7f ff ff e4 	call  40003afc <__ajit_serial_set_uart_reset_inner__>
40003b70:	9e 10 40 00 	mov  %g1, %o7

40003b74 <__ajit_serial_set_uart_reset_via_bypass__>:
40003b74:	94 10 00 08 	mov  %o0, %o2
40003b78:	92 10 20 00 	clr  %o1
40003b7c:	90 10 20 00 	clr  %o0
40003b80:	82 13 c0 00 	mov  %o7, %g1
40003b84:	7f ff ff de 	call  40003afc <__ajit_serial_set_uart_reset_inner__>
40003b88:	9e 10 40 00 	mov  %g1, %o7

40003b8c <__ajit_write_irc_control_register_via_bypass__>:
40003b8c:	03 3f ff cc 	sethi  %hi(0xffff3000), %g1
40003b90:	d0 a0 44 00 	sta  %o0, [ %g1 ] #ASI_SCRATCHPAD
40003b94:	81 c3 e0 08 	retl 
40003b98:	01 00 00 00 	nop 

40003b9c <__ajit_read_irc_control_register_via_bypass__>:
40003b9c:	11 3f ff cc 	sethi  %hi(0xffff3000), %o0
40003ba0:	d0 82 04 00 	lda  [ %o0 ] #ASI_SCRATCHPAD, %o0
40003ba4:	81 c3 e0 08 	retl 
40003ba8:	01 00 00 00 	nop 

40003bac <__ajit_write_irc_control_register_via_vmap__>:
40003bac:	03 3f ff cc 	sethi  %hi(0xffff3000), %g1
40003bb0:	81 c3 e0 08 	retl 
40003bb4:	d0 20 40 00 	st  %o0, [ %g1 ]

40003bb8 <__ajit_read_irc_control_register_via_vmap__>:
40003bb8:	03 3f ff cc 	sethi  %hi(0xffff3000), %g1
40003bbc:	81 c3 e0 08 	retl 
40003bc0:	d0 00 40 00 	ld  [ %g1 ], %o0

40003bc4 <__ajit_write_spi_master_register_via_bypass__>:
40003bc4:	93 2a 60 02 	sll  %o1, 2, %o1
40003bc8:	90 02 40 08 	add  %o1, %o0, %o0
40003bcc:	d4 a2 04 00 	sta  %o2, [ %o0 ] #ASI_SCRATCHPAD
40003bd0:	81 c3 e0 08 	retl 
40003bd4:	01 00 00 00 	nop 

40003bd8 <__ajit_write_spi_master_register_via_vmap__>:
40003bd8:	93 2a 60 02 	sll  %o1, 2, %o1
40003bdc:	81 c3 e0 08 	retl 
40003be0:	d4 2a 00 09 	stb  %o2, [ %o0 + %o1 ]

40003be4 <__ajit_read_spi_master_register_via_bypass__>:
40003be4:	93 2a 60 02 	sll  %o1, 2, %o1
40003be8:	90 02 40 08 	add  %o1, %o0, %o0
40003bec:	d0 82 04 00 	lda  [ %o0 ] #ASI_SCRATCHPAD, %o0
40003bf0:	81 c3 e0 08 	retl 
40003bf4:	90 0a 20 ff 	and  %o0, 0xff, %o0

40003bf8 <__ajit_read_spi_master_register_via_vmap__>:
40003bf8:	93 2a 60 02 	sll  %o1, 2, %o1
40003bfc:	81 c3 e0 08 	retl 
40003c00:	d0 0a 00 09 	ldub  [ %o0 + %o1 ], %o0

40003c04 <__ajit_configure_spi_master_via_bypass___>:
40003c04:	95 2a a0 04 	sll  %o2, 4, %o2
40003c08:	93 2a 60 06 	sll  %o1, 6, %o1
40003c0c:	90 02 20 0c 	add  %o0, 0xc, %o0
40003c10:	92 0a 60 ff 	and  %o1, 0xff, %o1
40003c14:	94 12 80 09 	or  %o2, %o1, %o2
40003c18:	96 12 80 0b 	or  %o2, %o3, %o3
40003c1c:	d6 a2 04 00 	sta  %o3, [ %o0 ] #ASI_SCRATCHPAD
40003c20:	81 c3 e0 08 	retl 
40003c24:	90 10 20 00 	clr  %o0

40003c28 <__ajit_configure_spi_master_via_vmap___>:
40003c28:	95 2a a0 04 	sll  %o2, 4, %o2
40003c2c:	93 2a 60 06 	sll  %o1, 6, %o1
40003c30:	92 0a 60 ff 	and  %o1, 0xff, %o1
40003c34:	94 12 80 09 	or  %o2, %o1, %o2
40003c38:	96 12 80 0b 	or  %o2, %o3, %o3
40003c3c:	d6 22 20 0c 	st  %o3, [ %o0 + 0xc ]
40003c40:	81 c3 e0 08 	retl 
40003c44:	90 10 20 00 	clr  %o0

40003c48 <__ajit_do_spi_transfer_inner__>:
40003c48:	9d e3 bf a0 	save  %sp, -96, %sp
40003c4c:	b8 0f 20 01 	and  %i4, 1, %i4
40003c50:	b4 0e a0 07 	and  %i2, 7, %i2
40003c54:	b8 07 00 1c 	add  %i4, %i4, %i4
40003c58:	83 2e a0 04 	sll  %i2, 4, %g1
40003c5c:	80 a6 20 00 	cmp  %i0, 0
40003c60:	82 10 60 01 	or  %g1, 1, %g1
40003c64:	02 80 00 31 	be  40003d28 <__ajit_do_spi_transfer_inner__+0xe0>
40003c68:	82 17 00 01 	or  %i4, %g1, %g1
40003c6c:	82 08 60 ff 	and  %g1, 0xff, %g1
40003c70:	f6 26 40 00 	st  %i3, [ %i1 ]
40003c74:	88 06 60 08 	add  %i1, 8, %g4
40003c78:	c2 26 60 08 	st  %g1, [ %i1 + 8 ]
40003c7c:	80 a6 20 00 	cmp  %i0, 0
40003c80:	02 80 00 22 	be  40003d08 <__ajit_do_spi_transfer_inner__+0xc0>
40003c84:	01 00 00 00 	nop 
40003c88:	c2 01 00 00 	ld  [ %g4 ], %g1
40003c8c:	80 88 60 01 	btst  1, %g1
40003c90:	22 80 00 2b 	be,a   40003d3c <__ajit_do_spi_transfer_inner__+0xf4>
40003c94:	f0 06 40 00 	ld  [ %i1 ], %i0
40003c98:	b9 47 c0 00 	rd  %asr31, %i4
40003c9c:	83 47 80 00 	rd  %asr30, %g1
40003ca0:	9a 10 20 00 	clr  %o5
40003ca4:	ba 10 00 1c 	mov  %i4, %i5
40003ca8:	ba 13 40 1d 	or  %o5, %i5, %i5
40003cac:	b6 87 60 40 	addcc  %i5, 0x40, %i3
40003cb0:	b8 10 20 00 	clr  %i4
40003cb4:	b8 10 40 1c 	or  %g1, %i4, %i4
40003cb8:	b4 47 20 00 	addx  %i4, 0, %i2
40003cbc:	80 a6 80 1c 	cmp  %i2, %i4
40003cc0:	08 80 00 0c 	bleu  40003cf0 <__ajit_do_spi_transfer_inner__+0xa8>
40003cc4:	01 00 00 00 	nop 
40003cc8:	b9 47 c0 00 	rd  %asr31, %i4
40003ccc:	83 47 80 00 	rd  %asr30, %g1
40003cd0:	86 10 20 00 	clr  %g3
40003cd4:	ba 10 00 1c 	mov  %i4, %i5
40003cd8:	b8 10 20 00 	clr  %i4
40003cdc:	b8 10 40 1c 	or  %g1, %i4, %i4
40003ce0:	80 a6 80 1c 	cmp  %i2, %i4
40003ce4:	18 bf ff f9 	bgu  40003cc8 <__ajit_do_spi_transfer_inner__+0x80>
40003ce8:	ba 10 c0 1d 	or  %g3, %i5, %i5
40003cec:	80 a6 80 1c 	cmp  %i2, %i4
40003cf0:	12 bf ff e3 	bne  40003c7c <__ajit_do_spi_transfer_inner__+0x34>
40003cf4:	80 a6 c0 1d 	cmp  %i3, %i5
40003cf8:	18 bf ff f4 	bgu  40003cc8 <__ajit_do_spi_transfer_inner__+0x80>
40003cfc:	80 a6 20 00 	cmp  %i0, 0
40003d00:	32 bf ff e3 	bne,a   40003c8c <__ajit_do_spi_transfer_inner__+0x44>
40003d04:	c2 01 00 00 	ld  [ %g4 ], %g1
40003d08:	c2 81 04 00 	lda  [ %g4 ] #ASI_SCRATCHPAD, %g1
40003d0c:	80 88 60 01 	btst  1, %g1
40003d10:	12 bf ff e2 	bne  40003c98 <__ajit_do_spi_transfer_inner__+0x50>
40003d14:	01 00 00 00 	nop 
40003d18:	f0 86 44 00 	lda  [ %i1 ] #ASI_SCRATCHPAD, %i0
40003d1c:	b0 0e 20 ff 	and  %i0, 0xff, %i0
40003d20:	81 c7 e0 08 	ret 
40003d24:	81 e8 00 00 	restore 
40003d28:	f6 a6 44 00 	sta  %i3, [ %i1 ] #ASI_SCRATCHPAD
40003d2c:	88 06 60 08 	add  %i1, 8, %g4
40003d30:	c2 a1 04 00 	sta  %g1, [ %g4 ] #ASI_SCRATCHPAD
40003d34:	10 bf ff d3 	b  40003c80 <__ajit_do_spi_transfer_inner__+0x38>
40003d38:	80 a6 20 00 	cmp  %i0, 0
40003d3c:	b0 0e 20 ff 	and  %i0, 0xff, %i0
40003d40:	81 c7 e0 08 	ret 
40003d44:	81 e8 00 00 	restore 

40003d48 <__ajit_do_spi_transfer_via_vmap__>:
40003d48:	86 10 00 08 	mov  %o0, %g3
40003d4c:	84 10 00 09 	mov  %o1, %g2
40003d50:	82 10 00 0a 	mov  %o2, %g1
40003d54:	98 10 00 0b 	mov  %o3, %o4
40003d58:	90 10 20 01 	mov  1, %o0
40003d5c:	92 10 00 03 	mov  %g3, %o1
40003d60:	94 10 00 02 	mov  %g2, %o2
40003d64:	96 10 00 01 	mov  %g1, %o3
40003d68:	82 13 c0 00 	mov  %o7, %g1
40003d6c:	7f ff ff b7 	call  40003c48 <__ajit_do_spi_transfer_inner__>
40003d70:	9e 10 40 00 	mov  %g1, %o7

40003d74 <__ajit_do_spi_transfer_via_bypass__>:
40003d74:	86 10 00 08 	mov  %o0, %g3
40003d78:	84 10 00 09 	mov  %o1, %g2
40003d7c:	82 10 00 0a 	mov  %o2, %g1
40003d80:	98 10 00 0b 	mov  %o3, %o4
40003d84:	90 10 20 00 	clr  %o0
40003d88:	92 10 00 03 	mov  %g3, %o1
40003d8c:	94 10 00 02 	mov  %g2, %o2
40003d90:	96 10 00 01 	mov  %g1, %o3
40003d94:	82 13 c0 00 	mov  %o7, %g1
40003d98:	7f ff ff ac 	call  40003c48 <__ajit_do_spi_transfer_inner__>
40003d9c:	9e 10 40 00 	mov  %g1, %o7

40003da0 <__ajit_gpio_xfer__>:
40003da0:	92 0a 60 07 	and  %o1, 7, %o1
40003da4:	87 2a 60 04 	sll  %o1, 4, %g3
40003da8:	d4 2a 00 00 	stb  %o2, [ %o0 ]
40003dac:	84 10 e0 03 	or  %g3, 3, %g2
40003db0:	82 10 21 00 	mov  0x100, %g1
40003db4:	86 10 00 02 	mov  %g2, %g3
40003db8:	c4 2a 20 10 	stb  %g2, [ %o0 + 0x10 ]
40003dbc:	82 00 7f ff 	add  %g1, -1, %g1
40003dc0:	85 38 60 1f 	sra  %g1, 0x1f, %g2
40003dc4:	84 20 80 01 	sub  %g2, %g1, %g2
40003dc8:	85 30 a0 1f 	srl  %g2, 0x1f, %g2
40003dcc:	80 88 c0 02 	btst  %g3, %g2
40003dd0:	12 bf ff fc 	bne  40003dc0 <__ajit_gpio_xfer__+0x20>
40003dd4:	82 00 7f ff 	add  %g1, -1, %g1
40003dd8:	81 c3 e0 08 	retl 
40003ddc:	d0 0a 00 00 	ldub  [ %o0 ], %o0

40003de0 <__ajit_read_gpio_32_via_vmap__>:
40003de0:	03 3f ff cd 	sethi  %hi(0xffff3400), %g1
40003de4:	82 10 60 04 	or  %g1, 4, %g1	! ffff3404 <allocatedLocks+0xbffd88e4>
40003de8:	81 c3 e0 08 	retl 
40003dec:	d0 00 40 00 	ld  [ %g1 ], %o0

40003df0 <__ajit_write_gpio_32_via_vmap__>:
40003df0:	03 3f ff cd 	sethi  %hi(0xffff3400), %g1
40003df4:	81 c3 e0 08 	retl 
40003df8:	d0 20 40 00 	st  %o0, [ %g1 ]

40003dfc <__ajit_read_gpio_32_via_bypass__>:
40003dfc:	11 3f ff cd 	sethi  %hi(0xffff3400), %o0
40003e00:	90 12 20 04 	or  %o0, 4, %o0	! ffff3404 <allocatedLocks+0xbffd88e4>
40003e04:	d0 82 04 00 	lda  [ %o0 ] #ASI_SCRATCHPAD, %o0
40003e08:	81 c3 e0 08 	retl 
40003e0c:	01 00 00 00 	nop 

40003e10 <__ajit_write_gpio_32_via_bypass__>:
40003e10:	03 3f ff cd 	sethi  %hi(0xffff3400), %g1
40003e14:	d0 a0 44 00 	sta  %o0, [ %g1 ] #ASI_SCRATCHPAD
40003e18:	81 c3 e0 08 	retl 
40003e1c:	01 00 00 00 	nop 

40003e20 <__ajit_clear_thread_performance_counters>:
40003e20:	c0 22 c0 00 	clr  [ %o3 ]
40003e24:	c0 22 e0 04 	clr  [ %o3 + 4 ]
40003e28:	c0 22 e0 08 	clr  [ %o3 + 8 ]
40003e2c:	c0 22 e0 0c 	clr  [ %o3 + 0xc ]
40003e30:	c0 22 e0 10 	clr  [ %o3 + 0x10 ]
40003e34:	c0 22 e0 14 	clr  [ %o3 + 0x14 ]
40003e38:	c0 22 e0 18 	clr  [ %o3 + 0x18 ]
40003e3c:	c0 22 e0 1c 	clr  [ %o3 + 0x1c ]
40003e40:	c0 22 e0 20 	clr  [ %o3 + 0x20 ]
40003e44:	c0 22 e0 24 	clr  [ %o3 + 0x24 ]
40003e48:	c0 22 e0 28 	clr  [ %o3 + 0x28 ]
40003e4c:	c0 22 e0 2c 	clr  [ %o3 + 0x2c ]
40003e50:	c0 22 e0 30 	clr  [ %o3 + 0x30 ]
40003e54:	c0 22 e0 34 	clr  [ %o3 + 0x34 ]
40003e58:	c0 22 e0 38 	clr  [ %o3 + 0x38 ]
40003e5c:	c0 22 e0 3c 	clr  [ %o3 + 0x3c ]
40003e60:	c0 22 e0 40 	clr  [ %o3 + 0x40 ]
40003e64:	c0 22 e0 44 	clr  [ %o3 + 0x44 ]
40003e68:	c0 22 e0 48 	clr  [ %o3 + 0x48 ]
40003e6c:	c0 22 e0 4c 	clr  [ %o3 + 0x4c ]
40003e70:	c0 22 80 00 	clr  [ %o2 ]
40003e74:	c0 22 a0 04 	clr  [ %o2 + 4 ]
40003e78:	c0 22 a0 08 	clr  [ %o2 + 8 ]
40003e7c:	c0 22 a0 0c 	clr  [ %o2 + 0xc ]
40003e80:	c0 22 a0 10 	clr  [ %o2 + 0x10 ]
40003e84:	c0 22 a0 14 	clr  [ %o2 + 0x14 ]
40003e88:	c0 22 a0 18 	clr  [ %o2 + 0x18 ]
40003e8c:	c0 22 a0 1c 	clr  [ %o2 + 0x1c ]
40003e90:	c0 22 a0 20 	clr  [ %o2 + 0x20 ]
40003e94:	81 c3 e0 08 	retl 
40003e98:	c0 22 a0 24 	clr  [ %o2 + 0x24 ]

40003e9c <__ajit_sample_thread_performance_counters>:
40003e9c:	9d e3 bf a0 	save  %sp, -96, %sp
40003ea0:	b0 06 00 18 	add  %i0, %i0, %i0
40003ea4:	b2 06 00 19 	add  %i0, %i1, %i1
40003ea8:	b3 2e 60 08 	sll  %i1, 8, %i1
40003eac:	88 06 40 1a 	add  %i1, %i2, %g4
40003eb0:	f8 06 40 1a 	ld  [ %i1 + %i2 ], %i4
40003eb4:	d0 01 20 04 	ld  [ %g4 + 4 ], %o0
40003eb8:	e8 01 20 10 	ld  [ %g4 + 0x10 ], %l4
40003ebc:	d8 01 20 14 	ld  [ %g4 + 0x14 ], %o4
40003ec0:	f0 01 20 1c 	ld  [ %g4 + 0x1c ], %i0
40003ec4:	c4 01 20 34 	ld  [ %g4 + 0x34 ], %g2
40003ec8:	92 10 00 08 	mov  %o0, %o1
40003ecc:	ba 10 20 00 	clr  %i5
40003ed0:	aa 10 20 00 	clr  %l5
40003ed4:	90 10 20 00 	clr  %o0
40003ed8:	90 12 00 1c 	or  %o0, %i4, %o0
40003edc:	f8 01 20 18 	ld  [ %g4 + 0x18 ], %i4
40003ee0:	ec 01 20 08 	ld  [ %g4 + 8 ], %l6
40003ee4:	d4 01 20 0c 	ld  [ %g4 + 0xc ], %o2
40003ee8:	e4 01 20 24 	ld  [ %g4 + 0x24 ], %l2
40003eec:	e0 01 20 2c 	ld  [ %g4 + 0x2c ], %l0
40003ef0:	f4 01 20 28 	ld  [ %g4 + 0x28 ], %i2
40003ef4:	82 10 00 1b 	mov  %i3, %g1
40003ef8:	86 10 00 02 	mov  %g2, %g3
40003efc:	ae 10 20 00 	clr  %l7
40003f00:	92 12 40 1d 	or  %o1, %i5, %o1
40003f04:	9a 10 00 0c 	mov  %o4, %o5
40003f08:	b2 10 00 18 	mov  %i0, %i1
40003f0c:	9a 15 40 0d 	or  %l5, %o5, %o5
40003f10:	ba 10 20 00 	clr  %i5
40003f14:	aa 10 20 00 	clr  %l5
40003f18:	b6 10 20 00 	clr  %i3
40003f1c:	84 10 20 00 	clr  %g2
40003f20:	98 10 20 00 	clr  %o4
40003f24:	b0 10 20 00 	clr  %i0
40003f28:	98 15 00 0c 	or  %l4, %o4, %o4
40003f2c:	b0 17 00 18 	or  %i4, %i0, %i0
40003f30:	e8 01 20 20 	ld  [ %g4 + 0x20 ], %l4
40003f34:	f8 01 20 30 	ld  [ %g4 + 0x30 ], %i4
40003f38:	a2 10 00 10 	mov  %l0, %l1
40003f3c:	96 10 00 0a 	mov  %o2, %o3
40003f40:	b2 17 40 19 	or  %i5, %i1, %i1
40003f44:	96 15 c0 0b 	or  %l7, %o3, %o3
40003f48:	a6 10 00 12 	mov  %l2, %l3
40003f4c:	a0 10 20 00 	clr  %l0
40003f50:	a6 15 40 13 	or  %l5, %l3, %l3
40003f54:	ba 10 20 00 	clr  %i5
40003f58:	aa 16 c0 11 	or  %i3, %l1, %l5
40003f5c:	ae 17 40 03 	or  %i5, %g3, %l7
40003f60:	b6 10 20 00 	clr  %i3
40003f64:	c6 01 20 44 	ld  [ %g4 + 0x44 ], %g3
40003f68:	94 10 20 00 	clr  %o2
40003f6c:	a4 10 20 00 	clr  %l2
40003f70:	94 15 80 0a 	or  %l6, %o2, %o2
40003f74:	a4 15 00 12 	or  %l4, %l2, %l2
40003f78:	ac 17 00 02 	or  %i4, %g2, %l6
40003f7c:	a8 16 80 10 	or  %i2, %l0, %l4
40003f80:	c4 01 20 3c 	ld  [ %g4 + 0x3c ], %g2
40003f84:	f4 01 20 38 	ld  [ %g4 + 0x38 ], %i2
40003f88:	f8 01 20 40 	ld  [ %g4 + 0x40 ], %i4
40003f8c:	de 01 20 4c 	ld  [ %g4 + 0x4c ], %o7
40003f90:	a2 16 c0 02 	or  %i3, %g2, %l1
40003f94:	a0 10 20 00 	clr  %l0
40003f98:	c4 01 20 48 	ld  [ %g4 + 0x48 ], %g2
40003f9c:	a0 16 80 10 	or  %i2, %l0, %l0
40003fa0:	b6 10 00 03 	mov  %g3, %i3
40003fa4:	b4 10 20 00 	clr  %i2
40003fa8:	ba 10 20 00 	clr  %i5
40003fac:	b4 17 00 1a 	or  %i4, %i2, %i2
40003fb0:	b6 17 40 1b 	or  %i5, %i3, %i3
40003fb4:	b8 10 20 00 	clr  %i4
40003fb8:	86 10 20 00 	clr  %g3
40003fbc:	84 10 80 1c 	or  %g2, %i4, %g2
40003fc0:	86 10 c0 0f 	or  %g3, %o7, %g3
40003fc4:	d0 38 40 00 	std  %o0, [ %g1 ]
40003fc8:	d4 38 60 08 	std  %o2, [ %g1 + 8 ]
40003fcc:	d8 38 60 10 	std  %o4, [ %g1 + 0x10 ]
40003fd0:	f0 38 60 18 	std  %i0, [ %g1 + 0x18 ]
40003fd4:	e4 38 60 20 	std  %l2, [ %g1 + 0x20 ]
40003fd8:	e8 38 60 28 	std  %l4, [ %g1 + 0x28 ]
40003fdc:	ec 38 60 30 	std  %l6, [ %g1 + 0x30 ]
40003fe0:	e0 38 60 38 	std  %l0, [ %g1 + 0x38 ]
40003fe4:	f4 38 60 40 	std  %i2, [ %g1 + 0x40 ]
40003fe8:	c4 38 60 48 	std  %g2, [ %g1 + 0x48 ]
40003fec:	81 c7 e0 08 	ret 
40003ff0:	81 e8 00 00 	restore 

40003ff4 <__ajit_ta_0__>:
40003ff4:	91 d0 20 00 	ta  0
40003ff8:	01 00 00 00 	nop 
40003ffc:	01 00 00 00 	nop 
40004000:	81 c3 e0 08 	retl 
40004004:	01 00 00 00 	nop 

40004008 <__ajit_fsqrtd__>:
40004008:	c1 1a 00 00 	ldd  [ %o0 ], %f0
4000400c:	85 a0 05 40 	fsqrtd  %f0, %f2
40004010:	c5 3a 40 00 	std  %f2, [ %o1 ]
40004014:	81 c3 e0 08 	retl 
40004018:	01 00 00 00 	nop 

4000401c <__ajit_fsqrts__>:
4000401c:	c1 02 00 00 	ld  [ %o0 ], %f0
40004020:	83 a0 05 20 	fsqrts  %f0, %f1
40004024:	c3 22 40 00 	st  %f1, [ %o1 ]
40004028:	81 c3 e0 08 	retl 
4000402c:	01 00 00 00 	nop 

40004030 <__ajit_fitod__>:
40004030:	c1 02 00 00 	ld  [ %o0 ], %f0
40004034:	85 a0 19 00 	fitod  %f0, %f2
40004038:	c5 3a 40 00 	std  %f2, [ %o1 ]
4000403c:	81 c3 e0 08 	retl 
40004040:	01 00 00 00 	nop 

40004044 <__ajit_fitos__>:
40004044:	c1 02 00 00 	ld  [ %o0 ], %f0
40004048:	83 a0 18 80 	fitos  %f0, %f1
4000404c:	c3 22 40 00 	st  %f1, [ %o1 ]
40004050:	81 c3 e0 08 	retl 
40004054:	01 00 00 00 	nop 

40004058 <__ajit_fdtoi__>:
40004058:	c1 1a 00 00 	ldd  [ %o0 ], %f0
4000405c:	85 a0 1a 40 	fdtoi  %f0, %f2
40004060:	c5 22 40 00 	st  %f2, [ %o1 ]
40004064:	81 c3 e0 08 	retl 
40004068:	01 00 00 00 	nop 

4000406c <__ajit_fstoi__>:
4000406c:	c1 02 00 00 	ld  [ %o0 ], %f0
40004070:	83 a0 1a 20 	fstoi  %f0, %f1
40004074:	c3 22 40 00 	st  %f1, [ %o1 ]
40004078:	81 c3 e0 08 	retl 
4000407c:	01 00 00 00 	nop 

40004080 <cortos_init_hw_traps>:
40004080:	82 13 c0 00 	mov  %o7, %g1
40004084:	40 00 09 5b 	call  400065f0 <ajit_initialize_interrupt_handlers_to_null>
40004088:	9e 10 40 00 	mov  %g1, %o7

4000408c <cortos_init_sw_traps>:
4000408c:	82 13 c0 00 	mov  %o7, %g1
40004090:	40 00 08 e6 	call  40006428 <ajit_initialize_sw_trap_handlers_to_null>
40004094:	9e 10 40 00 	mov  %g1, %o7
40004098:	40 00 5a 1c 	call  4001a908 <hms+0x728>
4000409c:	40 00 58 64 	call  4001a22c <hms+0x4c>
400040a0:	40 00 58 64 	call  4001a230 <hms+0x50>
400040a4:	40 00 58 64 	call  4001a234 <hms+0x54>
400040a8:	40 00 58 64 	call  4001a238 <hms+0x58>
400040ac:	40 00 58 64 	call  4001a23c <hms+0x5c>
400040b0:	40 00 58 64 	call  4001a240 <hms+0x60>
400040b4:	40 00 58 64 	call  4001a244 <hms+0x64>
400040b8:	40 00 58 64 	call  4001a248 <hms+0x68>
400040bc:	40 00 58 64 	call  4001a24c <hms+0x6c>
400040c0:	40 00 58 64 	call  4001a250 <hms+0x70>
400040c4:	40 00 58 64 	call  4001a254 <hms+0x74>
400040c8:	40 00 58 64 	call  4001a258 <hms+0x78>
400040cc:	40 00 58 64 	call  4001a25c <hms+0x7c>
400040d0:	40 00 58 64 	call  4001a260 <hms+0x80>
400040d4:	40 00 58 64 	call  4001a264 <hms+0x84>
400040d8:	40 00 58 64 	call  4001a268 <hms+0x88>
400040dc:	40 00 58 64 	call  4001a26c <hms+0x8c>
400040e0:	40 00 58 64 	call  4001a270 <hms+0x90>
400040e4:	40 00 58 64 	call  4001a274 <hms+0x94>
400040e8:	40 00 58 64 	call  4001a278 <hms+0x98>
400040ec:	40 00 58 64 	call  4001a27c <hms+0x9c>
400040f0:	40 00 58 64 	call  4001a280 <hms+0xa0>
400040f4:	40 00 58 64 	call  4001a284 <hms+0xa4>
400040f8:	40 00 58 64 	call  4001a288 <hms+0xa8>
400040fc:	40 00 58 64 	call  4001a28c <hms+0xac>
40004100:	40 00 58 64 	call  4001a290 <hms+0xb0>
40004104:	40 00 58 64 	call  4001a294 <hms+0xb4>
40004108:	40 00 58 64 	call  4001a298 <hms+0xb8>
4000410c:	40 00 58 64 	call  4001a29c <hms+0xbc>
40004110:	40 00 58 64 	call  4001a2a0 <hms+0xc0>
40004114:	40 00 58 64 	call  4001a2a4 <hms+0xc4>
40004118:	40 00 5d d0 	call  4001b858 <allocatedLocks+0xd38>
4000411c:	40 00 5d 80 	call  4001b71c <allocatedLocks+0xbfc>
40004120:	40 00 5d d0 	call  4001b860 <allocatedLocks+0xd40>
40004124:	40 00 58 64 	call  4001a2b4 <hms+0xd4>
40004128:	40 00 58 64 	call  4001a2b8 <hms+0xd8>
4000412c:	40 00 58 64 	call  4001a2bc <hms+0xdc>
40004130:	40 00 58 64 	call  4001a2c0 <hms+0xe0>
40004134:	40 00 58 64 	call  4001a2c4 <hms+0xe4>
40004138:	40 00 58 64 	call  4001a2c8 <hms+0xe8>
4000413c:	40 00 58 64 	call  4001a2cc <hms+0xec>
40004140:	40 00 58 64 	call  4001a2d0 <hms+0xf0>
40004144:	40 00 58 64 	call  4001a2d4 <hms+0xf4>
40004148:	40 00 58 64 	call  4001a2d8 <hms+0xf8>
4000414c:	40 00 58 64 	call  4001a2dc <hms+0xfc>
40004150:	40 00 58 64 	call  4001a2e0 <hms+0x100>
40004154:	40 00 58 64 	call  4001a2e4 <hms+0x104>
40004158:	40 00 58 64 	call  4001a2e8 <hms+0x108>
4000415c:	40 00 58 64 	call  4001a2ec <hms+0x10c>
40004160:	40 00 58 64 	call  4001a2f0 <hms+0x110>
40004164:	40 00 5b 60 	call  4001aee4 <allocatedLocks+0x3c4>
40004168:	40 00 58 64 	call  4001a2f8 <hms+0x118>
4000416c:	40 00 58 64 	call  4001a2fc <hms+0x11c>
40004170:	40 00 58 64 	call  4001a300 <hms+0x120>
40004174:	40 00 58 64 	call  4001a304 <hms+0x124>
40004178:	40 00 58 64 	call  4001a308 <hms+0x128>
4000417c:	40 00 58 64 	call  4001a30c <hms+0x12c>
40004180:	40 00 58 64 	call  4001a310 <hms+0x130>
40004184:	40 00 58 64 	call  4001a314 <hms+0x134>
40004188:	40 00 58 64 	call  4001a318 <hms+0x138>
4000418c:	40 00 5b 60 	call  4001af0c <allocatedLocks+0x3ec>
40004190:	40 00 5a b8 	call  4001ac70 <allocatedLocks+0x150>
40004194:	40 00 5b 60 	call  4001af14 <allocatedLocks+0x3f4>
40004198:	40 00 5d d0 	call  4001b8d8 <allocatedLocks+0xdb8>
4000419c:	40 00 5d 80 	call  4001b79c <allocatedLocks+0xc7c>
400041a0:	40 00 5d d0 	call  4001b8e0 <allocatedLocks+0xdc0>
400041a4:	40 00 58 64 	call  4001a334 <hms+0x154>
400041a8:	40 00 5b 60 	call  4001af28 <allocatedLocks+0x408>
400041ac:	40 00 58 64 	call  4001a33c <hms+0x15c>
400041b0:	40 00 58 64 	call  4001a340 <hms+0x160>
400041b4:	40 00 58 64 	call  4001a344 <hms+0x164>
400041b8:	40 00 58 64 	call  4001a348 <hms+0x168>
400041bc:	40 00 5a 8c 	call  4001abec <allocatedLocks+0xcc>
400041c0:	40 00 5b 60 	call  4001af40 <allocatedLocks+0x420>
400041c4:	40 00 5a 58 	call  4001ab24 <allocatedLocks+0x4>
400041c8:	40 00 58 64 	call  4001a358 <hms+0x178>
400041cc:	40 00 58 64 	call  4001a35c <hms+0x17c>
400041d0:	40 00 5c 40 	call  4001b2d0 <allocatedLocks+0x7b0>
400041d4:	40 00 58 64 	call  4001a364 <hms+0x184>
400041d8:	40 00 5b 60 	call  4001af58 <allocatedLocks+0x438>
400041dc:	40 00 58 64 	call  4001a36c <hms+0x18c>
400041e0:	40 00 58 64 	call  4001a370 <hms+0x190>
400041e4:	40 00 5b 60 	call  4001af64 <allocatedLocks+0x444>
400041e8:	40 00 58 e8 	call  4001a588 <hms+0x3a8>
400041ec:	40 00 57 b8 	call  4001a0cc <byte_array+0x5034>
400041f0:	40 00 57 b8 	call  4001a0d0 <byte_array+0x5038>
400041f4:	40 00 58 dc 	call  4001a564 <hms+0x384>
400041f8:	40 00 57 b8 	call  4001a0d8 <byte_array+0x5040>
400041fc:	40 00 57 b8 	call  4001a0dc <byte_array+0x5044>
40004200:	40 00 57 b8 	call  4001a0e0 <byte_array+0x5048>
40004204:	40 00 57 b8 	call  4001a0e4 <byte_array+0x504c>
40004208:	40 00 57 b8 	call  4001a0e8 <byte_array+0x5050>
4000420c:	40 00 57 b8 	call  4001a0ec <byte_array+0x5054>
40004210:	40 00 57 b8 	call  4001a0f0 <byte_array+0x5058>
40004214:	40 00 58 d0 	call  4001a554 <hms+0x374>
40004218:	40 00 57 b8 	call  4001a0f8 <byte_array+0x5060>
4000421c:	40 00 58 c4 	call  4001a52c <hms+0x34c>
40004220:	40 00 57 b8 	call  4001a100 <byte_array+0x5068>
40004224:	40 00 57 b8 	call  4001a104 <byte_array+0x506c>
40004228:	40 00 58 b8 	call  4001a508 <hms+0x328>
4000422c:	40 00 5a 00 	call  4001aa2c <allocatedLocksNc+0xc>
40004230:	40 00 58 50 	call  4001a370 <hms+0x190>
40004234:	40 00 59 f0 	call  4001a9f4 <hms+0x814>
40004238:	40 00 58 50 	call  4001a378 <hms+0x198>
4000423c:	40 00 59 d0 	call  4001a97c <hms+0x79c>
40004240:	40 00 58 50 	call  4001a380 <hms+0x1a0>
40004244:	40 00 58 50 	call  4001a384 <hms+0x1a4>
40004248:	40 00 58 50 	call  4001a388 <hms+0x1a8>
4000424c:	40 00 58 50 	call  4001a38c <hms+0x1ac>
40004250:	40 00 58 50 	call  4001a390 <hms+0x1b0>
40004254:	40 00 58 50 	call  4001a394 <hms+0x1b4>
40004258:	40 00 58 50 	call  4001a398 <hms+0x1b8>
4000425c:	40 00 58 44 	call  4001a36c <hms+0x18c>
40004260:	40 00 58 50 	call  4001a3a0 <hms+0x1c0>
40004264:	40 00 58 50 	call  4001a3a4 <hms+0x1c4>
40004268:	40 00 58 50 	call  4001a3a8 <hms+0x1c8>
4000426c:	40 00 58 50 	call  4001a3ac <hms+0x1cc>
40004270:	40 00 58 50 	call  4001a3b0 <hms+0x1d0>
40004274:	40 00 58 44 	call  4001a384 <hms+0x1a4>

40004278 <get_components>:
40004278:	9d e3 bf 80 	save  %sp, -128, %sp
4000427c:	84 10 00 18 	mov  %i0, %g2
40004280:	86 10 00 19 	mov  %i1, %g3
40004284:	c4 3f bf f8 	std  %g2, [ %fp + -8 ]
40004288:	a5 36 20 1f 	srl  %i0, 0x1f, %l2
4000428c:	80 8c a0 ff 	btst  0xff, %l2
40004290:	02 80 00 05 	be  400042a4 <get_components+0x2c>
40004294:	f6 07 a0 40 	ld  [ %fp + 0x40 ], %i3
40004298:	d1 1f bf f8 	ldd  [ %fp + -8 ], %f8
4000429c:	91 a0 00 a8 	fnegs  %f8, %f8
400042a0:	d1 3f bf f8 	std  %f8, [ %fp + -8 ]
400042a4:	40 00 13 1d 	call  40008f18 <__fixdfdi>
400042a8:	d0 1f bf f8 	ldd  [ %fp + -8 ], %o0
400042ac:	83 2e a0 03 	sll  %i2, 3, %g1
400042b0:	05 10 00 50 	sethi  %hi(0x40014000), %g2
400042b4:	84 10 a0 00 	mov  %g2, %g2	! 40014000 <powers_of_10>
400042b8:	d5 18 80 01 	ldd  [ %g2 + %g1 ], %f10
400042bc:	a0 10 00 08 	mov  %o0, %l0
400042c0:	a2 10 00 09 	mov  %o1, %l1
400042c4:	40 00 13 73 	call  40009090 <__floatdidf>
400042c8:	d5 3f bf f0 	std  %f10, [ %fp + -16 ]
400042cc:	d1 1f bf f8 	ldd  [ %fp + -8 ], %f8
400042d0:	d5 1f bf f0 	ldd  [ %fp + -16 ], %f10
400042d4:	81 a2 08 c0 	fsubd  %f8, %f0, %f0
400042d8:	91 a0 09 4a 	fmuld  %f0, %f10, %f8
400042dc:	d1 3f bf e0 	std  %f8, [ %fp + -32 ]
400042e0:	d1 3f bf e8 	std  %f8, [ %fp + -24 ]
400042e4:	40 00 13 0d 	call  40008f18 <__fixdfdi>
400042e8:	d0 1f bf e0 	ldd  [ %fp + -32 ], %o0
400042ec:	b8 10 00 08 	mov  %o0, %i4
400042f0:	40 00 13 68 	call  40009090 <__floatdidf>
400042f4:	ba 10 00 09 	mov  %o1, %i5
400042f8:	33 10 00 50 	sethi  %hi(0x40014000), %i1
400042fc:	d1 1f bf e8 	ldd  [ %fp + -24 ], %f8
40004300:	d5 1e 61 90 	ldd  [ %i1 + 0x190 ], %f10
40004304:	81 a2 08 c0 	fsubd  %f8, %f0, %f0
40004308:	81 a8 0a ca 	fcmped  %f0, %f10
4000430c:	01 00 00 00 	nop 
40004310:	1d 80 00 29 	fbule  400043b4 <get_components+0x13c>
40004314:	01 00 00 00 	nop 
40004318:	86 87 60 01 	addcc  %i5, 1, %g3
4000431c:	84 47 20 00 	addx  %i4, 0, %g2
40004320:	ba 10 00 03 	mov  %g3, %i5
40004324:	b8 10 00 02 	mov  %g2, %i4
40004328:	90 10 00 02 	mov  %g2, %o0
4000432c:	40 00 13 59 	call  40009090 <__floatdidf>
40004330:	92 10 00 03 	mov  %g3, %o1
40004334:	d1 1f bf f0 	ldd  [ %fp + -16 ], %f8
40004338:	81 aa 0a c0 	fcmped  %f8, %f0
4000433c:	01 00 00 00 	nop 
40004340:	1b 80 00 29 	fble  400043e4 <get_components+0x16c>
40004344:	86 84 60 01 	addcc  %l1, 1, %g3
40004348:	80 a6 a0 00 	cmp  %i2, 0
4000434c:	12 80 00 15 	bne  400043a0 <get_components+0x128>
40004350:	90 10 00 10 	mov  %l0, %o0
40004354:	40 00 13 4f 	call  40009090 <__floatdidf>
40004358:	92 10 00 11 	mov  %l1, %o1
4000435c:	d1 1e 61 90 	ldd  [ %i1 + 0x190 ], %f8
40004360:	d5 1f bf f8 	ldd  [ %fp + -8 ], %f10
40004364:	81 a2 88 c0 	fsubd  %f10, %f0, %f0
40004368:	81 a8 0a c8 	fcmped  %f0, %f8
4000436c:	01 00 00 00 	nop 
40004370:	19 80 00 05 	fbuge  40004384 <get_components+0x10c>
40004374:	01 00 00 00 	nop 
40004378:	01 00 00 00 	nop 
4000437c:	1d 80 00 09 	fbule  400043a0 <get_components+0x128>
40004380:	01 00 00 00 	nop 
40004384:	84 0c 20 00 	and  %l0, 0, %g2
40004388:	86 0c 60 01 	and  %l1, 1, %g3
4000438c:	84 10 80 03 	or  %g2, %g3, %g2
40004390:	80 a0 00 02 	cmp  %g0, %g2
40004394:	82 40 20 00 	addx  %g0, 0, %g1
40004398:	a2 84 40 01 	addcc  %l1, %g1, %l1
4000439c:	a0 44 20 00 	addx  %l0, 0, %l0
400043a0:	e0 3e c0 00 	std  %l0, [ %i3 ]
400043a4:	f8 3e e0 08 	std  %i4, [ %i3 + 8 ]
400043a8:	e4 2e e0 10 	stb  %l2, [ %i3 + 0x10 ]
400043ac:	81 c7 e0 0c 	jmp  %i7 + 0xc
400043b0:	91 e8 00 1b 	restore  %g0, %i3, %o0
400043b4:	81 a8 0a 4a 	fcmpd  %f0, %f10
400043b8:	01 00 00 00 	nop 
400043bc:	03 bf ff e4 	fbne  4000434c <get_components+0xd4>
400043c0:	80 a6 a0 00 	cmp  %i2, 0
400043c4:	80 97 00 1d 	orcc  %i4, %i5, %g0
400043c8:	12 80 00 0d 	bne  400043fc <get_components+0x184>
400043cc:	84 0f 20 00 	and  %i4, 0, %g2
400043d0:	86 87 60 01 	addcc  %i5, 1, %g3
400043d4:	84 47 20 00 	addx  %i4, 0, %g2
400043d8:	ba 10 00 03 	mov  %g3, %i5
400043dc:	10 bf ff db 	b  40004348 <get_components+0xd0>
400043e0:	b8 10 00 02 	mov  %g2, %i4
400043e4:	b8 10 20 00 	clr  %i4
400043e8:	84 44 20 00 	addx  %l0, 0, %g2
400043ec:	a2 10 00 03 	mov  %g3, %l1
400043f0:	a0 10 00 02 	mov  %g2, %l0
400043f4:	10 bf ff d5 	b  40004348 <get_components+0xd0>
400043f8:	ba 10 20 00 	clr  %i5
400043fc:	86 0f 60 01 	and  %i5, 1, %g3
40004400:	80 90 80 03 	orcc  %g2, %g3, %g0
40004404:	22 bf ff d2 	be,a   4000434c <get_components+0xd4>
40004408:	80 a6 a0 00 	cmp  %i2, 0
4000440c:	10 bf ff f2 	b  400043d4 <get_components+0x15c>
40004410:	86 87 60 01 	addcc  %i5, 1, %g3

40004414 <putchar_wrapper>:
40004414:	9d e3 bf a0 	save  %sp, -96, %sp
40004418:	7f ff fd 21 	call  4000389c <__ajit_serial_putchar_via_vmap__>
4000441c:	90 10 00 18 	mov  %i0, %o0
40004420:	80 a2 20 00 	cmp  %o0, 0
40004424:	02 bf ff fd 	be  40004418 <putchar_wrapper+0x4>
40004428:	01 00 00 00 	nop 
4000442c:	7f ff fc 46 	call  40003544 <__ajit_read_serial_control_register_via_vmap__>
40004430:	01 00 00 00 	nop 
40004434:	90 0a 20 09 	and  %o0, 9, %o0
40004438:	80 a2 20 09 	cmp  %o0, 9
4000443c:	02 bf ff fc 	be  4000442c <putchar_wrapper+0x18>
40004440:	01 00 00 00 	nop 
40004444:	81 c7 e0 08 	ret 
40004448:	81 e8 00 00 	restore 

4000444c <out_rev_>:
4000444c:	9d e3 bf a0 	save  %sp, -96, %sp
40004450:	80 8f 20 03 	btst  3, %i4
40004454:	12 80 00 1e 	bne  400044cc <out_rev_+0x80>
40004458:	e0 06 20 0c 	ld  [ %i0 + 0xc ], %l0
4000445c:	80 a6 80 1b 	cmp  %i2, %i3
40004460:	1a 80 00 1c 	bcc  400044d0 <out_rev_+0x84>
40004464:	80 a6 a0 00 	cmp  %i2, 0
40004468:	ba 06 a0 01 	add  %i2, 1, %i5
4000446c:	82 10 00 10 	mov  %l0, %g1
40004470:	10 80 00 09 	b  40004494 <out_rev_+0x48>
40004474:	a2 10 20 20 	mov  0x20, %l1
40004478:	9f c0 80 00 	call  %g2
4000447c:	d2 06 20 04 	ld  [ %i0 + 4 ], %o1
40004480:	80 a7 40 1b 	cmp  %i5, %i3
40004484:	02 80 00 13 	be  400044d0 <out_rev_+0x84>
40004488:	80 a6 a0 00 	cmp  %i2, 0
4000448c:	c2 06 20 0c 	ld  [ %i0 + 0xc ], %g1
40004490:	ba 07 60 01 	inc  %i5
40004494:	84 00 60 01 	add  %g1, 1, %g2
40004498:	c4 26 20 0c 	st  %g2, [ %i0 + 0xc ]
4000449c:	c4 06 20 10 	ld  [ %i0 + 0x10 ], %g2
400044a0:	80 a0 80 01 	cmp  %g2, %g1
400044a4:	08 bf ff f8 	bleu  40004484 <out_rev_+0x38>
400044a8:	80 a7 40 1b 	cmp  %i5, %i3
400044ac:	c4 06 00 00 	ld  [ %i0 ], %g2
400044b0:	80 a0 a0 00 	cmp  %g2, 0
400044b4:	12 bf ff f1 	bne  40004478 <out_rev_+0x2c>
400044b8:	90 10 20 20 	mov  0x20, %o0
400044bc:	c4 06 20 08 	ld  [ %i0 + 8 ], %g2
400044c0:	80 a7 40 1b 	cmp  %i5, %i3
400044c4:	12 bf ff f2 	bne  4000448c <out_rev_+0x40>
400044c8:	e2 28 80 01 	stb  %l1, [ %g2 + %g1 ]
400044cc:	80 a6 a0 00 	cmp  %i2, 0
400044d0:	02 80 00 17 	be  4000452c <out_rev_+0xe0>
400044d4:	80 8f 20 02 	btst  2, %i4
400044d8:	c2 06 20 0c 	ld  [ %i0 + 0xc ], %g1
400044dc:	b4 06 bf ff 	add  %i2, -1, %i2
400044e0:	84 00 60 01 	add  %g1, 1, %g2
400044e4:	d0 0e 40 1a 	ldub  [ %i1 + %i2 ], %o0
400044e8:	c4 26 20 0c 	st  %g2, [ %i0 + 0xc ]
400044ec:	c4 06 20 10 	ld  [ %i0 + 0x10 ], %g2
400044f0:	80 a0 40 02 	cmp  %g1, %g2
400044f4:	1a bf ff f7 	bcc  400044d0 <out_rev_+0x84>
400044f8:	80 a6 a0 00 	cmp  %i2, 0
400044fc:	c4 06 00 00 	ld  [ %i0 ], %g2
40004500:	80 a0 a0 00 	cmp  %g2, 0
40004504:	22 80 00 1f 	be,a   40004580 <out_rev_+0x134>
40004508:	c4 06 20 08 	ld  [ %i0 + 8 ], %g2
4000450c:	91 2a 20 18 	sll  %o0, 0x18, %o0
40004510:	d2 06 20 04 	ld  [ %i0 + 4 ], %o1
40004514:	9f c0 80 00 	call  %g2
40004518:	91 3a 20 18 	sra  %o0, 0x18, %o0
4000451c:	80 a6 a0 00 	cmp  %i2, 0
40004520:	32 bf ff ef 	bne,a   400044dc <out_rev_+0x90>
40004524:	c2 06 20 0c 	ld  [ %i0 + 0xc ], %g1
40004528:	80 8f 20 02 	btst  2, %i4
4000452c:	02 80 00 1b 	be  40004598 <out_rev_+0x14c>
40004530:	ba 10 20 20 	mov  0x20, %i5
40004534:	c2 06 20 0c 	ld  [ %i0 + 0xc ], %g1
40004538:	86 20 40 10 	sub  %g1, %l0, %g3
4000453c:	80 a6 c0 03 	cmp  %i3, %g3
40004540:	08 80 00 16 	bleu  40004598 <out_rev_+0x14c>
40004544:	84 00 60 01 	add  %g1, 1, %g2
40004548:	c4 26 20 0c 	st  %g2, [ %i0 + 0xc ]
4000454c:	c6 06 20 10 	ld  [ %i0 + 0x10 ], %g3
40004550:	80 a0 c0 01 	cmp  %g3, %g1
40004554:	28 80 00 0d 	bleu,a   40004588 <out_rev_+0x13c>
40004558:	82 10 00 02 	mov  %g2, %g1
4000455c:	c4 06 00 00 	ld  [ %i0 ], %g2
40004560:	80 a0 a0 00 	cmp  %g2, 0
40004564:	22 80 00 0f 	be,a   400045a0 <out_rev_+0x154>
40004568:	c4 06 20 08 	ld  [ %i0 + 8 ], %g2
4000456c:	90 10 20 20 	mov  0x20, %o0
40004570:	9f c0 80 00 	call  %g2
40004574:	d2 06 20 04 	ld  [ %i0 + 4 ], %o1
40004578:	10 bf ff f0 	b  40004538 <out_rev_+0xec>
4000457c:	c2 06 20 0c 	ld  [ %i0 + 0xc ], %g1
40004580:	10 bf ff d3 	b  400044cc <out_rev_+0x80>
40004584:	d0 28 80 01 	stb  %o0, [ %g2 + %g1 ]
40004588:	86 20 40 10 	sub  %g1, %l0, %g3
4000458c:	80 a6 c0 03 	cmp  %i3, %g3
40004590:	18 bf ff ee 	bgu  40004548 <out_rev_+0xfc>
40004594:	84 00 60 01 	add  %g1, 1, %g2
40004598:	81 c7 e0 08 	ret 
4000459c:	81 e8 00 00 	restore 
400045a0:	10 bf ff e5 	b  40004534 <out_rev_+0xe8>
400045a4:	fa 28 80 01 	stb  %i5, [ %g2 + %g1 ]

400045a8 <print_integer>:
400045a8:	9d e3 bf 80 	save  %sp, -128, %sp
400045ac:	e6 07 a0 5c 	ld  [ %fp + 0x5c ], %l3
400045b0:	80 96 40 1a 	orcc  %i1, %i2, %g0
400045b4:	12 80 00 4f 	bne  400046f0 <print_integer+0x148>
400045b8:	e4 07 a0 60 	ld  [ %fp + 0x60 ], %l2
400045bc:	80 8c a8 00 	btst  0x800, %l2
400045c0:	02 80 00 a8 	be  40004860 <print_integer+0x2b8>
400045c4:	80 a7 20 10 	cmp  %i4, 0x10
400045c8:	22 80 00 c2 	be,a   400048d0 <print_integer+0x328>
400045cc:	a4 0c bf ef 	and  %l2, -17, %l2
400045d0:	82 10 20 01 	mov  1, %g1
400045d4:	a0 10 20 00 	clr  %l0
400045d8:	a2 07 bf e0 	add  %fp, -32, %l1
400045dc:	80 8c a0 02 	btst  2, %l2
400045e0:	12 80 00 05 	bne  400045f4 <print_integer+0x4c>
400045e4:	94 10 00 10 	mov  %l0, %o2
400045e8:	80 a4 e0 00 	cmp  %l3, 0
400045ec:	12 80 00 76 	bne  400047c4 <print_integer+0x21c>
400045f0:	80 8c a0 01 	btst  1, %l2
400045f4:	80 a2 80 1d 	cmp  %o2, %i5
400045f8:	1a 80 00 0d 	bcc  4000462c <print_integer+0x84>
400045fc:	80 88 60 ff 	btst  0xff, %g1
40004600:	12 80 00 06 	bne  40004618 <print_integer+0x70>
40004604:	84 10 20 30 	mov  0x30, %g2
40004608:	10 80 00 0a 	b  40004630 <print_integer+0x88>
4000460c:	80 a4 00 0a 	cmp  %l0, %o2
40004610:	1a 80 00 08 	bcc  40004630 <print_integer+0x88>
40004614:	80 a4 00 0a 	cmp  %l0, %o2
40004618:	c4 2c 40 0a 	stb  %g2, [ %l1 + %o2 ]
4000461c:	94 02 a0 01 	inc  %o2
40004620:	80 a2 a0 1f 	cmp  %o2, 0x1f
40004624:	08 bf ff fb 	bleu  40004610 <print_integer+0x68>
40004628:	80 a2 80 1d 	cmp  %o2, %i5
4000462c:	80 a4 00 0a 	cmp  %l0, %o2
40004630:	1a 80 00 05 	bcc  40004644 <print_integer+0x9c>
40004634:	84 40 20 00 	addx  %g0, 0, %g2
40004638:	80 a7 20 08 	cmp  %i4, 8
4000463c:	22 80 00 02 	be,a   40004644 <print_integer+0x9c>
40004640:	a4 0c bf ef 	and  %l2, -17, %l2
40004644:	03 00 00 08 	sethi  %hi(0x2000), %g1
40004648:	82 10 60 10 	or  %g1, 0x10, %g1	! 2010 <__DYNAMIC+0x2010>
4000464c:	80 8c 80 01 	btst  %l2, %g1
40004650:	02 80 00 16 	be  400046a8 <print_integer+0x100>
40004654:	80 a2 a0 1f 	cmp  %o2, 0x1f
40004658:	80 8c a8 00 	btst  0x800, %l2
4000465c:	02 80 00 4a 	be  40004784 <print_integer+0x1dc>
40004660:	80 a2 a0 00 	cmp  %o2, 0
40004664:	80 a7 20 10 	cmp  %i4, 0x10
40004668:	02 80 00 90 	be  400048a8 <print_integer+0x300>
4000466c:	80 a2 a0 1f 	cmp  %o2, 0x1f
40004670:	18 80 00 07 	bgu  4000468c <print_integer+0xe4>
40004674:	80 a7 20 02 	cmp  %i4, 2
40004678:	12 80 00 05 	bne  4000468c <print_integer+0xe4>
4000467c:	82 07 80 0a 	add  %fp, %o2, %g1
40004680:	84 10 20 62 	mov  0x62, %g2
40004684:	94 02 a0 01 	inc  %o2
40004688:	c4 28 7f e0 	stb  %g2, [ %g1 + -32 ]
4000468c:	80 a2 a0 1f 	cmp  %o2, 0x1f
40004690:	18 80 00 11 	bgu  400046d4 <print_integer+0x12c>
40004694:	82 07 80 0a 	add  %fp, %o2, %g1
40004698:	84 10 20 30 	mov  0x30, %g2
4000469c:	94 02 a0 01 	inc  %o2
400046a0:	c4 28 7f e0 	stb  %g2, [ %g1 + -32 ]
400046a4:	80 a2 a0 1f 	cmp  %o2, 0x1f
400046a8:	18 80 00 0b 	bgu  400046d4 <print_integer+0x12c>
400046ac:	80 a6 e0 00 	cmp  %i3, 0
400046b0:	12 80 00 61 	bne  40004834 <print_integer+0x28c>
400046b4:	80 8c a0 04 	btst  4, %l2
400046b8:	12 80 00 71 	bne  4000487c <print_integer+0x2d4>
400046bc:	80 8c a0 08 	btst  8, %l2
400046c0:	02 80 00 05 	be  400046d4 <print_integer+0x12c>
400046c4:	82 07 80 0a 	add  %fp, %o2, %g1
400046c8:	84 10 20 20 	mov  0x20, %g2
400046cc:	94 02 a0 01 	inc  %o2
400046d0:	c4 28 7f e0 	stb  %g2, [ %g1 + -32 ]
400046d4:	90 10 00 18 	mov  %i0, %o0
400046d8:	92 10 00 11 	mov  %l1, %o1
400046dc:	96 10 00 13 	mov  %l3, %o3
400046e0:	7f ff ff 5b 	call  4000444c <out_rev_>
400046e4:	98 10 00 12 	mov  %l2, %o4
400046e8:	81 c7 e0 08 	ret 
400046ec:	81 e8 00 00 	restore 
400046f0:	82 0c a0 20 	and  %l2, 0x20, %g1
400046f4:	a0 10 20 00 	clr  %l0
400046f8:	80 a0 00 01 	cmp  %g0, %g1
400046fc:	a2 07 bf e0 	add  %fp, -32, %l1
40004700:	a8 40 3f ff 	addx  %g0, -1, %l4
40004704:	a8 0d 20 20 	and  %l4, 0x20, %l4
40004708:	10 80 00 12 	b  40004750 <print_integer+0x1a8>
4000470c:	a8 05 20 41 	add  %l4, 0x41, %l4
40004710:	d2 2c 40 10 	stb  %o1, [ %l1 + %l0 ]
40004714:	90 10 00 19 	mov  %i1, %o0
40004718:	92 10 00 1a 	mov  %i2, %o1
4000471c:	94 10 20 00 	clr  %o2
40004720:	40 00 14 4a 	call  40009848 <__udivdi3>
40004724:	96 10 00 1c 	mov  %i4, %o3
40004728:	a0 04 20 01 	inc  %l0
4000472c:	80 a4 20 20 	cmp  %l0, 0x20
40004730:	b2 10 00 08 	mov  %o0, %i1
40004734:	82 40 20 00 	addx  %g0, 0, %g1
40004738:	80 88 60 ff 	btst  0xff, %g1
4000473c:	02 bf ff a8 	be  400045dc <print_integer+0x34>
40004740:	b4 10 00 09 	mov  %o1, %i2
40004744:	80 96 40 09 	orcc  %i1, %o1, %g0
40004748:	02 bf ff a6 	be  400045e0 <print_integer+0x38>
4000474c:	80 8c a0 02 	btst  2, %l2
40004750:	90 10 00 19 	mov  %i1, %o0
40004754:	92 10 00 1a 	mov  %i2, %o1
40004758:	94 10 20 00 	clr  %o2
4000475c:	40 00 15 08 	call  40009b7c <__umoddi3>
40004760:	96 10 00 1c 	mov  %i4, %o3
40004764:	83 2a 60 18 	sll  %o1, 0x18, %g1
40004768:	83 38 60 18 	sra  %g1, 0x18, %g1
4000476c:	80 a0 60 09 	cmp  %g1, 9
40004770:	24 bf ff e8 	ble,a   40004710 <print_integer+0x168>
40004774:	92 02 60 30 	add  %o1, 0x30, %o1
40004778:	92 02 7f f6 	add  %o1, -10, %o1
4000477c:	10 bf ff e5 	b  40004710 <print_integer+0x168>
40004780:	92 02 40 14 	add  %o1, %l4, %o1
40004784:	02 bf ff b9 	be  40004668 <print_integer+0xc0>
40004788:	80 a7 20 10 	cmp  %i4, 0x10
4000478c:	80 a2 80 13 	cmp  %o2, %l3
40004790:	02 80 00 06 	be  400047a8 <print_integer+0x200>
40004794:	80 a0 a0 00 	cmp  %g2, 0
40004798:	80 a7 40 0a 	cmp  %i5, %o2
4000479c:	12 bf ff b3 	bne  40004668 <print_integer+0xc0>
400047a0:	80 a7 20 10 	cmp  %i4, 0x10
400047a4:	80 a0 a0 00 	cmp  %g2, 0
400047a8:	02 80 00 55 	be  400048fc <print_integer+0x354>
400047ac:	80 a7 20 02 	cmp  %i4, 2
400047b0:	82 82 bf ff 	addcc  %o2, -1, %g1
400047b4:	12 80 00 58 	bne  40004914 <print_integer+0x36c>
400047b8:	80 a7 20 02 	cmp  %i4, 2
400047bc:	10 bf ff aa 	b  40004664 <print_integer+0xbc>
400047c0:	94 10 20 00 	clr  %o2
400047c4:	02 bf ff 8d 	be  400045f8 <print_integer+0x50>
400047c8:	80 a2 80 1d 	cmp  %o2, %i5
400047cc:	80 a6 e0 00 	cmp  %i3, 0
400047d0:	32 80 00 05 	bne,a   400047e4 <print_integer+0x23c>
400047d4:	a6 04 ff ff 	add  %l3, -1, %l3
400047d8:	80 8c a0 0c 	btst  0xc, %l2
400047dc:	32 80 00 02 	bne,a   400047e4 <print_integer+0x23c>
400047e0:	a6 04 ff ff 	add  %l3, -1, %l3
400047e4:	80 a4 00 13 	cmp  %l0, %l3
400047e8:	1a 80 00 55 	bcc  4000493c <print_integer+0x394>
400047ec:	80 88 60 ff 	btst  0xff, %g1
400047f0:	02 80 00 53 	be  4000493c <print_integer+0x394>
400047f4:	84 10 20 30 	mov  0x30, %g2
400047f8:	82 07 80 10 	add  %fp, %l0, %g1
400047fc:	94 04 20 01 	add  %l0, 1, %o2
40004800:	10 80 00 06 	b  40004818 <print_integer+0x270>
40004804:	c4 28 7f e0 	stb  %g2, [ %g1 + -32 ]
40004808:	1a bf ff 7c 	bcc  400045f8 <print_integer+0x50>
4000480c:	80 a2 80 1d 	cmp  %o2, %i5
40004810:	c4 2c 40 0a 	stb  %g2, [ %l1 + %o2 ]
40004814:	94 02 a0 01 	inc  %o2
40004818:	80 a2 a0 20 	cmp  %o2, 0x20
4000481c:	82 40 20 00 	addx  %g0, 0, %g1
40004820:	80 88 60 ff 	btst  0xff, %g1
40004824:	32 bf ff f9 	bne,a   40004808 <print_integer+0x260>
40004828:	80 a2 80 13 	cmp  %o2, %l3
4000482c:	10 bf ff 73 	b  400045f8 <print_integer+0x50>
40004830:	80 a2 80 1d 	cmp  %o2, %i5
40004834:	82 07 80 0a 	add  %fp, %o2, %g1
40004838:	84 10 20 2d 	mov  0x2d, %g2
4000483c:	94 02 a0 01 	inc  %o2
40004840:	c4 28 7f e0 	stb  %g2, [ %g1 + -32 ]
40004844:	90 10 00 18 	mov  %i0, %o0
40004848:	92 10 00 11 	mov  %l1, %o1
4000484c:	96 10 00 13 	mov  %l3, %o3
40004850:	7f ff fe ff 	call  4000444c <out_rev_>
40004854:	98 10 00 12 	mov  %l2, %o4
40004858:	81 c7 e0 08 	ret 
4000485c:	81 e8 00 00 	restore 
40004860:	82 10 20 30 	mov  0x30, %g1
40004864:	a4 0c bf ef 	and  %l2, -17, %l2
40004868:	c2 2f bf e0 	stb  %g1, [ %fp + -32 ]
4000486c:	a0 10 20 01 	mov  1, %l0
40004870:	82 10 20 01 	mov  1, %g1
40004874:	10 bf ff 5a 	b  400045dc <print_integer+0x34>
40004878:	a2 07 bf e0 	add  %fp, -32, %l1
4000487c:	82 07 80 0a 	add  %fp, %o2, %g1
40004880:	84 10 20 2b 	mov  0x2b, %g2
40004884:	94 02 a0 01 	inc  %o2
40004888:	c4 28 7f e0 	stb  %g2, [ %g1 + -32 ]
4000488c:	90 10 00 18 	mov  %i0, %o0
40004890:	92 10 00 11 	mov  %l1, %o1
40004894:	96 10 00 13 	mov  %l3, %o3
40004898:	7f ff fe ed 	call  4000444c <out_rev_>
4000489c:	98 10 00 12 	mov  %l2, %o4
400048a0:	81 c7 e0 08 	ret 
400048a4:	81 e8 00 00 	restore 
400048a8:	80 8c a0 20 	btst  0x20, %l2
400048ac:	12 80 00 0d 	bne  400048e0 <print_integer+0x338>
400048b0:	80 a2 a0 1f 	cmp  %o2, 0x1f
400048b4:	18 bf ff 89 	bgu  400046d8 <print_integer+0x130>
400048b8:	90 10 00 18 	mov  %i0, %o0
400048bc:	82 07 80 0a 	add  %fp, %o2, %g1
400048c0:	84 10 20 78 	mov  0x78, %g2
400048c4:	94 02 a0 01 	inc  %o2
400048c8:	10 bf ff 71 	b  4000468c <print_integer+0xe4>
400048cc:	c4 28 7f e0 	stb  %g2, [ %g1 + -32 ]
400048d0:	82 10 20 01 	mov  1, %g1
400048d4:	a0 10 20 00 	clr  %l0
400048d8:	10 bf ff 41 	b  400045dc <print_integer+0x34>
400048dc:	a2 07 bf e0 	add  %fp, -32, %l1
400048e0:	18 bf ff 7e 	bgu  400046d8 <print_integer+0x130>
400048e4:	90 10 00 18 	mov  %i0, %o0
400048e8:	82 07 80 0a 	add  %fp, %o2, %g1
400048ec:	84 10 20 58 	mov  0x58, %g2
400048f0:	94 02 a0 01 	inc  %o2
400048f4:	10 bf ff 66 	b  4000468c <print_integer+0xe4>
400048f8:	c4 28 7f e0 	stb  %g2, [ %g1 + -32 ]
400048fc:	02 bf ff 5b 	be  40004668 <print_integer+0xc0>
40004900:	80 a7 20 10 	cmp  %i4, 0x10
40004904:	02 bf ff 59 	be  40004668 <print_integer+0xc0>
40004908:	82 10 00 0a 	mov  %o2, %g1
4000490c:	10 bf ff 60 	b  4000468c <print_integer+0xe4>
40004910:	94 10 00 01 	mov  %g1, %o2
40004914:	02 80 00 06 	be  4000492c <print_integer+0x384>
40004918:	80 a4 00 01 	cmp  %l0, %g1
4000491c:	80 a7 20 10 	cmp  %i4, 0x10
40004920:	32 bf ff 5b 	bne,a   4000468c <print_integer+0xe4>
40004924:	94 10 00 01 	mov  %g1, %o2
40004928:	80 a4 00 01 	cmp  %l0, %g1
4000492c:	0a bf ff 4e 	bcs  40004664 <print_integer+0xbc>
40004930:	94 02 bf fe 	add  %o2, -2, %o2
40004934:	10 bf ff 4c 	b  40004664 <print_integer+0xbc>
40004938:	94 10 00 01 	mov  %g1, %o2
4000493c:	10 bf ff 2e 	b  400045f4 <print_integer+0x4c>
40004940:	94 10 00 10 	mov  %l0, %o2

40004944 <print_broken_up_decimal.isra.4>:
40004944:	9d e3 bf a0 	save  %sp, -96, %sp
40004948:	e0 07 a0 5c 	ld  [ %fp + 0x5c ], %l0
4000494c:	a2 10 00 1a 	mov  %i2, %l1
40004950:	a6 10 00 1b 	mov  %i3, %l3
40004954:	a8 10 00 1c 	mov  %i4, %l4
40004958:	f6 07 a0 60 	ld  [ %fp + 0x60 ], %i3
4000495c:	f8 07 a0 64 	ld  [ %fp + 0x64 ], %i4
40004960:	e4 07 a0 68 	ld  [ %fp + 0x68 ], %l2
40004964:	80 a4 20 00 	cmp  %l0, 0
40004968:	02 80 00 73 	be  40004b34 <print_broken_up_decimal.isra.4+0x1f0>
4000496c:	f4 07 a0 6c 	ld  [ %fp + 0x6c ], %i2
40004970:	03 00 00 04 	sethi  %hi(0x1000), %g1
40004974:	84 10 60 10 	or  %g1, 0x10, %g2	! 1010 <__DYNAMIC+0x1010>
40004978:	84 0f 00 02 	and  %i4, %g2, %g2
4000497c:	80 a0 80 01 	cmp  %g2, %g1
40004980:	02 80 00 90 	be  40004bc0 <print_broken_up_decimal.isra.4+0x27c>
40004984:	80 a4 60 00 	cmp  %l1, 0
40004988:	80 a6 a0 1f 	cmp  %i2, 0x1f
4000498c:	18 80 00 57 	bgu  40004ae8 <print_broken_up_decimal.isra.4+0x1a4>
40004990:	94 10 20 00 	clr  %o2
40004994:	96 10 20 0a 	mov  0xa, %o3
40004998:	90 10 00 11 	mov  %l1, %o0
4000499c:	40 00 12 bb 	call  40009488 <__moddi3>
400049a0:	92 10 00 13 	mov  %l3, %o1
400049a4:	92 02 60 30 	add  %o1, 0x30, %o1
400049a8:	90 10 00 11 	mov  %l1, %o0
400049ac:	d2 2c 80 1a 	stb  %o1, [ %l2 + %i2 ]
400049b0:	94 10 20 00 	clr  %o2
400049b4:	96 10 20 0a 	mov  0xa, %o3
400049b8:	10 80 00 0f 	b  400049f4 <print_broken_up_decimal.isra.4+0xb0>
400049bc:	92 10 00 13 	mov  %l3, %o1
400049c0:	90 10 00 13 	mov  %l3, %o0
400049c4:	94 10 20 00 	clr  %o2
400049c8:	80 a6 a0 20 	cmp  %i2, 0x20
400049cc:	02 80 00 47 	be  40004ae8 <print_broken_up_decimal.isra.4+0x1a4>
400049d0:	96 10 20 0a 	mov  0xa, %o3
400049d4:	40 00 12 ad 	call  40009488 <__moddi3>
400049d8:	01 00 00 00 	nop 
400049dc:	92 02 60 30 	add  %o1, 0x30, %o1
400049e0:	90 10 00 13 	mov  %l3, %o0
400049e4:	d2 2c 80 1a 	stb  %o1, [ %l2 + %i2 ]
400049e8:	94 10 20 00 	clr  %o2
400049ec:	96 10 20 0a 	mov  0xa, %o3
400049f0:	92 10 00 11 	mov  %l1, %o1
400049f4:	40 00 11 bc 	call  400090e4 <__divdi3>
400049f8:	a0 04 3f ff 	add  %l0, -1, %l0
400049fc:	a6 10 00 08 	mov  %o0, %l3
40004a00:	a2 10 00 09 	mov  %o1, %l1
40004a04:	80 94 c0 09 	orcc  %l3, %o1, %g0
40004a08:	12 bf ff ee 	bne  400049c0 <print_broken_up_decimal.isra.4+0x7c>
40004a0c:	b4 06 a0 01 	inc  %i2
40004a10:	80 a6 a0 1f 	cmp  %i2, 0x1f
40004a14:	18 80 00 0e 	bgu  40004a4c <print_broken_up_decimal.isra.4+0x108>
40004a18:	80 a4 20 00 	cmp  %l0, 0
40004a1c:	02 80 00 0c 	be  40004a4c <print_broken_up_decimal.isra.4+0x108>
40004a20:	82 10 20 30 	mov  0x30, %g1
40004a24:	10 80 00 06 	b  40004a3c <print_broken_up_decimal.isra.4+0xf8>
40004a28:	c2 2c 80 1a 	stb  %g1, [ %l2 + %i2 ]
40004a2c:	80 a4 20 00 	cmp  %l0, 0
40004a30:	02 80 00 08 	be  40004a50 <print_broken_up_decimal.isra.4+0x10c>
40004a34:	80 a6 a0 1f 	cmp  %i2, 0x1f
40004a38:	c2 2c 80 1a 	stb  %g1, [ %l2 + %i2 ]
40004a3c:	b4 06 a0 01 	inc  %i2
40004a40:	80 a6 a0 1f 	cmp  %i2, 0x1f
40004a44:	08 bf ff fa 	bleu  40004a2c <print_broken_up_decimal.isra.4+0xe8>
40004a48:	a0 04 3f ff 	add  %l0, -1, %l0
40004a4c:	80 a6 a0 1f 	cmp  %i2, 0x1f
40004a50:	18 80 00 27 	bgu  40004aec <print_broken_up_decimal.isra.4+0x1a8>
40004a54:	82 0f 20 03 	and  %i4, 3, %g1
40004a58:	82 10 20 2e 	mov  0x2e, %g1
40004a5c:	c2 2c 80 1a 	stb  %g1, [ %l2 + %i2 ]
40004a60:	b4 06 a0 01 	inc  %i2
40004a64:	80 a6 a0 1f 	cmp  %i2, 0x1f
40004a68:	18 80 00 20 	bgu  40004ae8 <print_broken_up_decimal.isra.4+0x1a4>
40004a6c:	94 10 20 00 	clr  %o2
40004a70:	96 10 20 0a 	mov  0xa, %o3
40004a74:	90 10 00 18 	mov  %i0, %o0
40004a78:	40 00 12 84 	call  40009488 <__moddi3>
40004a7c:	92 10 00 19 	mov  %i1, %o1
40004a80:	94 10 20 00 	clr  %o2
40004a84:	82 02 60 30 	add  %o1, 0x30, %g1
40004a88:	96 10 20 0a 	mov  0xa, %o3
40004a8c:	90 10 00 18 	mov  %i0, %o0
40004a90:	92 10 00 19 	mov  %i1, %o1
40004a94:	10 80 00 0f 	b  40004ad0 <print_broken_up_decimal.isra.4+0x18c>
40004a98:	c2 2c 80 1a 	stb  %g1, [ %l2 + %i2 ]
40004a9c:	90 10 00 11 	mov  %l1, %o0
40004aa0:	94 10 20 00 	clr  %o2
40004aa4:	80 a6 a0 20 	cmp  %i2, 0x20
40004aa8:	02 80 00 10 	be  40004ae8 <print_broken_up_decimal.isra.4+0x1a4>
40004aac:	96 10 20 0a 	mov  0xa, %o3
40004ab0:	40 00 12 76 	call  40009488 <__moddi3>
40004ab4:	01 00 00 00 	nop 
40004ab8:	92 02 60 30 	add  %o1, 0x30, %o1
40004abc:	90 10 00 11 	mov  %l1, %o0
40004ac0:	d2 2c 80 1a 	stb  %o1, [ %l2 + %i2 ]
40004ac4:	94 10 20 00 	clr  %o2
40004ac8:	96 10 20 0a 	mov  0xa, %o3
40004acc:	92 10 00 10 	mov  %l0, %o1
40004ad0:	40 00 11 85 	call  400090e4 <__divdi3>
40004ad4:	b4 06 a0 01 	inc  %i2
40004ad8:	a2 10 00 08 	mov  %o0, %l1
40004adc:	80 94 40 09 	orcc  %l1, %o1, %g0
40004ae0:	12 bf ff ef 	bne  40004a9c <print_broken_up_decimal.isra.4+0x158>
40004ae4:	a0 10 00 09 	mov  %o1, %l0
40004ae8:	82 0f 20 03 	and  %i4, 3, %g1
40004aec:	80 a0 60 01 	cmp  %g1, 1
40004af0:	02 80 00 1d 	be  40004b64 <print_broken_up_decimal.isra.4+0x220>
40004af4:	80 a6 e0 00 	cmp  %i3, 0
40004af8:	80 a6 a0 1f 	cmp  %i2, 0x1f
40004afc:	18 80 00 0b 	bgu  40004b28 <print_broken_up_decimal.isra.4+0x1e4>
40004b00:	80 a5 20 00 	cmp  %l4, 0
40004b04:	12 80 00 13 	bne  40004b50 <print_broken_up_decimal.isra.4+0x20c>
40004b08:	82 10 20 2d 	mov  0x2d, %g1
40004b0c:	80 8f 20 04 	btst  4, %i4
40004b10:	12 80 00 4d 	bne  40004c44 <print_broken_up_decimal.isra.4+0x300>
40004b14:	80 8f 20 08 	btst  8, %i4
40004b18:	02 80 00 04 	be  40004b28 <print_broken_up_decimal.isra.4+0x1e4>
40004b1c:	82 10 20 20 	mov  0x20, %g1
40004b20:	c2 2c 80 1a 	stb  %g1, [ %l2 + %i2 ]
40004b24:	b4 06 a0 01 	inc  %i2
40004b28:	b0 10 00 1d 	mov  %i5, %i0
40004b2c:	7f ff fe 48 	call  4000444c <out_rev_>
40004b30:	93 e8 00 12 	restore  %g0, %l2, %o1
40004b34:	80 8f 20 10 	btst  0x10, %i4
40004b38:	02 bf ff cc 	be  40004a68 <print_broken_up_decimal.isra.4+0x124>
40004b3c:	80 a6 a0 1f 	cmp  %i2, 0x1f
40004b40:	28 bf ff c7 	bleu,a   40004a5c <print_broken_up_decimal.isra.4+0x118>
40004b44:	82 10 20 2e 	mov  0x2e, %g1
40004b48:	10 bf ff e9 	b  40004aec <print_broken_up_decimal.isra.4+0x1a8>
40004b4c:	82 0f 20 03 	and  %i4, 3, %g1
40004b50:	b0 10 00 1d 	mov  %i5, %i0
40004b54:	c2 2c 80 1a 	stb  %g1, [ %l2 + %i2 ]
40004b58:	b2 10 00 12 	mov  %l2, %i1
40004b5c:	7f ff fe 3c 	call  4000444c <out_rev_>
40004b60:	95 ee a0 01 	restore  %i2, 1, %o2
40004b64:	02 bf ff e6 	be  40004afc <print_broken_up_decimal.isra.4+0x1b8>
40004b68:	80 a6 a0 1f 	cmp  %i2, 0x1f
40004b6c:	80 a5 20 00 	cmp  %l4, 0
40004b70:	32 80 00 05 	bne,a   40004b84 <print_broken_up_decimal.isra.4+0x240>
40004b74:	b6 06 ff ff 	add  %i3, -1, %i3
40004b78:	80 8f 20 0c 	btst  0xc, %i4
40004b7c:	32 80 00 02 	bne,a   40004b84 <print_broken_up_decimal.isra.4+0x240>
40004b80:	b6 06 ff ff 	add  %i3, -1, %i3
40004b84:	80 a6 80 1b 	cmp  %i2, %i3
40004b88:	1a bf ff dc 	bcc  40004af8 <print_broken_up_decimal.isra.4+0x1b4>
40004b8c:	80 a6 a0 1f 	cmp  %i2, 0x1f
40004b90:	18 bf ff db 	bgu  40004afc <print_broken_up_decimal.isra.4+0x1b8>
40004b94:	82 10 20 30 	mov  0x30, %g1
40004b98:	10 80 00 05 	b  40004bac <print_broken_up_decimal.isra.4+0x268>
40004b9c:	c2 2c 80 1a 	stb  %g1, [ %l2 + %i2 ]
40004ba0:	1a bf ff d7 	bcc  40004afc <print_broken_up_decimal.isra.4+0x1b8>
40004ba4:	80 a6 a0 1f 	cmp  %i2, 0x1f
40004ba8:	c2 2c 80 1a 	stb  %g1, [ %l2 + %i2 ]
40004bac:	b4 06 a0 01 	inc  %i2
40004bb0:	80 a6 a0 1f 	cmp  %i2, 0x1f
40004bb4:	28 bf ff fb 	bleu,a   40004ba0 <print_broken_up_decimal.isra.4+0x25c>
40004bb8:	80 a6 80 1b 	cmp  %i2, %i3
40004bbc:	30 bf ff d0 	b,a   40004afc <print_broken_up_decimal.isra.4+0x1b8>
40004bc0:	04 80 00 27 	ble  40004c5c <print_broken_up_decimal.isra.4+0x318>
40004bc4:	80 a4 60 00 	cmp  %l1, 0
40004bc8:	90 10 00 11 	mov  %l1, %o0
40004bcc:	92 10 00 13 	mov  %l3, %o1
40004bd0:	94 10 20 00 	clr  %o2
40004bd4:	40 00 12 2d 	call  40009488 <__moddi3>
40004bd8:	96 10 20 0a 	mov  0xa, %o3
40004bdc:	80 92 00 09 	orcc  %o0, %o1, %g0
40004be0:	12 bf ff 6b 	bne  4000498c <print_broken_up_decimal.isra.4+0x48>
40004be4:	80 a6 a0 1f 	cmp  %i2, 0x1f
40004be8:	94 10 20 00 	clr  %o2
40004bec:	96 10 20 0a 	mov  0xa, %o3
40004bf0:	90 10 00 11 	mov  %l1, %o0
40004bf4:	40 00 11 3c 	call  400090e4 <__divdi3>
40004bf8:	92 10 00 13 	mov  %l3, %o1
40004bfc:	94 10 20 00 	clr  %o2
40004c00:	a2 10 00 08 	mov  %o0, %l1
40004c04:	a6 10 00 09 	mov  %o1, %l3
40004c08:	96 10 20 0a 	mov  0xa, %o3
40004c0c:	40 00 12 1f 	call  40009488 <__moddi3>
40004c10:	a0 04 3f ff 	add  %l0, -1, %l0
40004c14:	80 92 00 09 	orcc  %o0, %o1, %g0
40004c18:	02 bf ff f5 	be  40004bec <print_broken_up_decimal.isra.4+0x2a8>
40004c1c:	94 10 20 00 	clr  %o2
40004c20:	80 a4 60 00 	cmp  %l1, 0
40004c24:	14 bf ff 5a 	bg  4000498c <print_broken_up_decimal.isra.4+0x48>
40004c28:	80 a6 a0 1f 	cmp  %i2, 0x1f
40004c2c:	80 a4 60 00 	cmp  %l1, 0
40004c30:	12 bf ff 8d 	bne  40004a64 <print_broken_up_decimal.isra.4+0x120>
40004c34:	80 a4 e0 00 	cmp  %l3, 0
40004c38:	12 bf ff 55 	bne  4000498c <print_broken_up_decimal.isra.4+0x48>
40004c3c:	80 a6 a0 1f 	cmp  %i2, 0x1f
40004c40:	30 bf ff 8a 	b,a   40004a68 <print_broken_up_decimal.isra.4+0x124>
40004c44:	82 10 20 2b 	mov  0x2b, %g1
40004c48:	b0 10 00 1d 	mov  %i5, %i0
40004c4c:	c2 2c 80 1a 	stb  %g1, [ %l2 + %i2 ]
40004c50:	b2 10 00 12 	mov  %l2, %i1
40004c54:	7f ff fd fe 	call  4000444c <out_rev_>
40004c58:	95 ee a0 01 	restore  %i2, 1, %o2
40004c5c:	12 bf ff 82 	bne  40004a64 <print_broken_up_decimal.isra.4+0x120>
40004c60:	80 a4 e0 00 	cmp  %l3, 0
40004c64:	12 bf ff da 	bne  40004bcc <print_broken_up_decimal.isra.4+0x288>
40004c68:	90 10 00 11 	mov  %l1, %o0
40004c6c:	10 bf ff 7f 	b  40004a68 <print_broken_up_decimal.isra.4+0x124>
40004c70:	80 a6 a0 1f 	cmp  %i2, 0x1f

40004c74 <print_exponential_number>:
40004c74:	9d e3 bf 40 	save  %sp, -192, %sp
40004c78:	84 10 00 19 	mov  %i1, %g2
40004c7c:	86 10 00 1a 	mov  %i2, %g3
40004c80:	c4 3f bf c8 	std  %g2, [ %fp + -56 ]
40004c84:	ad 36 60 1f 	srl  %i1, 0x1f, %l6
40004c88:	a8 10 00 1b 	mov  %i3, %l4
40004c8c:	82 8d a0 ff 	andcc  %l6, 0xff, %g1
40004c90:	02 80 00 03 	be  40004c9c <print_exponential_number+0x28>
40004c94:	d1 1f bf c8 	ldd  [ %fp + -56 ], %f8
40004c98:	91 a0 00 a8 	fnegs  %f8, %f8
40004c9c:	09 10 00 50 	sethi  %hi(0x40014000), %g4
40004ca0:	d5 19 21 a0 	ldd  [ %g4 + 0x1a0 ], %f10	! 400141a0 <__clz_tab+0x110>
40004ca4:	81 aa 0a 4a 	fcmpd  %f8, %f10
40004ca8:	01 00 00 00 	nop 
40004cac:	33 80 00 e8 	fbe,a   4000504c <print_exponential_number+0x3d8>
40004cb0:	88 10 20 01 	mov  1, %g4	! 1 <__DYNAMIC+0x1>
40004cb4:	d1 3f bf c0 	std  %f8, [ %fp + -64 ]
40004cb8:	19 00 03 ff 	sethi  %hi(0xffc00), %o4
40004cbc:	f4 1f bf c0 	ldd  [ %fp + -64 ], %i2
40004cc0:	98 13 23 ff 	or  %o4, 0x3ff, %o4
40004cc4:	05 0f fc 00 	sethi  %hi(0x3ff00000), %g2
40004cc8:	98 0e 80 0c 	and  %i2, %o4, %o4
40004ccc:	84 13 00 02 	or  %o4, %g2, %g2
40004cd0:	1b 3f ff ff 	sethi  %hi(0xfffffc00), %o5
40004cd4:	86 10 20 00 	clr  %g3
40004cd8:	9a 13 63 ff 	or  %o5, 0x3ff, %o5
40004cdc:	9a 0e c0 0d 	and  %i3, %o5, %o5
40004ce0:	86 13 40 03 	or  %o5, %g3, %g3
40004ce4:	c4 3f bf c8 	std  %g2, [ %fp + -56 ]
40004ce8:	05 10 00 50 	sethi  %hi(0x40014000), %g2
40004cec:	e1 1f bf c8 	ldd  [ %fp + -56 ], %f16
40004cf0:	37 10 00 50 	sethi  %hi(0x40014000), %i3
40004cf4:	dd 1e e1 a8 	ldd  [ %i3 + 0x1a8 ], %f14	! 400141a8 <__clz_tab+0x118>
40004cf8:	99 a4 08 ce 	fsubd  %f16, %f14, %f12
40004cfc:	e1 18 a1 b0 	ldd  [ %g2 + 0x1b0 ], %f16
40004d00:	05 10 00 50 	sethi  %hi(0x40014000), %g2
40004d04:	e5 18 a1 b8 	ldd  [ %g2 + 0x1b8 ], %f18	! 400141b8 <__clz_tab+0x128>
40004d08:	9d a3 09 4c 	fmuld  %f12, %f12, %f14
40004d0c:	a1 a3 09 50 	fmuld  %f12, %f16, %f16
40004d10:	05 10 00 50 	sethi  %hi(0x40014000), %g2
40004d14:	a1 a4 08 52 	faddd  %f16, %f18, %f16
40004d18:	37 10 00 50 	sethi  %hi(0x40014000), %i3
40004d1c:	e5 18 a1 c0 	ldd  [ %g2 + 0x1c0 ], %f18
40004d20:	a5 a3 89 52 	fmuld  %f14, %f18, %f18
40004d24:	87 36 a0 14 	srl  %i2, 0x14, %g3
40004d28:	a1 a4 08 d2 	fsubd  %f16, %f18, %f16
40004d2c:	86 08 e7 ff 	and  %g3, 0x7ff, %g3
40004d30:	e5 1e e1 c8 	ldd  [ %i3 + 0x1c8 ], %f18
40004d34:	b6 00 fc 01 	add  %g3, -1023, %i3
40004d38:	f6 27 bf bc 	st  %i3, [ %fp + -68 ]
40004d3c:	99 a3 09 4e 	fmuld  %f12, %f14, %f12
40004d40:	05 10 00 50 	sethi  %hi(0x40014000), %g2
40004d44:	99 a3 09 52 	fmuld  %f12, %f18, %f12
40004d48:	dd 18 a1 d0 	ldd  [ %g2 + 0x1d0 ], %f14
40004d4c:	99 a4 08 4c 	faddd  %f16, %f12, %f12
40004d50:	e1 07 bf bc 	ld  [ %fp + -68 ], %f16
40004d54:	a1 a0 19 10 	fitod  %f16, %f16
40004d58:	a1 a4 09 4e 	fmuld  %f16, %f14, %f16
40004d5c:	99 a3 08 50 	faddd  %f12, %f16, %f12
40004d60:	81 ab 0a ca 	fcmped  %f12, %f10
40004d64:	01 00 00 00 	nop 
40004d68:	07 80 01 49 	fbul  4000528c <print_exponential_number+0x618>
40004d6c:	01 00 00 00 	nop 
40004d70:	95 a0 1a 4c 	fdtoi  %f12, %f10
40004d74:	d5 27 bf bc 	st  %f10, [ %fp + -68 ]
40004d78:	ea 07 bf bc 	ld  [ %fp + -68 ], %l5
40004d7c:	80 a5 7e cc 	cmp  %l5, -308
40004d80:	02 80 01 b6 	be  40005458 <print_exponential_number+0x7e4>
40004d84:	05 10 00 50 	sethi  %hi(0x40014000), %g2
40004d88:	ea 27 bf bc 	st  %l5, [ %fp + -68 ]
40004d8c:	e1 07 bf bc 	ld  [ %fp + -68 ], %f16
40004d90:	d9 18 a1 d8 	ldd  [ %g2 + 0x1d8 ], %f12
40004d94:	9d a0 19 10 	fitod  %f16, %f14
40004d98:	d5 19 21 a0 	ldd  [ %g4 + 0x1a0 ], %f10
40004d9c:	99 a3 89 4c 	fmuld  %f14, %f12, %f12
40004da0:	05 10 00 50 	sethi  %hi(0x40014000), %g2
40004da4:	e1 18 a1 90 	ldd  [ %g2 + 0x190 ], %f16	! 40014190 <__clz_tab+0x100>
40004da8:	99 a3 08 50 	faddd  %f12, %f16, %f12
40004dac:	81 ab 0a ca 	fcmped  %f12, %f10
40004db0:	01 00 00 00 	nop 
40004db4:	07 80 01 9d 	fbul  40005428 <print_exponential_number+0x7b4>
40004db8:	01 00 00 00 	nop 
40004dbc:	a3 a0 1a 4c 	fdtoi  %f12, %f17
40004dc0:	e3 27 bf bc 	st  %f17, [ %fp + -68 ]
40004dc4:	a1 a0 19 11 	fitod  %f17, %f16
40004dc8:	c4 07 bf bc 	ld  [ %fp + -68 ], %g2
40004dcc:	07 10 00 50 	sethi  %hi(0x40014000), %g3
40004dd0:	d5 18 e1 e0 	ldd  [ %g3 + 0x1e0 ], %f10	! 400141e0 <__clz_tab+0x150>
40004dd4:	09 10 00 50 	sethi  %hi(0x40014000), %g4
40004dd8:	9d a3 89 4a 	fmuld  %f14, %f10, %f14
40004ddc:	07 10 00 50 	sethi  %hi(0x40014000), %g3
40004de0:	d5 18 e1 e8 	ldd  [ %g3 + 0x1e8 ], %f10	! 400141e8 <__clz_tab+0x158>
40004de4:	a1 a4 09 4a 	fmuld  %f16, %f10, %f16
40004de8:	95 a3 88 d0 	fsubd  %f14, %f16, %f10
40004dec:	e1 19 21 f0 	ldd  [ %g4 + 0x1f0 ], %f16
40004df0:	09 10 00 50 	sethi  %hi(0x40014000), %g4
40004df4:	99 a2 89 4a 	fmuld  %f10, %f10, %f12
40004df8:	9d a2 88 4a 	faddd  %f10, %f10, %f14
40004dfc:	95 a4 08 ca 	fsubd  %f16, %f10, %f10
40004e00:	e1 19 21 f8 	ldd  [ %g4 + 0x1f8 ], %f16
40004e04:	09 10 00 50 	sethi  %hi(0x40014000), %g4
40004e08:	e5 19 22 00 	ldd  [ %g4 + 0x200 ], %f18	! 40014200 <__clz_tab+0x170>
40004e0c:	a1 a3 09 d0 	fdivd  %f12, %f16, %f16
40004e10:	09 10 00 50 	sethi  %hi(0x40014000), %g4
40004e14:	a1 a4 08 52 	faddd  %f16, %f18, %f16
40004e18:	e5 19 22 08 	ldd  [ %g4 + 0x208 ], %f18
40004e1c:	a1 a3 09 d0 	fdivd  %f12, %f16, %f16
40004e20:	a1 a4 08 52 	faddd  %f16, %f18, %f16
40004e24:	9a 80 a3 ff 	addcc  %g2, 0x3ff, %o5
40004e28:	99 a3 09 d0 	fdivd  %f12, %f16, %f12
40004e2c:	85 2b 60 14 	sll  %o5, 0x14, %g2
40004e30:	86 10 20 00 	clr  %g3
40004e34:	95 a2 88 4c 	faddd  %f10, %f12, %f10
40004e38:	09 10 00 50 	sethi  %hi(0x40014000), %g4
40004e3c:	95 a3 89 ca 	fdivd  %f14, %f10, %f10
40004e40:	c4 3f bf c8 	std  %g2, [ %fp + -56 ]
40004e44:	dd 19 22 10 	ldd  [ %g4 + 0x210 ], %f14
40004e48:	e1 1f bf c8 	ldd  [ %fp + -56 ], %f16
40004e4c:	95 a2 88 4e 	faddd  %f10, %f14, %f10
40004e50:	95 a2 89 50 	fmuld  %f10, %f16, %f10
40004e54:	81 aa 0a ca 	fcmped  %f8, %f10
40004e58:	01 00 00 00 	nop 
40004e5c:	19 80 00 06 	fbuge  40004e74 <print_exponential_number+0x200>
40004e60:	01 00 00 00 	nop 
40004e64:	05 10 00 50 	sethi  %hi(0x40014000), %g2
40004e68:	aa 05 7f ff 	add  %l5, -1, %l5
40004e6c:	d9 18 a2 00 	ldd  [ %g2 + 0x200 ], %f12
40004e70:	95 a2 89 cc 	fdivd  %f10, %f12, %f10
40004e74:	84 05 60 11 	add  %l5, 0x11, %g2
40004e78:	80 a0 a0 22 	cmp  %g2, 0x22
40004e7c:	18 80 01 00 	bgu  4000527c <print_exponential_number+0x608>
40004e80:	99 a0 00 2a 	fmovs  %f10, %f12
40004e84:	85 3d 60 1f 	sra  %l5, 0x1f, %g2
40004e88:	80 a0 00 15 	cmp  %g0, %l5
40004e8c:	86 18 80 15 	xor  %g2, %l5, %g3
40004e90:	84 20 c0 02 	sub  %g3, %g2, %g2
40004e94:	85 28 a0 03 	sll  %g2, 3, %g2
40004e98:	88 60 3f ff 	subx  %g0, -1, %g4
40004e9c:	37 10 00 50 	sethi  %hi(0x40014000), %i3
40004ea0:	b6 16 e0 00 	mov  %i3, %i3	! 40014000 <powers_of_10>
40004ea4:	d9 1e c0 02 	ldd  [ %i3 + %g2 ], %f12
40004ea8:	05 00 00 04 	sethi  %hi(0x1000), %g2
40004eac:	80 8f 40 02 	btst  %i5, %g2
40004eb0:	12 80 00 6d 	bne  40005064 <print_exponential_number+0x3f0>
40004eb4:	87 35 60 1f 	srl  %l5, 0x1f, %g3
40004eb8:	b2 10 20 00 	clr  %i1
40004ebc:	80 89 20 ff 	btst  0xff, %g4
40004ec0:	02 80 00 cf 	be  400051fc <print_exponential_number+0x588>
40004ec4:	80 a0 60 00 	cmp  %g1, 0
40004ec8:	32 80 00 8d 	bne,a   400050fc <print_exponential_number+0x488>
40004ecc:	91 a0 00 a8 	fnegs  %f8, %f8
40004ed0:	82 07 bf e8 	add  %fp, -24, %g1
40004ed4:	d1 3f bf c8 	std  %f8, [ %fp + -56 ]
40004ed8:	c2 23 a0 40 	st  %g1, [ %sp + 0x40 ]
40004edc:	d0 1f bf c8 	ldd  [ %fp + -56 ], %o0
40004ee0:	94 10 00 14 	mov  %l4, %o2
40004ee4:	7f ff fc e5 	call  40004278 <get_components>
40004ee8:	01 00 00 00 	nop 
40004eec:	00 00 00 18 	unimp  0x18
40004ef0:	80 a6 60 00 	cmp  %i1, 0
40004ef4:	f4 1f bf e8 	ldd  [ %fp + -24 ], %i2
40004ef8:	e2 07 bf f0 	ld  [ %fp + -16 ], %l1
40004efc:	e0 07 bf f4 	ld  [ %fp + -12 ], %l0
40004f00:	02 80 00 8d 	be  40005134 <print_exponential_number+0x4c0>
40004f04:	ec 0f bf f8 	ldub  [ %fp + -8 ], %l6
40004f08:	03 00 00 04 	sethi  %hi(0x1000), %g1
40004f0c:	80 8f 40 01 	btst  %i5, %g1
40004f10:	12 80 00 a2 	bne  40005198 <print_exponential_number+0x524>
40004f14:	80 a5 7f ff 	cmp  %l5, -1
40004f18:	90 10 00 1a 	mov  %i2, %o0
40004f1c:	96 10 00 10 	mov  %l0, %o3
40004f20:	94 10 00 11 	mov  %l1, %o2
40004f24:	b4 0f 60 02 	and  %i5, 2, %i2
40004f28:	92 10 00 1b 	mov  %i3, %o1
40004f2c:	a0 10 20 00 	clr  %l0
40004f30:	80 a7 00 10 	cmp  %i4, %l0
40004f34:	18 80 00 70 	bgu  400050f4 <print_exponential_number+0x480>
40004f38:	82 10 20 00 	clr  %g1
40004f3c:	c2 23 a0 60 	st  %g1, [ %sp + 0x60 ]
40004f40:	c2 07 a0 5c 	ld  [ %fp + 0x5c ], %g1
40004f44:	c2 23 a0 68 	st  %g1, [ %sp + 0x68 ]
40004f48:	c2 07 a0 60 	ld  [ %fp + 0x60 ], %g1
40004f4c:	f6 06 20 0c 	ld  [ %i0 + 0xc ], %i3
40004f50:	e8 23 a0 5c 	st  %l4, [ %sp + 0x5c ]
40004f54:	fa 23 a0 64 	st  %i5, [ %sp + 0x64 ]
40004f58:	c2 23 a0 6c 	st  %g1, [ %sp + 0x6c ]
40004f5c:	98 0d a0 ff 	and  %l6, 0xff, %o4
40004f60:	7f ff fe 79 	call  40004944 <print_broken_up_decimal.isra.4>
40004f64:	9a 10 00 18 	mov  %i0, %o5
40004f68:	80 a6 60 00 	cmp  %i1, 0
40004f6c:	12 80 00 5d 	bne  400050e0 <print_exponential_number+0x46c>
40004f70:	ba 0f 60 20 	and  %i5, 0x20, %i5
40004f74:	c4 06 20 0c 	ld  [ %i0 + 0xc ], %g2
40004f78:	82 00 a0 01 	add  %g2, 1, %g1
40004f7c:	c6 06 20 10 	ld  [ %i0 + 0x10 ], %g3
40004f80:	c2 26 20 0c 	st  %g1, [ %i0 + 0xc ]
40004f84:	80 a0 00 1d 	cmp  %g0, %i5
40004f88:	82 40 3f ff 	addx  %g0, -1, %g1
40004f8c:	82 08 60 20 	and  %g1, 0x20, %g1
40004f90:	80 a0 80 03 	cmp  %g2, %g3
40004f94:	86 00 60 45 	add  %g1, 0x45, %g3
40004f98:	1a 80 00 09 	bcc  40004fbc <print_exponential_number+0x348>
40004f9c:	82 10 00 03 	mov  %g3, %g1
40004fa0:	c8 06 00 00 	ld  [ %i0 ], %g4
40004fa4:	80 a1 20 00 	cmp  %g4, 0
40004fa8:	02 80 01 18 	be  40005408 <print_exponential_number+0x794>
40004fac:	91 28 60 18 	sll  %g1, 0x18, %o0
40004fb0:	d2 06 20 04 	ld  [ %i0 + 4 ], %o1
40004fb4:	9f c1 00 00 	call  %g4
40004fb8:	91 3a 20 18 	sra  %o0, 0x18, %o0
40004fbc:	86 10 00 15 	mov  %l5, %g3
40004fc0:	80 a5 60 00 	cmp  %l5, 0
40004fc4:	04 80 00 bb 	ble  400052b0 <print_exponential_number+0x63c>
40004fc8:	85 3d 60 1f 	sra  %l5, 0x1f, %g2
40004fcc:	82 10 20 05 	mov  5, %g1
40004fd0:	a0 04 3f ff 	add  %l0, -1, %l0
40004fd4:	c2 23 a0 60 	st  %g1, [ %sp + 0x60 ]
40004fd8:	e0 23 a0 5c 	st  %l0, [ %sp + 0x5c ]
40004fdc:	90 10 00 18 	mov  %i0, %o0
40004fe0:	92 10 00 02 	mov  %g2, %o1
40004fe4:	94 10 00 03 	mov  %g3, %o2
40004fe8:	97 35 60 1f 	srl  %l5, 0x1f, %o3
40004fec:	98 10 20 0a 	mov  0xa, %o4
40004ff0:	7f ff fd 6e 	call  400045a8 <print_integer>
40004ff4:	9a 10 20 00 	clr  %o5
40004ff8:	80 a6 a0 00 	cmp  %i2, 0
40004ffc:	02 80 00 39 	be  400050e0 <print_exponential_number+0x46c>
40005000:	ba 10 20 20 	mov  0x20, %i5
40005004:	c2 06 20 0c 	ld  [ %i0 + 0xc ], %g1
40005008:	86 20 40 1b 	sub  %g1, %i3, %g3
4000500c:	80 a7 00 03 	cmp  %i4, %g3
40005010:	08 80 00 34 	bleu  400050e0 <print_exponential_number+0x46c>
40005014:	84 00 60 01 	add  %g1, 1, %g2
40005018:	c4 26 20 0c 	st  %g2, [ %i0 + 0xc ]
4000501c:	c6 06 20 10 	ld  [ %i0 + 0x10 ], %g3
40005020:	80 a0 c0 01 	cmp  %g3, %g1
40005024:	28 80 00 2b 	bleu,a   400050d0 <print_exponential_number+0x45c>
40005028:	82 10 00 02 	mov  %g2, %g1
4000502c:	c4 06 00 00 	ld  [ %i0 ], %g2
40005030:	80 a0 a0 00 	cmp  %g2, 0
40005034:	02 80 00 2d 	be  400050e8 <print_exponential_number+0x474>
40005038:	90 10 20 20 	mov  0x20, %o0
4000503c:	9f c0 80 00 	call  %g2
40005040:	d2 06 20 04 	ld  [ %i0 + 4 ], %o1
40005044:	10 bf ff f1 	b  40005008 <print_exponential_number+0x394>
40005048:	c2 06 20 0c 	ld  [ %i0 + 0xc ], %g1
4000504c:	86 10 20 00 	clr  %g3
40005050:	aa 10 20 00 	clr  %l5
40005054:	05 00 00 04 	sethi  %hi(0x1000), %g2
40005058:	80 8f 40 02 	btst  %i5, %g2
4000505c:	02 bf ff 98 	be  40004ebc <print_exponential_number+0x248>
40005060:	b2 10 20 00 	clr  %i1
40005064:	80 a5 20 00 	cmp  %l4, 0
40005068:	12 80 00 04 	bne  40005078 <print_exponential_number+0x404>
4000506c:	84 10 00 14 	mov  %l4, %g2
40005070:	84 10 20 00 	clr  %g2
40005074:	a8 10 20 01 	mov  1, %l4
40005078:	80 a5 40 14 	cmp  %l5, %l4
4000507c:	16 80 00 41 	bge  40005180 <print_exponential_number+0x50c>
40005080:	b2 10 20 01 	mov  1, %i1
40005084:	80 a5 7f fc 	cmp  %l5, -4
40005088:	06 80 00 54 	bl  400051d8 <print_exponential_number+0x564>
4000508c:	b6 10 20 01 	mov  1, %i3
40005090:	b2 0e 40 1b 	and  %i1, %i3, %i1
40005094:	b2 8e 60 ff 	andcc  %i1, 0xff, %i1
40005098:	02 80 00 03 	be  400050a4 <print_exponential_number+0x430>
4000509c:	84 00 bf ff 	add  %g2, -1, %g2
400050a0:	84 20 80 15 	sub  %g2, %l5, %g2
400050a4:	a8 38 00 02 	xnor  %g0, %g2, %l4
400050a8:	ba 17 68 00 	or  %i5, 0x800, %i5
400050ac:	a9 3d 20 1f 	sra  %l4, 0x1f, %l4
400050b0:	80 a6 60 00 	cmp  %i1, 0
400050b4:	02 bf ff 82 	be  40004ebc <print_exponential_number+0x248>
400050b8:	a8 08 80 14 	and  %g2, %l4, %l4
400050bc:	80 a0 60 00 	cmp  %g1, 0
400050c0:	02 bf ff 85 	be  40004ed4 <print_exponential_number+0x260>
400050c4:	82 07 bf e8 	add  %fp, -24, %g1
400050c8:	10 80 00 0e 	b  40005100 <print_exponential_number+0x48c>
400050cc:	91 a0 00 a8 	fnegs  %f8, %f8
400050d0:	86 20 40 1b 	sub  %g1, %i3, %g3
400050d4:	80 a7 00 03 	cmp  %i4, %g3
400050d8:	18 bf ff d0 	bgu  40005018 <print_exponential_number+0x3a4>
400050dc:	84 00 60 01 	add  %g1, 1, %g2
400050e0:	81 c7 e0 08 	ret 
400050e4:	81 e8 00 00 	restore 
400050e8:	c4 06 20 08 	ld  [ %i0 + 8 ], %g2
400050ec:	10 bf ff c6 	b  40005004 <print_exponential_number+0x390>
400050f0:	fa 28 80 01 	stb  %i5, [ %g2 + %g1 ]
400050f4:	10 bf ff 92 	b  40004f3c <print_exponential_number+0x2c8>
400050f8:	82 27 00 10 	sub  %i4, %l0, %g1
400050fc:	82 07 bf e8 	add  %fp, -24, %g1
40005100:	d1 3f bf c8 	std  %f8, [ %fp + -56 ]
40005104:	c2 23 a0 40 	st  %g1, [ %sp + 0x40 ]
40005108:	d0 1f bf c8 	ldd  [ %fp + -56 ], %o0
4000510c:	94 10 00 14 	mov  %l4, %o2
40005110:	7f ff fc 5a 	call  40004278 <get_components>
40005114:	01 00 00 00 	nop 
40005118:	00 00 00 18 	unimp  0x18
4000511c:	80 a6 60 00 	cmp  %i1, 0
40005120:	f4 1f bf e8 	ldd  [ %fp + -24 ], %i2
40005124:	e2 07 bf f0 	ld  [ %fp + -16 ], %l1
40005128:	e0 07 bf f4 	ld  [ %fp + -12 ], %l0
4000512c:	12 bf ff 77 	bne  40004f08 <print_exponential_number+0x294>
40005130:	ec 0f bf f8 	ldub  [ %fp + -8 ], %l6
40005134:	90 10 00 1a 	mov  %i2, %o0
40005138:	94 10 00 11 	mov  %l1, %o2
4000513c:	92 10 00 1b 	mov  %i3, %o1
40005140:	80 a2 20 00 	cmp  %o0, 0
40005144:	14 80 00 48 	bg  40005264 <print_exponential_number+0x5f0>
40005148:	96 10 00 10 	mov  %l0, %o3
4000514c:	80 a2 20 00 	cmp  %o0, 0
40005150:	02 80 00 aa 	be  400053f8 <print_exponential_number+0x784>
40005154:	80 a2 60 09 	cmp  %o1, 9
40005158:	82 05 60 63 	add  %l5, 0x63, %g1
4000515c:	80 a0 60 c6 	cmp  %g1, 0xc6
40005160:	18 80 00 03 	bgu  4000516c <print_exponential_number+0x4f8>
40005164:	a0 10 20 05 	mov  5, %l0
40005168:	a0 10 20 04 	mov  4, %l0
4000516c:	b4 8f 60 02 	andcc  %i5, 2, %i2
40005170:	12 bf ff 73 	bne  40004f3c <print_exponential_number+0x2c8>
40005174:	82 10 20 00 	clr  %g1
40005178:	10 bf ff 6f 	b  40004f34 <print_exponential_number+0x2c0>
4000517c:	80 a7 00 10 	cmp  %i4, %l0
40005180:	b2 10 20 00 	clr  %i1
40005184:	80 a5 7f fc 	cmp  %l5, -4
40005188:	16 bf ff c2 	bge  40005090 <print_exponential_number+0x41c>
4000518c:	b6 10 20 01 	mov  1, %i3
40005190:	10 80 00 13 	b  400051dc <print_exponential_number+0x568>
40005194:	b6 10 20 00 	clr  %i3
40005198:	06 bf ff 60 	bl  40004f18 <print_exponential_number+0x2a4>
4000519c:	90 10 00 1a 	mov  %i2, %o0
400051a0:	40 00 0f bc 	call  40009090 <__floatdidf>
400051a4:	92 10 00 1b 	mov  %i3, %o1
400051a8:	a4 05 60 01 	add  %l5, 1, %l2
400051ac:	05 10 00 50 	sethi  %hi(0x40014000), %g2
400051b0:	83 2c a0 03 	sll  %l2, 3, %g1
400051b4:	84 10 a0 00 	mov  %g2, %g2
400051b8:	d1 18 80 01 	ldd  [ %g2 + %g1 ], %f8
400051bc:	81 a8 0a 48 	fcmpd  %f0, %f8
400051c0:	01 00 00 00 	nop 
400051c4:	03 bf ff 56 	fbne  40004f1c <print_exponential_number+0x2a8>
400051c8:	90 10 00 1a 	mov  %i2, %o0
400051cc:	a8 05 3f ff 	add  %l4, -1, %l4
400051d0:	10 bf ff 53 	b  40004f1c <print_exponential_number+0x2a8>
400051d4:	aa 10 00 12 	mov  %l2, %l5
400051d8:	b6 10 20 00 	clr  %i3
400051dc:	b2 0e 40 1b 	and  %i1, %i3, %i1
400051e0:	b2 8e 60 ff 	andcc  %i1, 0xff, %i1
400051e4:	02 bf ff b0 	be  400050a4 <print_exponential_number+0x430>
400051e8:	84 00 bf ff 	add  %g2, -1, %g2
400051ec:	10 bf ff ae 	b  400050a4 <print_exponential_number+0x430>
400051f0:	84 20 80 15 	sub  %g2, %l5, %g2
400051f4:	81 c7 e0 08 	ret 
400051f8:	81 e8 00 00 	restore 
400051fc:	b6 88 e0 ff 	andcc  %g3, 0xff, %i3
40005200:	02 80 00 3d 	be  400052f4 <print_exponential_number+0x680>
40005204:	84 25 00 15 	sub  %l4, %l5, %g2
40005208:	80 a0 a1 32 	cmp  %g2, 0x132
4000520c:	04 80 00 3d 	ble  40005300 <print_exponential_number+0x68c>
40005210:	95 a2 09 4c 	fmuld  %f8, %f12, %f10
40005214:	80 a0 60 00 	cmp  %g1, 0
40005218:	32 80 00 02 	bne,a   40005220 <print_exponential_number+0x5ac>
4000521c:	95 a0 00 aa 	fnegs  %f10, %f10
40005220:	82 07 bf e8 	add  %fp, -24, %g1
40005224:	d5 3f bf c8 	std  %f10, [ %fp + -56 ]
40005228:	c2 23 a0 40 	st  %g1, [ %sp + 0x40 ]
4000522c:	d0 1f bf c8 	ldd  [ %fp + -56 ], %o0
40005230:	94 10 00 14 	mov  %l4, %o2
40005234:	7f ff fc 11 	call  40004278 <get_components>
40005238:	01 00 00 00 	nop 
4000523c:	00 00 00 18 	unimp  0x18
40005240:	e0 1f bf e8 	ldd  [ %fp + -24 ], %l0
40005244:	f4 1f bf f0 	ldd  [ %fp + -16 ], %i2
40005248:	ec 0f bf f8 	ldub  [ %fp + -8 ], %l6
4000524c:	90 10 00 10 	mov  %l0, %o0
40005250:	92 10 00 11 	mov  %l1, %o1
40005254:	94 10 00 1a 	mov  %i2, %o2
40005258:	80 a2 20 00 	cmp  %o0, 0
4000525c:	04 bf ff bd 	ble  40005150 <print_exponential_number+0x4dc>
40005260:	96 10 00 1b 	mov  %i3, %o3
40005264:	aa 05 60 01 	inc  %l5
40005268:	94 10 20 00 	clr  %o2
4000526c:	96 10 20 00 	clr  %o3
40005270:	90 10 20 00 	clr  %o0
40005274:	10 bf ff b9 	b  40005158 <print_exponential_number+0x4e4>
40005278:	92 10 20 01 	mov  1, %o1
4000527c:	9b a0 00 2b 	fmovs  %f11, %f13
40005280:	88 10 20 00 	clr  %g4
40005284:	10 bf ff 74 	b  40005054 <print_exponential_number+0x3e0>
40005288:	86 10 20 00 	clr  %g3
4000528c:	97 a0 1a 4c 	fdtoi  %f12, %f11
40005290:	d7 27 bf bc 	st  %f11, [ %fp + -68 ]
40005294:	95 a0 19 0b 	fitod  %f11, %f10
40005298:	81 ab 0a 4a 	fcmpd  %f12, %f10
4000529c:	01 00 00 00 	nop 
400052a0:	13 bf fe b7 	fbe  40004d7c <print_exponential_number+0x108>
400052a4:	ea 07 bf bc 	ld  [ %fp + -68 ], %l5
400052a8:	10 bf fe b5 	b  40004d7c <print_exponential_number+0x108>
400052ac:	aa 05 7f ff 	add  %l5, -1, %l5
400052b0:	86 a0 00 15 	subcc  %g0, %l5, %g3
400052b4:	82 10 20 05 	mov  5, %g1
400052b8:	84 60 00 02 	subx  %g0, %g2, %g2
400052bc:	a0 04 3f ff 	add  %l0, -1, %l0
400052c0:	c2 23 a0 60 	st  %g1, [ %sp + 0x60 ]
400052c4:	e0 23 a0 5c 	st  %l0, [ %sp + 0x5c ]
400052c8:	90 10 00 18 	mov  %i0, %o0
400052cc:	92 10 00 02 	mov  %g2, %o1
400052d0:	94 10 00 03 	mov  %g3, %o2
400052d4:	97 35 60 1f 	srl  %l5, 0x1f, %o3
400052d8:	98 10 20 0a 	mov  0xa, %o4
400052dc:	7f ff fc b3 	call  400045a8 <print_integer>
400052e0:	9a 10 20 00 	clr  %o5
400052e4:	80 a6 a0 00 	cmp  %i2, 0
400052e8:	12 bf ff 47 	bne  40005004 <print_exponential_number+0x390>
400052ec:	ba 10 20 20 	mov  0x20, %i5
400052f0:	30 bf ff c1 	b,a   400051f4 <print_exponential_number+0x580>
400052f4:	80 a0 a1 32 	cmp  %g2, 0x132
400052f8:	14 bf ff c7 	bg  40005214 <print_exponential_number+0x5a0>
400052fc:	95 a2 09 cc 	fdivd  %f8, %f12, %f10
40005300:	d5 3f bf c8 	std  %f10, [ %fp + -56 ]
40005304:	d1 3f bf d8 	std  %f8, [ %fp + -40 ]
40005308:	d9 3f bf d0 	std  %f12, [ %fp + -48 ]
4000530c:	40 00 0f 03 	call  40008f18 <__fixdfdi>
40005310:	d0 1f bf c8 	ldd  [ %fp + -56 ], %o0
40005314:	a0 10 00 08 	mov  %o0, %l0
40005318:	40 00 0f 5e 	call  40009090 <__floatdidf>
4000531c:	a2 10 00 09 	mov  %o1, %l1
40005320:	80 a6 e0 00 	cmp  %i3, 0
40005324:	d1 1f bf d8 	ldd  [ %fp + -40 ], %f8
40005328:	02 80 00 4f 	be  40005464 <print_exponential_number+0x7f0>
4000532c:	d9 1f bf d0 	ldd  [ %fp + -48 ], %f12
40005330:	81 a0 09 cc 	fdivd  %f0, %f12, %f0
40005334:	83 2d 20 03 	sll  %l4, 3, %g1
40005338:	05 10 00 50 	sethi  %hi(0x40014000), %g2
4000533c:	91 a2 08 c0 	fsubd  %f8, %f0, %f8
40005340:	84 10 a0 00 	mov  %g2, %g2
40005344:	d5 18 80 01 	ldd  [ %g2 + %g1 ], %f10
40005348:	d5 3f bf e0 	std  %f10, [ %fp + -32 ]
4000534c:	99 a3 09 4a 	fmuld  %f12, %f10, %f12
40005350:	91 a2 09 4c 	fmuld  %f8, %f12, %f8
40005354:	d1 3f bf c8 	std  %f8, [ %fp + -56 ]
40005358:	d1 3f bf d8 	std  %f8, [ %fp + -40 ]
4000535c:	40 00 0e ef 	call  40008f18 <__fixdfdi>
40005360:	d0 1f bf c8 	ldd  [ %fp + -56 ], %o0
40005364:	a4 10 00 08 	mov  %o0, %l2
40005368:	40 00 0f 4a 	call  40009090 <__floatdidf>
4000536c:	a6 10 00 09 	mov  %o1, %l3
40005370:	d1 1f bf d8 	ldd  [ %fp + -40 ], %f8
40005374:	03 10 00 50 	sethi  %hi(0x40014000), %g1
40005378:	81 a2 08 c0 	fsubd  %f8, %f0, %f0
4000537c:	84 10 20 00 	clr  %g2
40005380:	d1 18 61 90 	ldd  [ %g1 + 0x190 ], %f8
40005384:	81 a8 0a c8 	fcmped  %f0, %f8
40005388:	01 00 00 00 	nop 
4000538c:	17 80 00 05 	fbge  400053a0 <print_exponential_number+0x72c>
40005390:	86 10 20 01 	mov  1, %g3	! 1 <__DYNAMIC+0x1>
40005394:	84 10 20 00 	clr  %g2
40005398:	86 10 20 00 	clr  %g3
4000539c:	d1 18 61 90 	ldd  [ %g1 + 0x190 ], %f8
400053a0:	b6 84 c0 03 	addcc  %l3, %g3, %i3
400053a4:	81 a8 0a 48 	fcmpd  %f0, %f8
400053a8:	01 00 00 00 	nop 
400053ac:	03 80 00 04 	fbne  400053bc <print_exponential_number+0x748>
400053b0:	b4 44 80 02 	addx  %l2, %g2, %i2
400053b4:	b4 0e bf ff 	and  %i2, -1, %i2
400053b8:	b6 0e ff fe 	and  %i3, -2, %i3
400053bc:	90 10 00 1a 	mov  %i2, %o0
400053c0:	40 00 0f 34 	call  40009090 <__floatdidf>
400053c4:	92 10 00 1b 	mov  %i3, %o1
400053c8:	d9 1f bf e0 	ldd  [ %fp + -32 ], %f12
400053cc:	81 a8 0a cc 	fcmped  %f0, %f12
400053d0:	01 00 00 00 	nop 
400053d4:	07 bf ff 9e 	fbul  4000524c <print_exponential_number+0x5d8>
400053d8:	01 00 00 00 	nop 
400053dc:	86 84 60 01 	addcc  %l1, 1, %g3
400053e0:	b4 10 20 00 	clr  %i2
400053e4:	84 44 20 00 	addx  %l0, 0, %g2
400053e8:	a2 10 00 03 	mov  %g3, %l1
400053ec:	a0 10 00 02 	mov  %g2, %l0
400053f0:	10 bf ff 97 	b  4000524c <print_exponential_number+0x5d8>
400053f4:	b6 10 20 00 	clr  %i3
400053f8:	08 bf ff 59 	bleu  4000515c <print_exponential_number+0x4e8>
400053fc:	82 05 60 63 	add  %l5, 0x63, %g1
40005400:	10 bf ff 9a 	b  40005268 <print_exponential_number+0x5f4>
40005404:	aa 05 60 01 	inc  %l5
40005408:	c2 06 20 08 	ld  [ %i0 + 8 ], %g1
4000540c:	c6 28 40 02 	stb  %g3, [ %g1 + %g2 ]
40005410:	80 a5 60 00 	cmp  %l5, 0
40005414:	86 10 00 15 	mov  %l5, %g3
40005418:	14 bf fe ed 	bg  40004fcc <print_exponential_number+0x358>
4000541c:	85 3d 60 1f 	sra  %l5, 0x1f, %g2
40005420:	10 bf ff a5 	b  400052b4 <print_exponential_number+0x640>
40005424:	86 a0 00 15 	subcc  %g0, %l5, %g3
40005428:	97 a0 1a 4c 	fdtoi  %f12, %f11
4000542c:	d7 27 bf bc 	st  %f11, [ %fp + -68 ]
40005430:	a1 a0 19 0b 	fitod  %f11, %f16
40005434:	81 ab 0a 50 	fcmpd  %f12, %f16
40005438:	01 00 00 00 	nop 
4000543c:	13 bf fe 64 	fbe  40004dcc <print_exponential_number+0x158>
40005440:	c4 07 bf bc 	ld  [ %fp + -68 ], %g2
40005444:	84 00 bf ff 	add  %g2, -1, %g2
40005448:	c4 27 bf bc 	st  %g2, [ %fp + -68 ]
4000544c:	d9 07 bf bc 	ld  [ %fp + -68 ], %f12
40005450:	10 bf fe 5f 	b  40004dcc <print_exponential_number+0x158>
40005454:	a1 a0 19 0c 	fitod  %f12, %f16
40005458:	05 10 00 50 	sethi  %hi(0x40014000), %g2
4000545c:	10 bf fe 7e 	b  40004e54 <print_exponential_number+0x1e0>
40005460:	d5 18 a1 98 	ldd  [ %g2 + 0x198 ], %f10	! 40014198 <__clz_tab+0x108>
40005464:	83 2d 20 03 	sll  %l4, 3, %g1
40005468:	05 10 00 50 	sethi  %hi(0x40014000), %g2
4000546c:	d9 27 bf bc 	st  %f12, [ %fp + -68 ]
40005470:	84 10 a0 00 	mov  %g2, %g2
40005474:	e1 18 80 01 	ldd  [ %g2 + %g1 ], %f16
40005478:	c2 07 bf bc 	ld  [ %fp + -68 ], %g1
4000547c:	e1 3f bf e0 	std  %f16, [ %fp + -32 ]
40005480:	b7 30 60 14 	srl  %g1, 0x14, %i3
40005484:	c2 07 bf e0 	ld  [ %fp + -32 ], %g1
40005488:	b6 0e e7 ff 	and  %i3, 0x7ff, %i3
4000548c:	87 30 60 14 	srl  %g1, 0x14, %g3
40005490:	82 06 fc 01 	add  %i3, -1023, %g1
40005494:	86 08 e7 ff 	and  %g3, 0x7ff, %g3
40005498:	89 38 60 1f 	sra  %g1, 0x1f, %g4
4000549c:	84 00 fc 01 	add  %g3, -1023, %g2
400054a0:	81 a3 09 40 	fmuld  %f12, %f0, %f0
400054a4:	86 19 00 01 	xor  %g4, %g1, %g3
400054a8:	83 38 a0 1f 	sra  %g2, 0x1f, %g1
400054ac:	88 20 c0 04 	sub  %g3, %g4, %g4
400054b0:	84 18 40 02 	xor  %g1, %g2, %g2
400054b4:	82 20 80 01 	sub  %g2, %g1, %g1
400054b8:	80 a1 00 01 	cmp  %g4, %g1
400054bc:	04 80 00 05 	ble  400054d0 <print_exponential_number+0x85c>
400054c0:	91 a2 08 c0 	fsubd  %f8, %f0, %f8
400054c4:	99 a3 09 d0 	fdivd  %f12, %f16, %f12
400054c8:	10 bf ff a3 	b  40005354 <print_exponential_number+0x6e0>
400054cc:	91 a2 09 cc 	fdivd  %f8, %f12, %f8
400054d0:	d5 1f bf e0 	ldd  [ %fp + -32 ], %f10
400054d4:	10 bf ff 9f 	b  40005350 <print_exponential_number+0x6dc>
400054d8:	99 a2 89 cc 	fdivd  %f10, %f12, %f12

400054dc <print_floating_point>:
400054dc:	9d e3 bf 48 	save  %sp, -184, %sp
400054e0:	f2 27 bf c0 	st  %i1, [ %fp + -64 ]
400054e4:	f4 27 bf c4 	st  %i2, [ %fp + -60 ]
400054e8:	d1 1f bf c0 	ldd  [ %fp + -64 ], %f8
400054ec:	81 aa 0a 48 	fcmpd  %f8, %f8
400054f0:	01 00 00 00 	nop 
400054f4:	03 80 00 40 	fbne  400055f4 <print_floating_point+0x118>
400054f8:	c6 0f a0 5f 	ldub  [ %fp + 0x5f ], %g3
400054fc:	03 10 00 50 	sethi  %hi(0x40014000), %g1
40005500:	d5 18 62 18 	ldd  [ %g1 + 0x218 ], %f10	! 40014218 <__clz_tab+0x188>
40005504:	81 aa 0a ca 	fcmped  %f8, %f10
40005508:	01 00 00 00 	nop 
4000550c:	09 80 00 43 	fbl  40005618 <print_floating_point+0x13c>
40005510:	03 10 00 50 	sethi  %hi(0x40014000), %g1
40005514:	d5 18 62 20 	ldd  [ %g1 + 0x220 ], %f10	! 40014220 <__clz_tab+0x190>
40005518:	81 aa 0a ca 	fcmped  %f8, %f10
4000551c:	01 00 00 00 	nop 
40005520:	1d 80 00 0e 	fbule  40005558 <print_floating_point+0x7c>
40005524:	01 00 00 00 	nop 
40005528:	80 8f 60 04 	btst  4, %i5
4000552c:	12 80 00 52 	bne  40005674 <print_floating_point+0x198>
40005530:	94 10 20 04 	mov  4, %o2
40005534:	94 10 20 03 	mov  3, %o2
40005538:	13 10 00 50 	sethi  %hi(0x40014000), %o1
4000553c:	90 10 00 18 	mov  %i0, %o0
40005540:	92 12 62 40 	or  %o1, 0x240, %o1
40005544:	96 10 00 1c 	mov  %i4, %o3
40005548:	7f ff fb c1 	call  4000444c <out_rev_>
4000554c:	98 10 00 1d 	mov  %i5, %o4
40005550:	81 c7 e0 08 	ret 
40005554:	81 e8 00 00 	restore 
40005558:	80 a0 e0 00 	cmp  %g3, 0
4000555c:	02 80 00 38 	be  4000563c <print_floating_point+0x160>
40005560:	03 10 00 50 	sethi  %hi(0x40014000), %g1
40005564:	80 8f 68 00 	btst  0x800, %i5
40005568:	02 80 00 4b 	be  40005694 <print_floating_point+0x1b8>
4000556c:	b4 10 20 00 	clr  %i2
40005570:	80 a6 e0 11 	cmp  %i3, 0x11
40005574:	08 80 00 10 	bleu  400055b4 <print_floating_point+0xd8>
40005578:	b2 07 bf e0 	add  %fp, -32, %i1
4000557c:	10 80 00 09 	b  400055a0 <print_floating_point+0xc4>
40005580:	84 10 20 30 	mov  0x30, %g2
40005584:	80 a6 e0 11 	cmp  %i3, 0x11
40005588:	18 80 00 03 	bgu  40005594 <print_floating_point+0xb8>
4000558c:	82 10 20 01 	mov  1, %g1
40005590:	82 10 20 00 	clr  %g1
40005594:	80 88 60 ff 	btst  0xff, %g1
40005598:	02 80 00 08 	be  400055b8 <print_floating_point+0xdc>
4000559c:	80 a0 e0 00 	cmp  %g3, 0
400055a0:	c4 2e 40 1a 	stb  %g2, [ %i1 + %i2 ]
400055a4:	b4 06 a0 01 	inc  %i2
400055a8:	80 a6 a0 1f 	cmp  %i2, 0x1f
400055ac:	08 bf ff f6 	bleu  40005584 <print_floating_point+0xa8>
400055b0:	b6 06 ff ff 	add  %i3, -1, %i3
400055b4:	80 a0 e0 00 	cmp  %g3, 0
400055b8:	02 80 00 3a 	be  400056a0 <print_floating_point+0x1c4>
400055bc:	82 07 bf c8 	add  %fp, -56, %g1
400055c0:	f2 23 a0 5c 	st  %i1, [ %sp + 0x5c ]
400055c4:	f4 23 a0 60 	st  %i2, [ %sp + 0x60 ]
400055c8:	d1 3f bf c0 	std  %f8, [ %fp + -64 ]
400055cc:	c4 1f bf c0 	ldd  [ %fp + -64 ], %g2
400055d0:	90 10 00 18 	mov  %i0, %o0
400055d4:	92 10 00 02 	mov  %g2, %o1
400055d8:	94 10 00 03 	mov  %g3, %o2
400055dc:	96 10 00 1b 	mov  %i3, %o3
400055e0:	98 10 00 1c 	mov  %i4, %o4
400055e4:	7f ff fd a4 	call  40004c74 <print_exponential_number>
400055e8:	9a 10 00 1d 	mov  %i5, %o5
400055ec:	81 c7 e0 08 	ret 
400055f0:	81 e8 00 00 	restore 
400055f4:	90 10 00 18 	mov  %i0, %o0
400055f8:	13 10 00 50 	sethi  %hi(0x40014000), %o1
400055fc:	94 10 20 03 	mov  3, %o2
40005600:	92 12 62 48 	or  %o1, 0x248, %o1
40005604:	96 10 00 1c 	mov  %i4, %o3
40005608:	7f ff fb 91 	call  4000444c <out_rev_>
4000560c:	98 10 00 1d 	mov  %i5, %o4
40005610:	81 c7 e0 08 	ret 
40005614:	81 e8 00 00 	restore 
40005618:	90 10 00 18 	mov  %i0, %o0
4000561c:	13 10 00 50 	sethi  %hi(0x40014000), %o1
40005620:	94 10 20 04 	mov  4, %o2
40005624:	92 12 62 50 	or  %o1, 0x250, %o1
40005628:	96 10 00 1c 	mov  %i4, %o3
4000562c:	7f ff fb 88 	call  4000444c <out_rev_>
40005630:	98 10 00 1d 	mov  %i5, %o4
40005634:	81 c7 e0 08 	ret 
40005638:	81 e8 00 00 	restore 
4000563c:	d5 18 62 28 	ldd  [ %g1 + 0x228 ], %f10
40005640:	81 aa 0a ca 	fcmped  %f8, %f10
40005644:	01 00 00 00 	nop 
40005648:	0d 80 00 07 	fbg  40005664 <print_floating_point+0x188>
4000564c:	03 10 00 50 	sethi  %hi(0x40014000), %g1
40005650:	d5 18 62 30 	ldd  [ %g1 + 0x230 ], %f10	! 40014230 <__clz_tab+0x1a0>
40005654:	81 aa 0a ca 	fcmped  %f8, %f10
40005658:	01 00 00 00 	nop 
4000565c:	19 bf ff c2 	fbuge  40005564 <print_floating_point+0x88>
40005660:	01 00 00 00 	nop 
40005664:	82 07 bf e0 	add  %fp, -32, %g1
40005668:	c0 23 a0 60 	clr  [ %sp + 0x60 ]
4000566c:	10 bf ff d7 	b  400055c8 <print_floating_point+0xec>
40005670:	c2 23 a0 5c 	st  %g1, [ %sp + 0x5c ]
40005674:	13 10 00 50 	sethi  %hi(0x40014000), %o1
40005678:	90 10 00 18 	mov  %i0, %o0
4000567c:	92 12 62 38 	or  %o1, 0x238, %o1
40005680:	96 10 00 1c 	mov  %i4, %o3
40005684:	7f ff fb 72 	call  4000444c <out_rev_>
40005688:	98 10 00 1d 	mov  %i5, %o4
4000568c:	81 c7 e0 08 	ret 
40005690:	81 e8 00 00 	restore 
40005694:	b6 10 20 06 	mov  6, %i3
40005698:	10 bf ff c7 	b  400055b4 <print_floating_point+0xd8>
4000569c:	b2 07 bf e0 	add  %fp, -32, %i1
400056a0:	d1 3f bf c0 	std  %f8, [ %fp + -64 ]
400056a4:	94 10 00 1b 	mov  %i3, %o2
400056a8:	d0 1f bf c0 	ldd  [ %fp + -64 ], %o0
400056ac:	c2 23 a0 40 	st  %g1, [ %sp + 0x40 ]
400056b0:	7f ff fa f2 	call  40004278 <get_components>
400056b4:	01 00 00 00 	nop 
400056b8:	00 00 00 18 	unimp  0x18
400056bc:	d0 1f bf c8 	ldd  [ %fp + -56 ], %o0
400056c0:	d8 0f bf d8 	ldub  [ %fp + -40 ], %o4
400056c4:	f6 23 a0 5c 	st  %i3, [ %sp + 0x5c ]
400056c8:	f8 23 a0 60 	st  %i4, [ %sp + 0x60 ]
400056cc:	fa 23 a0 64 	st  %i5, [ %sp + 0x64 ]
400056d0:	f2 23 a0 68 	st  %i1, [ %sp + 0x68 ]
400056d4:	f4 23 a0 6c 	st  %i2, [ %sp + 0x6c ]
400056d8:	d4 1f bf d0 	ldd  [ %fp + -48 ], %o2
400056dc:	7f ff fc 9a 	call  40004944 <print_broken_up_decimal.isra.4>
400056e0:	9a 10 00 18 	mov  %i0, %o5
400056e4:	81 c7 e0 08 	ret 
400056e8:	81 e8 00 00 	restore 

400056ec <_vsnprintf>:
400056ec:	9d e3 bf 48 	save  %sp, -184, %sp
400056f0:	25 00 00 08 	sethi  %hi(0x2000), %l2
400056f4:	27 10 00 50 	sethi  %hi(0x40014000), %l3
400056f8:	29 1f ff ff 	sethi  %hi(0x7ffffc00), %l4
400056fc:	2d 10 00 50 	sethi  %hi(0x40014000), %l6
40005700:	2b 00 00 3f 	sethi  %hi(0xfc00), %l5
40005704:	a4 14 a0 01 	or  %l2, 1, %l2
40005708:	a6 14 e2 60 	or  %l3, 0x260, %l3
4000570c:	a8 15 23 ff 	or  %l4, 0x3ff, %l4
40005710:	ac 15 a2 58 	or  %l6, 0x258, %l6
40005714:	aa 15 63 ff 	or  %l5, 0x3ff, %l5
40005718:	d0 4e 40 00 	ldsb  [ %i1 ], %o0
4000571c:	80 a2 20 00 	cmp  %o0, 0
40005720:	02 80 00 17 	be  4000577c <_vsnprintf+0x90>
40005724:	c6 0e 40 00 	ldub  [ %i1 ], %g3
40005728:	80 a2 20 25 	cmp  %o0, 0x25
4000572c:	22 80 00 1b 	be,a   40005798 <_vsnprintf+0xac>
40005730:	b2 06 60 02 	add  %i1, 2, %i1
40005734:	c2 06 20 0c 	ld  [ %i0 + 0xc ], %g1
40005738:	84 00 60 01 	add  %g1, 1, %g2
4000573c:	c4 26 20 0c 	st  %g2, [ %i0 + 0xc ]
40005740:	c4 06 20 10 	ld  [ %i0 + 0x10 ], %g2
40005744:	80 a0 40 02 	cmp  %g1, %g2
40005748:	3a 80 00 09 	bcc,a   4000576c <_vsnprintf+0x80>
4000574c:	b2 06 60 01 	inc  %i1
40005750:	c4 06 00 00 	ld  [ %i0 ], %g2
40005754:	80 a0 a0 00 	cmp  %g2, 0
40005758:	22 80 00 67 	be,a   400058f4 <_vsnprintf+0x208>
4000575c:	c4 06 20 08 	ld  [ %i0 + 8 ], %g2
40005760:	9f c0 80 00 	call  %g2
40005764:	d2 06 20 04 	ld  [ %i0 + 4 ], %o1
40005768:	b2 06 60 01 	inc  %i1
4000576c:	d0 4e 40 00 	ldsb  [ %i1 ], %o0
40005770:	80 a2 20 00 	cmp  %o0, 0
40005774:	12 bf ff ed 	bne  40005728 <_vsnprintf+0x3c>
40005778:	c6 0e 40 00 	ldub  [ %i1 ], %g3
4000577c:	c2 06 00 00 	ld  [ %i0 ], %g1
40005780:	80 a0 60 00 	cmp  %g1, 0
40005784:	22 80 01 ca 	be,a   40005eac <_vsnprintf+0x7c0>
40005788:	c2 06 20 10 	ld  [ %i0 + 0x10 ], %g1
4000578c:	f0 06 20 0c 	ld  [ %i0 + 0xc ], %i0
40005790:	81 c7 e0 08 	ret 
40005794:	81 e8 00 00 	restore 
40005798:	b6 10 20 00 	clr  %i3
4000579c:	09 10 00 10 	sethi  %hi(0x40004000), %g4
400057a0:	c2 0e 7f ff 	ldub  [ %i1 + -1 ], %g1
400057a4:	84 00 7f e0 	add  %g1, -32, %g2
400057a8:	84 08 a0 ff 	and  %g2, 0xff, %g2
400057ac:	80 a0 a0 10 	cmp  %g2, 0x10
400057b0:	08 80 00 3d 	bleu  400058a4 <_vsnprintf+0x1b8>
400057b4:	ba 06 7f ff 	add  %i1, -1, %i5
400057b8:	84 00 7f d0 	add  %g1, -48, %g2
400057bc:	84 08 a0 ff 	and  %g2, 0xff, %g2
400057c0:	80 a0 a0 09 	cmp  %g2, 9
400057c4:	18 80 00 4f 	bgu  40005900 <_vsnprintf+0x214>
400057c8:	86 10 00 1d 	mov  %i5, %g3
400057cc:	b8 10 20 00 	clr  %i4
400057d0:	84 07 00 1c 	add  %i4, %i4, %g2
400057d4:	83 28 60 18 	sll  %g1, 0x18, %g1
400057d8:	83 38 60 18 	sra  %g1, 0x18, %g1
400057dc:	b9 2f 20 03 	sll  %i4, 3, %i4
400057e0:	ba 07 60 01 	inc  %i5
400057e4:	b8 00 80 1c 	add  %g2, %i4, %i4
400057e8:	b8 07 00 01 	add  %i4, %g1, %i4
400057ec:	c2 0f 40 00 	ldub  [ %i5 ], %g1
400057f0:	84 00 7f d0 	add  %g1, -48, %g2
400057f4:	84 08 a0 ff 	and  %g2, 0xff, %g2
400057f8:	80 a0 a0 09 	cmp  %g2, 9
400057fc:	08 bf ff f5 	bleu  400057d0 <_vsnprintf+0xe4>
40005800:	b8 07 3f d0 	add  %i4, -48, %i4
40005804:	85 28 60 18 	sll  %g1, 0x18, %g2
40005808:	85 38 a0 18 	sra  %g2, 0x18, %g2
4000580c:	80 a0 a0 2e 	cmp  %g2, 0x2e
40005810:	02 80 00 4d 	be  40005944 <_vsnprintf+0x258>
40005814:	a0 10 20 00 	clr  %l0
40005818:	84 00 7f 98 	add  %g1, -104, %g2
4000581c:	84 08 a0 ff 	and  %g2, 0xff, %g2
40005820:	80 a0 a0 12 	cmp  %g2, 0x12
40005824:	38 80 00 0c 	bgu,a   40005854 <_vsnprintf+0x168>
40005828:	84 00 7f db 	add  %g1, -37, %g2
4000582c:	85 28 a0 02 	sll  %g2, 2, %g2
40005830:	07 10 00 10 	sethi  %hi(0x40004000), %g3
40005834:	86 10 e2 2c 	or  %g3, 0x22c, %g3	! 4000422c <cortos_init_sw_traps+0x1a0>
40005838:	c4 00 c0 02 	ld  [ %g3 + %g2 ], %g2
4000583c:	81 c0 80 00 	jmp  %g2
40005840:	01 00 00 00 	nop 
40005844:	c2 0f 60 01 	ldub  [ %i5 + 1 ], %g1
40005848:	b6 16 e2 00 	or  %i3, 0x200, %i3
4000584c:	ba 07 60 01 	inc  %i5
40005850:	84 00 7f db 	add  %g1, -37, %g2
40005854:	84 08 a0 ff 	and  %g2, 0xff, %g2
40005858:	80 a0 a0 53 	cmp  %g2, 0x53
4000585c:	08 80 00 35 	bleu  40005930 <_vsnprintf+0x244>
40005860:	85 28 a0 02 	sll  %g2, 2, %g2
40005864:	c4 06 20 0c 	ld  [ %i0 + 0xc ], %g2
40005868:	86 00 a0 01 	add  %g2, 1, %g3
4000586c:	c6 26 20 0c 	st  %g3, [ %i0 + 0xc ]
40005870:	c6 06 20 10 	ld  [ %i0 + 0x10 ], %g3
40005874:	80 a0 80 03 	cmp  %g2, %g3
40005878:	1a bf ff a8 	bcc  40005718 <_vsnprintf+0x2c>
4000587c:	b2 07 60 01 	add  %i5, 1, %i1
40005880:	c6 06 00 00 	ld  [ %i0 ], %g3
40005884:	80 a0 e0 00 	cmp  %g3, 0
40005888:	02 80 01 fe 	be  40006080 <_vsnprintf+0x994>
4000588c:	91 28 60 18 	sll  %g1, 0x18, %o0
40005890:	d2 06 20 04 	ld  [ %i0 + 4 ], %o1
40005894:	9f c0 c0 00 	call  %g3
40005898:	91 3a 20 18 	sra  %o0, 0x18, %o0
4000589c:	10 bf ff 9f 	b  40005718 <_vsnprintf+0x2c>
400058a0:	b2 07 60 01 	add  %i5, 1, %i1
400058a4:	86 11 21 e8 	or  %g4, 0x1e8, %g3
400058a8:	85 28 a0 02 	sll  %g2, 2, %g2
400058ac:	c4 00 c0 02 	ld  [ %g3 + %g2 ], %g2
400058b0:	81 c0 80 00 	jmp  %g2
400058b4:	01 00 00 00 	nop 
400058b8:	b6 16 e0 01 	or  %i3, 1, %i3
400058bc:	10 bf ff b9 	b  400057a0 <_vsnprintf+0xb4>
400058c0:	b2 06 60 01 	inc  %i1
400058c4:	b6 16 e0 02 	or  %i3, 2, %i3
400058c8:	10 bf ff b6 	b  400057a0 <_vsnprintf+0xb4>
400058cc:	b2 06 60 01 	inc  %i1
400058d0:	b6 16 e0 04 	or  %i3, 4, %i3
400058d4:	10 bf ff b3 	b  400057a0 <_vsnprintf+0xb4>
400058d8:	b2 06 60 01 	inc  %i1
400058dc:	b6 16 e0 10 	or  %i3, 0x10, %i3
400058e0:	10 bf ff b0 	b  400057a0 <_vsnprintf+0xb4>
400058e4:	b2 06 60 01 	inc  %i1
400058e8:	b6 16 e0 08 	or  %i3, 8, %i3
400058ec:	10 bf ff ad 	b  400057a0 <_vsnprintf+0xb4>
400058f0:	b2 06 60 01 	inc  %i1
400058f4:	b2 06 60 01 	inc  %i1
400058f8:	10 bf ff 9d 	b  4000576c <_vsnprintf+0x80>
400058fc:	c6 28 80 01 	stb  %g3, [ %g2 + %g1 ]
40005900:	85 28 60 18 	sll  %g1, 0x18, %g2
40005904:	89 38 a0 18 	sra  %g2, 0x18, %g4
40005908:	80 a1 20 2a 	cmp  %g4, 0x2a
4000590c:	12 bf ff bf 	bne  40005808 <_vsnprintf+0x11c>
40005910:	b8 10 20 00 	clr  %i4
40005914:	f8 06 80 00 	ld  [ %i2 ], %i4
40005918:	80 a7 20 00 	cmp  %i4, 0
4000591c:	06 80 01 99 	bl  40005f80 <_vsnprintf+0x894>
40005920:	b4 06 a0 04 	add  %i2, 4, %i2
40005924:	c2 08 e0 01 	ldub  [ %g3 + 1 ], %g1
40005928:	10 bf ff b7 	b  40005804 <_vsnprintf+0x118>
4000592c:	ba 07 60 01 	inc  %i5
40005930:	07 10 00 10 	sethi  %hi(0x40004000), %g3
40005934:	86 10 e0 98 	or  %g3, 0x98, %g3	! 40004098 <cortos_init_sw_traps+0xc>
40005938:	c4 00 c0 02 	ld  [ %g3 + %g2 ], %g2
4000593c:	81 c0 80 00 	jmp  %g2
40005940:	01 00 00 00 	nop 
40005944:	c2 0f 60 01 	ldub  [ %i5 + 1 ], %g1
40005948:	b6 16 e8 00 	or  %i3, 0x800, %i3
4000594c:	86 00 7f d0 	add  %g1, -48, %g3
40005950:	86 08 e0 ff 	and  %g3, 0xff, %g3
40005954:	80 a0 e0 09 	cmp  %g3, 9
40005958:	18 80 00 11 	bgu  4000599c <_vsnprintf+0x2b0>
4000595c:	84 07 60 01 	add  %i5, 1, %g2
40005960:	86 04 00 10 	add  %l0, %l0, %g3
40005964:	83 28 60 18 	sll  %g1, 0x18, %g1
40005968:	83 38 60 18 	sra  %g1, 0x18, %g1
4000596c:	a1 2c 20 03 	sll  %l0, 3, %l0
40005970:	84 00 a0 01 	inc  %g2
40005974:	a0 00 c0 10 	add  %g3, %l0, %l0
40005978:	a0 04 00 01 	add  %l0, %g1, %l0
4000597c:	c2 08 80 00 	ldub  [ %g2 ], %g1
40005980:	86 00 7f d0 	add  %g1, -48, %g3
40005984:	86 08 e0 ff 	and  %g3, 0xff, %g3
40005988:	80 a0 e0 09 	cmp  %g3, 9
4000598c:	08 bf ff f5 	bleu  40005960 <_vsnprintf+0x274>
40005990:	a0 04 3f d0 	add  %l0, -48, %l0
40005994:	10 bf ff a1 	b  40005818 <_vsnprintf+0x12c>
40005998:	ba 10 00 02 	mov  %g2, %i5
4000599c:	87 28 60 18 	sll  %g1, 0x18, %g3
400059a0:	87 38 e0 18 	sra  %g3, 0x18, %g3
400059a4:	80 a0 e0 2a 	cmp  %g3, 0x2a
400059a8:	32 bf ff 9c 	bne,a   40005818 <_vsnprintf+0x12c>
400059ac:	ba 10 00 02 	mov  %g2, %i5
400059b0:	c4 06 80 00 	ld  [ %i2 ], %g2
400059b4:	c2 0f 60 02 	ldub  [ %i5 + 2 ], %g1
400059b8:	a0 38 00 02 	xnor  %g0, %g2, %l0
400059bc:	b4 06 a0 04 	add  %i2, 4, %i2
400059c0:	a1 3c 20 1f 	sra  %l0, 0x1f, %l0
400059c4:	ba 07 60 02 	add  %i5, 2, %i5
400059c8:	10 bf ff 94 	b  40005818 <_vsnprintf+0x12c>
400059cc:	a0 08 80 10 	and  %g2, %l0, %l0
400059d0:	c4 4f 60 01 	ldsb  [ %i5 + 1 ], %g2
400059d4:	80 a0 a0 6c 	cmp  %g2, 0x6c
400059d8:	12 bf ff 9c 	bne  40005848 <_vsnprintf+0x15c>
400059dc:	c2 0f 60 01 	ldub  [ %i5 + 1 ], %g1
400059e0:	c2 0f 60 02 	ldub  [ %i5 + 2 ], %g1
400059e4:	b6 16 e6 00 	or  %i3, 0x600, %i3
400059e8:	10 bf ff 9a 	b  40005850 <_vsnprintf+0x164>
400059ec:	ba 07 60 02 	add  %i5, 2, %i5
400059f0:	c2 0f 60 01 	ldub  [ %i5 + 1 ], %g1
400059f4:	b6 16 e4 00 	or  %i3, 0x400, %i3
400059f8:	10 bf ff 96 	b  40005850 <_vsnprintf+0x164>
400059fc:	ba 07 60 01 	inc  %i5
40005a00:	c4 4f 60 01 	ldsb  [ %i5 + 1 ], %g2
40005a04:	80 a0 a0 68 	cmp  %g2, 0x68
40005a08:	02 80 01 88 	be  40006028 <_vsnprintf+0x93c>
40005a0c:	c2 0f 60 01 	ldub  [ %i5 + 1 ], %g1
40005a10:	b6 16 e0 80 	or  %i3, 0x80, %i3
40005a14:	10 bf ff 8f 	b  40005850 <_vsnprintf+0x164>
40005a18:	ba 07 60 01 	inc  %i5
40005a1c:	c2 06 20 0c 	ld  [ %i0 + 0xc ], %g1
40005a20:	84 00 60 01 	add  %g1, 1, %g2
40005a24:	c4 26 20 0c 	st  %g2, [ %i0 + 0xc ]
40005a28:	c4 06 20 10 	ld  [ %i0 + 0x10 ], %g2
40005a2c:	80 a0 40 02 	cmp  %g1, %g2
40005a30:	1a bf ff 3a 	bcc  40005718 <_vsnprintf+0x2c>
40005a34:	b2 07 60 01 	add  %i5, 1, %i1
40005a38:	c4 06 00 00 	ld  [ %i0 ], %g2
40005a3c:	80 a0 a0 00 	cmp  %g2, 0
40005a40:	02 80 01 89 	be  40006064 <_vsnprintf+0x978>
40005a44:	90 10 20 25 	mov  0x25, %o0
40005a48:	9f c0 80 00 	call  %g2
40005a4c:	d2 06 20 04 	ld  [ %i0 + 4 ], %o1
40005a50:	10 bf ff 33 	b  4000571c <_vsnprintf+0x30>
40005a54:	d0 4e 40 00 	ldsb  [ %i1 ], %o0
40005a58:	d4 06 80 00 	ld  [ %i2 ], %o2
40005a5c:	98 16 c0 12 	or  %i3, %l2, %o4
40005a60:	80 a2 a0 00 	cmp  %o2, 0
40005a64:	12 80 01 3b 	bne  40005f50 <_vsnprintf+0x864>
40005a68:	b4 06 a0 04 	add  %i2, 4, %i2
40005a6c:	90 10 00 18 	mov  %i0, %o0
40005a70:	92 10 00 13 	mov  %l3, %o1
40005a74:	94 10 20 05 	mov  5, %o2
40005a78:	96 10 20 0a 	mov  0xa, %o3
40005a7c:	7f ff fa 74 	call  4000444c <out_rev_>
40005a80:	b2 07 60 01 	add  %i5, 1, %i1
40005a84:	10 bf ff 26 	b  4000571c <_vsnprintf+0x30>
40005a88:	d0 4e 40 00 	ldsb  [ %i1 ], %o0
40005a8c:	c2 06 80 00 	ld  [ %i2 ], %g1
40005a90:	c4 06 20 0c 	ld  [ %i0 + 0xc ], %g2
40005a94:	80 8e e0 40 	btst  0x40, %i3
40005a98:	12 80 01 18 	bne  40005ef8 <_vsnprintf+0x80c>
40005a9c:	b4 06 a0 04 	add  %i2, 4, %i2
40005aa0:	80 8e e0 80 	btst  0x80, %i3
40005aa4:	02 80 01 65 	be  40006038 <_vsnprintf+0x94c>
40005aa8:	80 8e e2 00 	btst  0x200, %i3
40005aac:	c4 30 40 00 	sth  %g2, [ %g1 ]
40005ab0:	10 bf ff 1a 	b  40005718 <_vsnprintf+0x2c>
40005ab4:	b2 07 60 01 	add  %i5, 1, %i1
40005ab8:	c2 06 20 0c 	ld  [ %i0 + 0xc ], %g1
40005abc:	b6 8e e0 02 	andcc  %i3, 2, %i3
40005ac0:	02 80 01 11 	be  40005f04 <_vsnprintf+0x818>
40005ac4:	c6 06 20 10 	ld  [ %i0 + 0x10 ], %g3
40005ac8:	b2 10 20 01 	mov  1, %i1
40005acc:	c8 06 80 00 	ld  [ %i2 ], %g4
40005ad0:	84 00 60 01 	add  %g1, 1, %g2
40005ad4:	c4 26 20 0c 	st  %g2, [ %i0 + 0xc ]
40005ad8:	80 a0 40 03 	cmp  %g1, %g3
40005adc:	1a 80 00 0a 	bcc  40005b04 <_vsnprintf+0x418>
40005ae0:	b4 06 a0 04 	add  %i2, 4, %i2
40005ae4:	c4 06 00 00 	ld  [ %i0 ], %g2
40005ae8:	80 a0 a0 00 	cmp  %g2, 0
40005aec:	22 80 01 63 	be,a   40006078 <_vsnprintf+0x98c>
40005af0:	c4 06 20 08 	ld  [ %i0 + 8 ], %g2
40005af4:	91 29 20 18 	sll  %g4, 0x18, %o0
40005af8:	d2 06 20 04 	ld  [ %i0 + 4 ], %o1
40005afc:	9f c0 80 00 	call  %g2
40005b00:	91 3a 20 18 	sra  %o0, 0x18, %o0
40005b04:	80 a6 e0 00 	cmp  %i3, 0
40005b08:	22 bf ff 04 	be,a   40005718 <_vsnprintf+0x2c>
40005b0c:	b2 07 60 01 	add  %i5, 1, %i1
40005b10:	b6 10 20 20 	mov  0x20, %i3
40005b14:	80 a7 00 19 	cmp  %i4, %i1
40005b18:	28 bf ff 00 	bleu,a   40005718 <_vsnprintf+0x2c>
40005b1c:	b2 07 60 01 	add  %i5, 1, %i1
40005b20:	c2 06 20 0c 	ld  [ %i0 + 0xc ], %g1
40005b24:	84 00 60 01 	add  %g1, 1, %g2
40005b28:	c4 26 20 0c 	st  %g2, [ %i0 + 0xc ]
40005b2c:	c4 06 20 10 	ld  [ %i0 + 0x10 ], %g2
40005b30:	80 a0 40 02 	cmp  %g1, %g2
40005b34:	3a bf ff f8 	bcc,a   40005b14 <_vsnprintf+0x428>
40005b38:	b2 06 60 01 	inc  %i1
40005b3c:	c4 06 00 00 	ld  [ %i0 ], %g2
40005b40:	80 a0 a0 00 	cmp  %g2, 0
40005b44:	22 80 01 1d 	be,a   40005fb8 <_vsnprintf+0x8cc>
40005b48:	c4 06 20 08 	ld  [ %i0 + 8 ], %g2
40005b4c:	90 10 20 20 	mov  0x20, %o0
40005b50:	9f c0 80 00 	call  %g2
40005b54:	d2 06 20 04 	ld  [ %i0 + 4 ], %o1
40005b58:	10 bf ff ef 	b  40005b14 <_vsnprintf+0x428>
40005b5c:	b2 06 60 01 	inc  %i1
40005b60:	85 28 60 18 	sll  %g1, 0x18, %g2
40005b64:	87 38 a0 18 	sra  %g2, 0x18, %g3
40005b68:	80 a0 e0 69 	cmp  %g3, 0x69
40005b6c:	12 80 00 df 	bne  40005ee8 <_vsnprintf+0x7fc>
40005b70:	80 a0 e0 64 	cmp  %g3, 0x64
40005b74:	07 00 00 10 	sethi  %hi(0x4000), %g3
40005b78:	b6 16 c0 03 	or  %i3, %g3, %i3
40005b7c:	82 08 7f df 	and  %g1, -33, %g1
40005b80:	83 28 60 18 	sll  %g1, 0x18, %g1
40005b84:	83 38 60 18 	sra  %g1, 0x18, %g1
40005b88:	80 a0 60 58 	cmp  %g1, 0x58
40005b8c:	22 80 00 0b 	be,a   40005bb8 <_vsnprintf+0x4cc>
40005b90:	a2 10 20 10 	mov  0x10, %l1
40005b94:	83 38 a0 18 	sra  %g2, 0x18, %g1
40005b98:	80 a0 60 6f 	cmp  %g1, 0x6f
40005b9c:	02 80 00 0b 	be  40005bc8 <_vsnprintf+0x4dc>
40005ba0:	a2 10 20 08 	mov  8, %l1
40005ba4:	80 a0 60 62 	cmp  %g1, 0x62
40005ba8:	02 80 00 08 	be  40005bc8 <_vsnprintf+0x4dc>
40005bac:	a2 10 20 02 	mov  2, %l1
40005bb0:	b6 0e ff ef 	and  %i3, -17, %i3
40005bb4:	a2 10 20 0a 	mov  0xa, %l1
40005bb8:	85 38 a0 18 	sra  %g2, 0x18, %g2
40005bbc:	80 a0 a0 58 	cmp  %g2, 0x58
40005bc0:	22 80 00 02 	be,a   40005bc8 <_vsnprintf+0x4dc>
40005bc4:	b6 16 e0 20 	or  %i3, 0x20, %i3
40005bc8:	80 8e e8 00 	btst  0x800, %i3
40005bcc:	02 80 00 03 	be  40005bd8 <_vsnprintf+0x4ec>
40005bd0:	b2 07 60 01 	add  %i5, 1, %i1
40005bd4:	b6 0e ff fe 	and  %i3, -2, %i3
40005bd8:	03 00 00 10 	sethi  %hi(0x4000), %g1
40005bdc:	80 8e c0 01 	btst  %i3, %g1
40005be0:	02 80 00 fc 	be  40005fd0 <_vsnprintf+0x8e4>
40005be4:	80 8e e4 00 	btst  0x400, %i3
40005be8:	12 80 01 5d 	bne  4000615c <_vsnprintf+0xa70>
40005bec:	80 8e e2 00 	btst  0x200, %i3
40005bf0:	02 80 01 28 	be  40006090 <_vsnprintf+0x9a4>
40005bf4:	80 8e e0 40 	btst  0x40, %i3
40005bf8:	d6 06 80 00 	ld  [ %i2 ], %o3
40005bfc:	80 a2 e0 00 	cmp  %o3, 0
40005c00:	04 80 01 3f 	ble  400060fc <_vsnprintf+0xa10>
40005c04:	b4 06 a0 04 	add  %i2, 4, %i2
40005c08:	83 3a e0 1f 	sra  %o3, 0x1f, %g1
40005c0c:	d6 27 bf cc 	st  %o3, [ %fp + -52 ]
40005c10:	c2 27 bf c8 	st  %g1, [ %fp + -56 ]
40005c14:	f8 23 a0 5c 	st  %i4, [ %sp + 0x5c ]
40005c18:	f6 23 a0 60 	st  %i3, [ %sp + 0x60 ]
40005c1c:	90 10 00 18 	mov  %i0, %o0
40005c20:	d2 07 bf c8 	ld  [ %fp + -56 ], %o1
40005c24:	d4 07 bf cc 	ld  [ %fp + -52 ], %o2
40005c28:	97 32 e0 1f 	srl  %o3, 0x1f, %o3
40005c2c:	98 0c 60 1a 	and  %l1, 0x1a, %o4
40005c30:	7f ff fa 5e 	call  400045a8 <print_integer>
40005c34:	9a 10 00 10 	mov  %l0, %o5
40005c38:	10 bf fe b9 	b  4000571c <_vsnprintf+0x30>
40005c3c:	d0 4e 40 00 	ldsb  [ %i1 ], %o0
40005c40:	f2 06 80 00 	ld  [ %i2 ], %i1
40005c44:	80 a6 60 00 	cmp  %i1, 0
40005c48:	02 80 01 62 	be  400061d0 <_vsnprintf+0xae4>
40005c4c:	b4 06 a0 04 	add  %i2, 4, %i2
40005c50:	82 94 20 00 	orcc  %l0, 0, %g1
40005c54:	22 80 00 02 	be,a   40005c5c <_vsnprintf+0x570>
40005c58:	82 10 00 14 	mov  %l4, %g1
40005c5c:	c4 0e 40 00 	ldub  [ %i1 ], %g2
40005c60:	91 28 a0 18 	sll  %g2, 0x18, %o0
40005c64:	80 a2 20 00 	cmp  %o0, 0
40005c68:	22 80 00 0c 	be,a   40005c98 <_vsnprintf+0x5ac>
40005c6c:	a2 10 20 00 	clr  %l1
40005c70:	10 80 00 04 	b  40005c80 <_vsnprintf+0x594>
40005c74:	a2 10 00 19 	mov  %i1, %l1
40005c78:	22 80 00 08 	be,a   40005c98 <_vsnprintf+0x5ac>
40005c7c:	a2 24 40 19 	sub  %l1, %i1, %l1
40005c80:	a2 04 60 01 	inc  %l1
40005c84:	c6 4c 40 00 	ldsb  [ %l1 ], %g3
40005c88:	80 a0 e0 00 	cmp  %g3, 0
40005c8c:	32 bf ff fb 	bne,a   40005c78 <_vsnprintf+0x58c>
40005c90:	82 80 7f ff 	addcc  %g1, -1, %g1
40005c94:	a2 24 40 19 	sub  %l1, %i1, %l1
40005c98:	ae 8e e8 00 	andcc  %i3, 0x800, %l7
40005c9c:	22 80 00 06 	be,a   40005cb4 <_vsnprintf+0x5c8>
40005ca0:	b6 8e e0 02 	andcc  %i3, 2, %i3
40005ca4:	80 a4 40 10 	cmp  %l1, %l0
40005ca8:	38 80 00 02 	bgu,a   40005cb0 <_vsnprintf+0x5c4>
40005cac:	a2 10 00 10 	mov  %l0, %l1
40005cb0:	b6 8e e0 02 	andcc  %i3, 2, %i3
40005cb4:	12 80 00 63 	bne  40005e40 <_vsnprintf+0x754>
40005cb8:	f6 27 bf dc 	st  %i3, [ %fp + -36 ]
40005cbc:	80 a7 00 11 	cmp  %i4, %l1
40005cc0:	08 80 00 13 	bleu  40005d0c <_vsnprintf+0x620>
40005cc4:	b6 04 60 01 	add  %l1, 1, %i3
40005cc8:	c2 06 20 0c 	ld  [ %i0 + 0xc ], %g1
40005ccc:	84 00 60 01 	add  %g1, 1, %g2
40005cd0:	c4 26 20 0c 	st  %g2, [ %i0 + 0xc ]
40005cd4:	c4 06 20 10 	ld  [ %i0 + 0x10 ], %g2
40005cd8:	80 a0 40 02 	cmp  %g1, %g2
40005cdc:	1a 80 00 09 	bcc  40005d00 <_vsnprintf+0x614>
40005ce0:	a2 10 00 1b 	mov  %i3, %l1
40005ce4:	c4 06 00 00 	ld  [ %i0 ], %g2
40005ce8:	80 a0 a0 00 	cmp  %g2, 0
40005cec:	02 80 00 6b 	be  40005e98 <_vsnprintf+0x7ac>
40005cf0:	90 10 20 20 	mov  0x20, %o0
40005cf4:	9f c0 80 00 	call  %g2
40005cf8:	d2 06 20 04 	ld  [ %i0 + 4 ], %o1
40005cfc:	a2 10 00 1b 	mov  %i3, %l1
40005d00:	80 a7 00 11 	cmp  %i4, %l1
40005d04:	18 bf ff f1 	bgu  40005cc8 <_vsnprintf+0x5dc>
40005d08:	b6 04 60 01 	add  %l1, 1, %i3
40005d0c:	c4 0e 40 00 	ldub  [ %i1 ], %g2
40005d10:	91 28 a0 18 	sll  %g2, 0x18, %o0
40005d14:	80 a2 20 00 	cmp  %o0, 0
40005d18:	12 80 00 4d 	bne  40005e4c <_vsnprintf+0x760>
40005d1c:	a2 10 00 1b 	mov  %i3, %l1
40005d20:	d8 07 bf dc 	ld  [ %fp + -36 ], %o4
40005d24:	80 a3 20 00 	cmp  %o4, 0
40005d28:	22 bf fe 7c 	be,a   40005718 <_vsnprintf+0x2c>
40005d2c:	b2 07 60 01 	add  %i5, 1, %i1
40005d30:	b6 10 20 20 	mov  0x20, %i3
40005d34:	80 a7 00 11 	cmp  %i4, %l1
40005d38:	28 bf fe 78 	bleu,a   40005718 <_vsnprintf+0x2c>
40005d3c:	b2 07 60 01 	add  %i5, 1, %i1
40005d40:	c2 06 20 0c 	ld  [ %i0 + 0xc ], %g1
40005d44:	84 00 60 01 	add  %g1, 1, %g2
40005d48:	c4 26 20 0c 	st  %g2, [ %i0 + 0xc ]
40005d4c:	c4 06 20 10 	ld  [ %i0 + 0x10 ], %g2
40005d50:	80 a0 40 02 	cmp  %g1, %g2
40005d54:	3a bf ff f8 	bcc,a   40005d34 <_vsnprintf+0x648>
40005d58:	a2 04 60 01 	inc  %l1
40005d5c:	c4 06 00 00 	ld  [ %i0 ], %g2
40005d60:	80 a0 a0 00 	cmp  %g2, 0
40005d64:	22 80 00 98 	be,a   40005fc4 <_vsnprintf+0x8d8>
40005d68:	c4 06 20 08 	ld  [ %i0 + 8 ], %g2
40005d6c:	90 10 20 20 	mov  0x20, %o0
40005d70:	9f c0 80 00 	call  %g2
40005d74:	d2 06 20 04 	ld  [ %i0 + 4 ], %o1
40005d78:	10 bf ff ef 	b  40005d34 <_vsnprintf+0x648>
40005d7c:	a2 04 60 01 	inc  %l1
40005d80:	83 28 60 18 	sll  %g1, 0x18, %g1
40005d84:	83 38 60 18 	sra  %g1, 0x18, %g1
40005d88:	80 a0 60 46 	cmp  %g1, 0x46
40005d8c:	22 80 00 02 	be,a   40005d94 <_vsnprintf+0x6a8>
40005d90:	b6 16 e0 20 	or  %i3, 0x20, %i3
40005d94:	92 10 00 1a 	mov  %i2, %o1
40005d98:	94 10 20 08 	mov  8, %o2
40005d9c:	40 00 08 42 	call  40007ea4 <__GI_memcpy>
40005da0:	90 07 bf f0 	add  %fp, -16, %o0
40005da4:	90 10 00 18 	mov  %i0, %o0
40005da8:	c0 23 a0 5c 	clr  [ %sp + 0x5c ]
40005dac:	d2 07 bf f0 	ld  [ %fp + -16 ], %o1
40005db0:	d4 07 bf f4 	ld  [ %fp + -12 ], %o2
40005db4:	96 10 00 10 	mov  %l0, %o3
40005db8:	98 10 00 1c 	mov  %i4, %o4
40005dbc:	9a 10 00 1b 	mov  %i3, %o5
40005dc0:	7f ff fd c7 	call  400054dc <print_floating_point>
40005dc4:	b4 06 a0 08 	add  %i2, 8, %i2
40005dc8:	10 bf fe 54 	b  40005718 <_vsnprintf+0x2c>
40005dcc:	b2 07 60 01 	add  %i5, 1, %i1
40005dd0:	84 08 7f df 	and  %g1, -33, %g2
40005dd4:	85 28 a0 18 	sll  %g2, 0x18, %g2
40005dd8:	85 38 a0 18 	sra  %g2, 0x18, %g2
40005ddc:	80 a0 a0 47 	cmp  %g2, 0x47
40005de0:	12 80 00 04 	bne  40005df0 <_vsnprintf+0x704>
40005de4:	82 08 7f fd 	and  %g1, -3, %g1
40005de8:	05 00 00 04 	sethi  %hi(0x1000), %g2
40005dec:	b6 16 c0 02 	or  %i3, %g2, %i3
40005df0:	83 28 60 18 	sll  %g1, 0x18, %g1
40005df4:	83 38 60 18 	sra  %g1, 0x18, %g1
40005df8:	80 a0 60 45 	cmp  %g1, 0x45
40005dfc:	22 80 00 02 	be,a   40005e04 <_vsnprintf+0x718>
40005e00:	b6 16 e0 20 	or  %i3, 0x20, %i3
40005e04:	92 10 00 1a 	mov  %i2, %o1
40005e08:	94 10 20 08 	mov  8, %o2
40005e0c:	40 00 08 26 	call  40007ea4 <__GI_memcpy>
40005e10:	90 07 bf f8 	add  %fp, -8, %o0
40005e14:	82 10 20 01 	mov  1, %g1
40005e18:	90 10 00 18 	mov  %i0, %o0
40005e1c:	d2 07 bf f8 	ld  [ %fp + -8 ], %o1
40005e20:	d4 07 bf fc 	ld  [ %fp + -4 ], %o2
40005e24:	10 bf ff e4 	b  40005db4 <_vsnprintf+0x6c8>
40005e28:	c2 23 a0 5c 	st  %g1, [ %sp + 0x5c ]
40005e2c:	9f c0 c0 00 	call  %g3
40005e30:	d2 06 20 04 	ld  [ %i0 + 4 ], %o1
40005e34:	c4 0e 40 00 	ldub  [ %i1 ], %g2
40005e38:	a0 04 3f ff 	add  %l0, -1, %l0
40005e3c:	91 28 a0 18 	sll  %g2, 0x18, %o0
40005e40:	80 a2 20 00 	cmp  %o0, 0
40005e44:	02 bf ff b8 	be  40005d24 <_vsnprintf+0x638>
40005e48:	d8 07 bf dc 	ld  [ %fp + -36 ], %o4
40005e4c:	80 a5 e0 00 	cmp  %l7, 0
40005e50:	02 80 00 04 	be  40005e60 <_vsnprintf+0x774>
40005e54:	80 a4 20 00 	cmp  %l0, 0
40005e58:	02 bf ff b3 	be  40005d24 <_vsnprintf+0x638>
40005e5c:	d8 07 bf dc 	ld  [ %fp + -36 ], %o4
40005e60:	c2 06 20 0c 	ld  [ %i0 + 0xc ], %g1
40005e64:	86 00 60 01 	add  %g1, 1, %g3
40005e68:	c6 26 20 0c 	st  %g3, [ %i0 + 0xc ]
40005e6c:	c6 06 20 10 	ld  [ %i0 + 0x10 ], %g3
40005e70:	80 a0 40 03 	cmp  %g1, %g3
40005e74:	1a bf ff f0 	bcc  40005e34 <_vsnprintf+0x748>
40005e78:	b2 06 60 01 	inc  %i1
40005e7c:	c6 06 00 00 	ld  [ %i0 ], %g3
40005e80:	80 a0 e0 00 	cmp  %g3, 0
40005e84:	12 bf ff ea 	bne  40005e2c <_vsnprintf+0x740>
40005e88:	91 3a 20 18 	sra  %o0, 0x18, %o0
40005e8c:	c6 06 20 08 	ld  [ %i0 + 8 ], %g3
40005e90:	10 bf ff e9 	b  40005e34 <_vsnprintf+0x748>
40005e94:	c4 28 c0 01 	stb  %g2, [ %g3 + %g1 ]
40005e98:	c4 06 20 08 	ld  [ %i0 + 8 ], %g2
40005e9c:	86 10 20 20 	mov  0x20, %g3
40005ea0:	a2 10 00 1b 	mov  %i3, %l1
40005ea4:	10 bf ff 97 	b  40005d00 <_vsnprintf+0x614>
40005ea8:	c6 28 80 01 	stb  %g3, [ %g2 + %g1 ]
40005eac:	80 a0 60 00 	cmp  %g1, 0
40005eb0:	22 bf fe 38 	be,a   40005790 <_vsnprintf+0xa4>
40005eb4:	f0 06 20 0c 	ld  [ %i0 + 0xc ], %i0
40005eb8:	c6 06 20 08 	ld  [ %i0 + 8 ], %g3
40005ebc:	80 a0 e0 00 	cmp  %g3, 0
40005ec0:	22 bf fe 34 	be,a   40005790 <_vsnprintf+0xa4>
40005ec4:	f0 06 20 0c 	ld  [ %i0 + 0xc ], %i0
40005ec8:	c4 06 20 0c 	ld  [ %i0 + 0xc ], %g2
40005ecc:	80 a0 40 02 	cmp  %g1, %g2
40005ed0:	28 80 00 02 	bleu,a   40005ed8 <_vsnprintf+0x7ec>
40005ed4:	84 00 7f ff 	add  %g1, -1, %g2
40005ed8:	c0 28 c0 02 	clrb  [ %g3 + %g2 ]
40005edc:	f0 06 20 0c 	ld  [ %i0 + 0xc ], %i0
40005ee0:	81 c7 e0 08 	ret 
40005ee4:	81 e8 00 00 	restore 
40005ee8:	32 bf ff 26 	bne,a   40005b80 <_vsnprintf+0x494>
40005eec:	82 08 7f df 	and  %g1, -33, %g1
40005ef0:	10 bf ff 22 	b  40005b78 <_vsnprintf+0x48c>
40005ef4:	07 00 00 10 	sethi  %hi(0x4000), %g3
40005ef8:	c4 28 40 00 	stb  %g2, [ %g1 ]
40005efc:	10 bf fe 07 	b  40005718 <_vsnprintf+0x2c>
40005f00:	b2 07 60 01 	add  %i5, 1, %i1
40005f04:	84 10 20 01 	mov  1, %g2
40005f08:	a0 10 20 20 	mov  0x20, %l0
40005f0c:	80 a7 00 02 	cmp  %i4, %g2
40005f10:	08 bf fe ef 	bleu  40005acc <_vsnprintf+0x3e0>
40005f14:	b2 00 a0 01 	add  %g2, 1, %i1
40005f18:	84 00 60 01 	add  %g1, 1, %g2
40005f1c:	80 a0 c0 01 	cmp  %g3, %g1
40005f20:	08 80 00 1d 	bleu  40005f94 <_vsnprintf+0x8a8>
40005f24:	c4 26 20 0c 	st  %g2, [ %i0 + 0xc ]
40005f28:	c4 06 00 00 	ld  [ %i0 ], %g2
40005f2c:	80 a0 a0 00 	cmp  %g2, 0
40005f30:	02 80 00 1c 	be  40005fa0 <_vsnprintf+0x8b4>
40005f34:	90 10 20 20 	mov  0x20, %o0
40005f38:	9f c0 80 00 	call  %g2
40005f3c:	d2 06 20 04 	ld  [ %i0 + 4 ], %o1
40005f40:	c2 06 20 0c 	ld  [ %i0 + 0xc ], %g1
40005f44:	c6 06 20 10 	ld  [ %i0 + 0x10 ], %g3
40005f48:	10 bf ff f1 	b  40005f0c <_vsnprintf+0x820>
40005f4c:	84 10 00 19 	mov  %i1, %g2
40005f50:	82 10 20 0a 	mov  0xa, %g1
40005f54:	d8 23 a0 60 	st  %o4, [ %sp + 0x60 ]
40005f58:	c2 23 a0 5c 	st  %g1, [ %sp + 0x5c ]
40005f5c:	90 10 00 18 	mov  %i0, %o0
40005f60:	92 10 20 00 	clr  %o1
40005f64:	96 10 20 00 	clr  %o3
40005f68:	98 10 20 10 	mov  0x10, %o4
40005f6c:	9a 10 00 10 	mov  %l0, %o5
40005f70:	7f ff f9 8e 	call  400045a8 <print_integer>
40005f74:	b2 07 60 01 	add  %i5, 1, %i1
40005f78:	10 bf fd e9 	b  4000571c <_vsnprintf+0x30>
40005f7c:	d0 4e 40 00 	ldsb  [ %i1 ], %o0
40005f80:	b6 16 e0 02 	or  %i3, 2, %i3
40005f84:	b8 20 00 1c 	neg  %i4
40005f88:	c2 08 e0 01 	ldub  [ %g3 + 1 ], %g1
40005f8c:	10 bf fe 1e 	b  40005804 <_vsnprintf+0x118>
40005f90:	ba 07 60 01 	inc  %i5
40005f94:	82 10 00 02 	mov  %g2, %g1
40005f98:	10 bf ff dd 	b  40005f0c <_vsnprintf+0x820>
40005f9c:	84 10 00 19 	mov  %i1, %g2
40005fa0:	c4 06 20 08 	ld  [ %i0 + 8 ], %g2
40005fa4:	e0 28 80 01 	stb  %l0, [ %g2 + %g1 ]
40005fa8:	84 10 00 19 	mov  %i1, %g2
40005fac:	c2 06 20 0c 	ld  [ %i0 + 0xc ], %g1
40005fb0:	10 bf ff d7 	b  40005f0c <_vsnprintf+0x820>
40005fb4:	c6 06 20 10 	ld  [ %i0 + 0x10 ], %g3
40005fb8:	b2 06 60 01 	inc  %i1
40005fbc:	10 bf fe d6 	b  40005b14 <_vsnprintf+0x428>
40005fc0:	f6 28 80 01 	stb  %i3, [ %g2 + %g1 ]
40005fc4:	a2 04 60 01 	inc  %l1
40005fc8:	10 bf ff 5b 	b  40005d34 <_vsnprintf+0x648>
40005fcc:	f6 28 80 01 	stb  %i3, [ %g2 + %g1 ]
40005fd0:	12 80 00 53 	bne  4000611c <_vsnprintf+0xa30>
40005fd4:	ba 0e ff f3 	and  %i3, -13, %i5
40005fd8:	80 8e e2 00 	btst  0x200, %i3
40005fdc:	12 80 00 79 	bne  400061c0 <_vsnprintf+0xad4>
40005fe0:	80 8e e0 40 	btst  0x40, %i3
40005fe4:	32 80 00 42 	bne,a   400060ec <_vsnprintf+0xa00>
40005fe8:	d4 0e a0 03 	ldub  [ %i2 + 3 ], %o2
40005fec:	d4 06 80 00 	ld  [ %i2 ], %o2
40005ff0:	80 8e e0 80 	btst  0x80, %i3
40005ff4:	02 80 00 03 	be  40006000 <_vsnprintf+0x914>
40005ff8:	b4 06 a0 04 	add  %i2, 4, %i2
40005ffc:	94 0a 80 15 	and  %o2, %l5, %o2
40006000:	f8 23 a0 5c 	st  %i4, [ %sp + 0x5c ]
40006004:	fa 23 a0 60 	st  %i5, [ %sp + 0x60 ]
40006008:	90 10 00 18 	mov  %i0, %o0
4000600c:	92 10 20 00 	clr  %o1
40006010:	96 10 20 00 	clr  %o3
40006014:	98 0c 60 1a 	and  %l1, 0x1a, %o4
40006018:	7f ff f9 64 	call  400045a8 <print_integer>
4000601c:	9a 10 00 10 	mov  %l0, %o5
40006020:	10 bf fd bf 	b  4000571c <_vsnprintf+0x30>
40006024:	d0 4e 40 00 	ldsb  [ %i1 ], %o0
40006028:	c2 0f 60 02 	ldub  [ %i5 + 2 ], %g1
4000602c:	b6 16 e0 c0 	or  %i3, 0xc0, %i3
40006030:	10 bf fe 08 	b  40005850 <_vsnprintf+0x164>
40006034:	ba 07 60 02 	add  %i5, 2, %i5
40006038:	32 80 00 09 	bne,a   4000605c <_vsnprintf+0x970>
4000603c:	c4 20 40 00 	st  %g2, [ %g1 ]
40006040:	80 8e e4 00 	btst  0x400, %i3
40006044:	22 80 00 06 	be,a   4000605c <_vsnprintf+0x970>
40006048:	c4 20 40 00 	st  %g2, [ %g1 ]
4000604c:	c0 20 40 00 	clr  [ %g1 ]
40006050:	c4 20 60 04 	st  %g2, [ %g1 + 4 ]
40006054:	10 bf fd b1 	b  40005718 <_vsnprintf+0x2c>
40006058:	b2 07 60 01 	add  %i5, 1, %i1
4000605c:	10 bf fd af 	b  40005718 <_vsnprintf+0x2c>
40006060:	b2 07 60 01 	add  %i5, 1, %i1
40006064:	c4 06 20 08 	ld  [ %i0 + 8 ], %g2
40006068:	86 10 20 25 	mov  0x25, %g3
4000606c:	b2 07 60 01 	add  %i5, 1, %i1
40006070:	10 bf fd aa 	b  40005718 <_vsnprintf+0x2c>
40006074:	c6 28 80 01 	stb  %g3, [ %g2 + %g1 ]
40006078:	10 bf fe a3 	b  40005b04 <_vsnprintf+0x418>
4000607c:	c8 28 80 01 	stb  %g4, [ %g2 + %g1 ]
40006080:	c6 06 20 08 	ld  [ %i0 + 8 ], %g3
40006084:	b2 07 60 01 	add  %i5, 1, %i1
40006088:	10 bf fd a4 	b  40005718 <_vsnprintf+0x2c>
4000608c:	c2 28 c0 02 	stb  %g1, [ %g3 + %g2 ]
40006090:	32 80 00 19 	bne,a   400060f4 <_vsnprintf+0xa08>
40006094:	d6 4e a0 03 	ldsb  [ %i2 + 3 ], %o3
40006098:	80 8e e0 80 	btst  0x80, %i3
4000609c:	22 80 00 5e 	be,a   40006214 <_vsnprintf+0xb28>
400060a0:	d6 06 80 00 	ld  [ %i2 ], %o3
400060a4:	d6 56 a0 02 	ldsh  [ %i2 + 2 ], %o3
400060a8:	b4 06 a0 04 	add  %i2, 4, %i2
400060ac:	80 a2 e0 00 	cmp  %o3, 0
400060b0:	04 80 00 51 	ble  400061f4 <_vsnprintf+0xb08>
400060b4:	99 3a e0 1f 	sra  %o3, 0x1f, %o4
400060b8:	d6 27 bf c4 	st  %o3, [ %fp + -60 ]
400060bc:	d8 27 bf c0 	st  %o4, [ %fp + -64 ]
400060c0:	f8 23 a0 5c 	st  %i4, [ %sp + 0x5c ]
400060c4:	f6 23 a0 60 	st  %i3, [ %sp + 0x60 ]
400060c8:	90 10 00 18 	mov  %i0, %o0
400060cc:	d2 07 bf c0 	ld  [ %fp + -64 ], %o1
400060d0:	d4 07 bf c4 	ld  [ %fp + -60 ], %o2
400060d4:	97 32 e0 1f 	srl  %o3, 0x1f, %o3
400060d8:	98 0c 60 1a 	and  %l1, 0x1a, %o4
400060dc:	7f ff f9 33 	call  400045a8 <print_integer>
400060e0:	9a 10 00 10 	mov  %l0, %o5
400060e4:	10 bf fd 8e 	b  4000571c <_vsnprintf+0x30>
400060e8:	d0 4e 40 00 	ldsb  [ %i1 ], %o0
400060ec:	10 bf ff c5 	b  40006000 <_vsnprintf+0x914>
400060f0:	b4 06 a0 04 	add  %i2, 4, %i2
400060f4:	10 bf ff ee 	b  400060ac <_vsnprintf+0x9c0>
400060f8:	b4 06 a0 04 	add  %i2, 4, %i2
400060fc:	87 3a e0 1f 	sra  %o3, 0x1f, %g3
40006100:	d6 27 bf bc 	st  %o3, [ %fp + -68 ]
40006104:	c6 27 bf b8 	st  %g3, [ %fp + -72 ]
40006108:	c4 1f bf b8 	ldd  [ %fp + -72 ], %g2
4000610c:	86 a0 00 03 	subcc  %g0, %g3, %g3
40006110:	84 60 00 02 	subx  %g0, %g2, %g2
40006114:	10 bf fe c0 	b  40005c14 <_vsnprintf+0x528>
40006118:	c4 3f bf c8 	std  %g2, [ %fp + -56 ]
4000611c:	92 10 00 1a 	mov  %i2, %o1
40006120:	90 07 bf e8 	add  %fp, -24, %o0
40006124:	40 00 07 60 	call  40007ea4 <__GI_memcpy>
40006128:	94 10 20 08 	mov  8, %o2
4000612c:	b4 06 a0 08 	add  %i2, 8, %i2
40006130:	f8 23 a0 5c 	st  %i4, [ %sp + 0x5c ]
40006134:	fa 23 a0 60 	st  %i5, [ %sp + 0x60 ]
40006138:	90 10 00 18 	mov  %i0, %o0
4000613c:	d2 07 bf e8 	ld  [ %fp + -24 ], %o1
40006140:	d4 07 bf ec 	ld  [ %fp + -20 ], %o2
40006144:	96 10 20 00 	clr  %o3
40006148:	98 0c 60 1a 	and  %l1, 0x1a, %o4
4000614c:	7f ff f9 17 	call  400045a8 <print_integer>
40006150:	9a 10 00 10 	mov  %l0, %o5
40006154:	10 bf fd 72 	b  4000571c <_vsnprintf+0x30>
40006158:	d0 4e 40 00 	ldsb  [ %i1 ], %o0
4000615c:	92 10 00 1a 	mov  %i2, %o1
40006160:	90 07 bf e0 	add  %fp, -32, %o0
40006164:	40 00 07 50 	call  40007ea4 <__GI_memcpy>
40006168:	94 10 20 08 	mov  8, %o2
4000616c:	c4 1f bf e0 	ldd  [ %fp + -32 ], %g2
40006170:	f8 23 a0 5c 	st  %i4, [ %sp + 0x5c ]
40006174:	83 38 a0 1f 	sra  %g2, 0x1f, %g1
40006178:	97 30 a0 1f 	srl  %g2, 0x1f, %o3
4000617c:	c2 27 bf d4 	st  %g1, [ %fp + -44 ]
40006180:	c2 27 bf d0 	st  %g1, [ %fp + -48 ]
40006184:	d8 1f bf d0 	ldd  [ %fp + -48 ], %o4
40006188:	b8 1b 00 02 	xor  %o4, %g2, %i4
4000618c:	ba 1b 40 03 	xor  %o5, %g3, %i5
40006190:	86 a7 40 0d 	subcc  %i5, %o5, %g3
40006194:	84 67 00 0c 	subx  %i4, %o4, %g2
40006198:	b4 06 a0 08 	add  %i2, 8, %i2
4000619c:	f6 23 a0 60 	st  %i3, [ %sp + 0x60 ]
400061a0:	90 10 00 18 	mov  %i0, %o0
400061a4:	98 0c 60 1a 	and  %l1, 0x1a, %o4
400061a8:	92 10 00 02 	mov  %g2, %o1
400061ac:	94 10 00 03 	mov  %g3, %o2
400061b0:	7f ff f8 fe 	call  400045a8 <print_integer>
400061b4:	9a 10 00 10 	mov  %l0, %o5
400061b8:	10 bf fd 59 	b  4000571c <_vsnprintf+0x30>
400061bc:	d0 4e 40 00 	ldsb  [ %i1 ], %o0
400061c0:	d4 06 80 00 	ld  [ %i2 ], %o2
400061c4:	f8 23 a0 5c 	st  %i4, [ %sp + 0x5c ]
400061c8:	10 bf ff 8f 	b  40006004 <_vsnprintf+0x918>
400061cc:	b4 06 a0 04 	add  %i2, 4, %i2
400061d0:	90 10 00 18 	mov  %i0, %o0
400061d4:	92 10 00 16 	mov  %l6, %o1
400061d8:	94 10 20 06 	mov  6, %o2
400061dc:	96 10 00 1c 	mov  %i4, %o3
400061e0:	98 10 00 1b 	mov  %i3, %o4
400061e4:	7f ff f8 9a 	call  4000444c <out_rev_>
400061e8:	b2 07 60 01 	add  %i5, 1, %i1
400061ec:	10 bf fd 4c 	b  4000571c <_vsnprintf+0x30>
400061f0:	d0 4e 40 00 	ldsb  [ %i1 ], %o0
400061f4:	d6 27 bf b4 	st  %o3, [ %fp + -76 ]
400061f8:	83 3a e0 1f 	sra  %o3, 0x1f, %g1
400061fc:	c2 27 bf b0 	st  %g1, [ %fp + -80 ]
40006200:	c4 1f bf b0 	ldd  [ %fp + -80 ], %g2
40006204:	86 a0 00 03 	subcc  %g0, %g3, %g3
40006208:	84 60 00 02 	subx  %g0, %g2, %g2
4000620c:	10 bf ff ad 	b  400060c0 <_vsnprintf+0x9d4>
40006210:	c4 3f bf c0 	std  %g2, [ %fp + -64 ]
40006214:	10 bf ff a6 	b  400060ac <_vsnprintf+0x9c0>
40006218:	b4 06 a0 04 	add  %i2, 4, %i2

4000621c <uart_send_char>:
4000621c:	9d e3 bf a0 	save  %sp, -96, %sp
40006220:	7f ff f5 9f 	call  4000389c <__ajit_serial_putchar_via_vmap__>
40006224:	90 10 00 18 	mov  %i0, %o0
40006228:	80 a2 20 00 	cmp  %o0, 0
4000622c:	02 bf ff fd 	be  40006220 <uart_send_char+0x4>
40006230:	01 00 00 00 	nop 
40006234:	7f ff f4 c4 	call  40003544 <__ajit_read_serial_control_register_via_vmap__>
40006238:	01 00 00 00 	nop 
4000623c:	90 0a 20 09 	and  %o0, 9, %o0
40006240:	80 a2 20 09 	cmp  %o0, 9
40006244:	02 bf ff fc 	be  40006234 <uart_send_char+0x18>
40006248:	01 00 00 00 	nop 
4000624c:	81 c7 e0 08 	ret 
40006250:	81 e8 00 00 	restore 

40006254 <vprintf_>:
40006254:	9d e3 bf 88 	save  %sp, -120, %sp
40006258:	03 10 00 11 	sethi  %hi(0x40004400), %g1
4000625c:	82 10 60 14 	or  %g1, 0x14, %g1	! 40004414 <putchar_wrapper>
40006260:	c2 27 bf ec 	st  %g1, [ %fp + -20 ]
40006264:	03 1f ff ff 	sethi  %hi(0x7ffffc00), %g1
40006268:	82 10 63 ff 	or  %g1, 0x3ff, %g1	! 7fffffff <allocatedLocks+0x3ffe54df>
4000626c:	92 10 00 18 	mov  %i0, %o1
40006270:	c0 27 bf f0 	clr  [ %fp + -16 ]
40006274:	c0 27 bf f4 	clr  [ %fp + -12 ]
40006278:	c0 27 bf f8 	clr  [ %fp + -8 ]
4000627c:	90 07 bf ec 	add  %fp, -20, %o0
40006280:	c2 27 bf fc 	st  %g1, [ %fp + -4 ]
40006284:	7f ff fd 1a 	call  400056ec <_vsnprintf>
40006288:	94 10 00 19 	mov  %i1, %o2
4000628c:	81 c7 e0 08 	ret 
40006290:	91 e8 00 08 	restore  %g0, %o0, %o0

40006294 <vsnprintf_>:
40006294:	9d e3 bf 88 	save  %sp, -120, %sp
40006298:	80 a6 60 00 	cmp  %i1, 0
4000629c:	06 80 00 0f 	bl  400062d8 <vsnprintf_+0x44>
400062a0:	80 a0 00 18 	cmp  %g0, %i0
400062a4:	82 60 20 00 	subx  %g0, 0, %g1
400062a8:	f0 27 bf f4 	st  %i0, [ %fp + -12 ]
400062ac:	b2 0e 40 01 	and  %i1, %g1, %i1
400062b0:	c0 27 bf ec 	clr  [ %fp + -20 ]
400062b4:	c0 27 bf f0 	clr  [ %fp + -16 ]
400062b8:	c0 27 bf f8 	clr  [ %fp + -8 ]
400062bc:	f2 27 bf fc 	st  %i1, [ %fp + -4 ]
400062c0:	90 07 bf ec 	add  %fp, -20, %o0
400062c4:	92 10 00 1a 	mov  %i2, %o1
400062c8:	7f ff fd 09 	call  400056ec <_vsnprintf>
400062cc:	94 10 00 1b 	mov  %i3, %o2
400062d0:	81 c7 e0 08 	ret 
400062d4:	91 e8 00 08 	restore  %g0, %o0, %o0
400062d8:	82 60 20 00 	subx  %g0, 0, %g1
400062dc:	f0 27 bf f4 	st  %i0, [ %fp + -12 ]
400062e0:	c0 27 bf ec 	clr  [ %fp + -20 ]
400062e4:	c0 27 bf f0 	clr  [ %fp + -16 ]
400062e8:	c0 27 bf f8 	clr  [ %fp + -8 ]
400062ec:	90 07 bf ec 	add  %fp, -20, %o0
400062f0:	92 10 00 1a 	mov  %i2, %o1
400062f4:	94 10 00 1b 	mov  %i3, %o2
400062f8:	33 1f ff ff 	sethi  %hi(0x7ffffc00), %i1
400062fc:	b2 16 63 ff 	or  %i1, 0x3ff, %i1	! 7fffffff <allocatedLocks+0x3ffe54df>
40006300:	b2 0e 40 01 	and  %i1, %g1, %i1
40006304:	7f ff fc fa 	call  400056ec <_vsnprintf>
40006308:	f2 27 bf fc 	st  %i1, [ %fp + -4 ]
4000630c:	81 c7 e0 08 	ret 
40006310:	91 e8 00 08 	restore  %g0, %o0, %o0

40006314 <vsprintf_>:
40006314:	96 10 00 0a 	mov  %o2, %o3
40006318:	94 10 00 09 	mov  %o1, %o2
4000631c:	13 1f ff ff 	sethi  %hi(0x7ffffc00), %o1
40006320:	92 12 63 ff 	or  %o1, 0x3ff, %o1	! 7fffffff <allocatedLocks+0x3ffe54df>
40006324:	82 13 c0 00 	mov  %o7, %g1
40006328:	7f ff ff db 	call  40006294 <vsnprintf_>
4000632c:	9e 10 40 00 	mov  %g1, %o7

40006330 <vfctprintf>:
40006330:	9d e3 bf 88 	save  %sp, -120, %sp
40006334:	03 1f ff ff 	sethi  %hi(0x7ffffc00), %g1
40006338:	82 10 63 ff 	or  %g1, 0x3ff, %g1	! 7fffffff <allocatedLocks+0x3ffe54df>
4000633c:	f0 27 bf ec 	st  %i0, [ %fp + -20 ]
40006340:	f2 27 bf f0 	st  %i1, [ %fp + -16 ]
40006344:	c0 27 bf f4 	clr  [ %fp + -12 ]
40006348:	c0 27 bf f8 	clr  [ %fp + -8 ]
4000634c:	90 07 bf ec 	add  %fp, -20, %o0
40006350:	92 10 00 1a 	mov  %i2, %o1
40006354:	c2 27 bf fc 	st  %g1, [ %fp + -4 ]
40006358:	7f ff fc e5 	call  400056ec <_vsnprintf>
4000635c:	94 10 00 1b 	mov  %i3, %o2
40006360:	81 c7 e0 08 	ret 
40006364:	91 e8 00 08 	restore  %g0, %o0, %o0

40006368 <printf_>:
40006368:	9d e3 bf 98 	save  %sp, -104, %sp
4000636c:	92 07 a0 48 	add  %fp, 0x48, %o1
40006370:	f2 27 a0 48 	st  %i1, [ %fp + 0x48 ]
40006374:	f4 27 a0 4c 	st  %i2, [ %fp + 0x4c ]
40006378:	f6 27 a0 50 	st  %i3, [ %fp + 0x50 ]
4000637c:	f8 27 a0 54 	st  %i4, [ %fp + 0x54 ]
40006380:	fa 27 a0 58 	st  %i5, [ %fp + 0x58 ]
40006384:	d2 27 bf fc 	st  %o1, [ %fp + -4 ]
40006388:	7f ff ff b3 	call  40006254 <vprintf_>
4000638c:	90 10 00 18 	mov  %i0, %o0
40006390:	81 c7 e0 08 	ret 
40006394:	91 e8 00 08 	restore  %g0, %o0, %o0

40006398 <sprintf_>:
40006398:	9d e3 bf 98 	save  %sp, -104, %sp
4000639c:	94 07 a0 4c 	add  %fp, 0x4c, %o2
400063a0:	f4 27 a0 4c 	st  %i2, [ %fp + 0x4c ]
400063a4:	f6 27 a0 50 	st  %i3, [ %fp + 0x50 ]
400063a8:	f8 27 a0 54 	st  %i4, [ %fp + 0x54 ]
400063ac:	fa 27 a0 58 	st  %i5, [ %fp + 0x58 ]
400063b0:	d4 27 bf fc 	st  %o2, [ %fp + -4 ]
400063b4:	90 10 00 18 	mov  %i0, %o0
400063b8:	7f ff ff d7 	call  40006314 <vsprintf_>
400063bc:	92 10 00 19 	mov  %i1, %o1
400063c0:	81 c7 e0 08 	ret 
400063c4:	91 e8 00 08 	restore  %g0, %o0, %o0

400063c8 <snprintf_>:
400063c8:	9d e3 bf 98 	save  %sp, -104, %sp
400063cc:	96 07 a0 50 	add  %fp, 0x50, %o3
400063d0:	f6 27 a0 50 	st  %i3, [ %fp + 0x50 ]
400063d4:	f8 27 a0 54 	st  %i4, [ %fp + 0x54 ]
400063d8:	fa 27 a0 58 	st  %i5, [ %fp + 0x58 ]
400063dc:	d6 27 bf fc 	st  %o3, [ %fp + -4 ]
400063e0:	90 10 00 18 	mov  %i0, %o0
400063e4:	92 10 00 19 	mov  %i1, %o1
400063e8:	7f ff ff ab 	call  40006294 <vsnprintf_>
400063ec:	94 10 00 1a 	mov  %i2, %o2
400063f0:	81 c7 e0 08 	ret 
400063f4:	91 e8 00 08 	restore  %g0, %o0, %o0

400063f8 <fctprintf>:
400063f8:	9d e3 bf 98 	save  %sp, -104, %sp
400063fc:	96 07 a0 50 	add  %fp, 0x50, %o3
40006400:	f6 27 a0 50 	st  %i3, [ %fp + 0x50 ]
40006404:	f8 27 a0 54 	st  %i4, [ %fp + 0x54 ]
40006408:	fa 27 a0 58 	st  %i5, [ %fp + 0x58 ]
4000640c:	d6 27 bf fc 	st  %o3, [ %fp + -4 ]
40006410:	90 10 00 18 	mov  %i0, %o0
40006414:	92 10 00 19 	mov  %i1, %o1
40006418:	7f ff ff c6 	call  40006330 <vfctprintf>
4000641c:	94 10 00 1a 	mov  %i2, %o2
40006420:	81 c7 e0 08 	ret 
40006424:	91 e8 00 08 	restore  %g0, %o0, %o0

40006428 <ajit_initialize_sw_trap_handlers_to_null>:
40006428:	03 10 00 54 	sethi  %hi(0x40015000), %g1
4000642c:	82 10 60 10 	or  %g1, 0x10, %g1	! 40015010 <ajit_global_sw_trap_handlers>
40006430:	84 00 60 44 	add  %g1, 0x44, %g2
40006434:	c0 20 40 00 	clr  [ %g1 ]
40006438:	82 00 60 04 	add  %g1, 4, %g1
4000643c:	80 a0 40 02 	cmp  %g1, %g2
40006440:	32 bf ff fe 	bne,a   40006438 <ajit_initialize_sw_trap_handlers_to_null+0x10>
40006444:	c0 20 40 00 	clr  [ %g1 ]
40006448:	81 c3 e0 08 	retl 
4000644c:	01 00 00 00 	nop 

40006450 <ajit_set_sw_trap_handler>:
40006450:	80 a2 20 10 	cmp  %o0, 0x10
40006454:	18 80 00 05 	bgu  40006468 <ajit_set_sw_trap_handler+0x18>
40006458:	91 2a 20 02 	sll  %o0, 2, %o0
4000645c:	03 10 00 54 	sethi  %hi(0x40015000), %g1
40006460:	82 10 60 10 	or  %g1, 0x10, %g1	! 40015010 <ajit_global_sw_trap_handlers>
40006464:	d2 20 40 08 	st  %o1, [ %g1 + %o0 ]
40006468:	81 c3 e0 08 	retl 
4000646c:	01 00 00 00 	nop 

40006470 <ajit_generic_sw_trap_handler>:
40006470:	9d e3 bf a0 	save  %sp, -96, %sp
40006474:	b1 36 20 04 	srl  %i0, 4, %i0
40006478:	82 0e 20 ff 	and  %i0, 0xff, %g1
4000647c:	82 00 7f 80 	add  %g1, -128, %g1
40006480:	80 a0 60 10 	cmp  %g1, 0x10
40006484:	18 80 00 0d 	bgu  400064b8 <ajit_generic_sw_trap_handler+0x48>
40006488:	83 28 60 02 	sll  %g1, 2, %g1
4000648c:	05 10 00 54 	sethi  %hi(0x40015000), %g2
40006490:	84 10 a0 10 	or  %g2, 0x10, %g2	! 40015010 <ajit_global_sw_trap_handlers>
40006494:	c2 00 80 01 	ld  [ %g2 + %g1 ], %g1
40006498:	80 a0 60 00 	cmp  %g1, 0
4000649c:	02 80 00 07 	be  400064b8 <ajit_generic_sw_trap_handler+0x48>
400064a0:	90 10 00 19 	mov  %i1, %o0
400064a4:	92 10 00 1a 	mov  %i2, %o1
400064a8:	9f c0 40 00 	call  %g1
400064ac:	94 10 00 1b 	mov  %i3, %o2
400064b0:	81 c7 e0 08 	ret 
400064b4:	81 e8 00 00 	restore 
400064b8:	91 d0 20 00 	ta  0
400064bc:	81 c7 e0 08 	ret 
400064c0:	81 e8 00 00 	restore 

400064c4 <cortos_init_printing>:
400064c4:	84 10 20 01 	mov  1, %g2
400064c8:	03 10 00 6a 	sethi  %hi(0x4001a800), %g1
400064cc:	82 10 62 20 	or  %g1, 0x220, %g1	! 4001aa20 <allocatedLocksNc>
400064d0:	c4 28 60 05 	stb  %g2, [ %g1 + 5 ]
400064d4:	05 10 00 70 	sethi  %hi(0x4001c000), %g2
400064d8:	03 10 00 54 	sethi  %hi(0x40015000), %g1
400064dc:	84 10 a0 05 	or  %g2, 5, %g2
400064e0:	81 c3 e0 08 	retl 
400064e4:	c4 20 60 00 	st  %g2, [ %g1 ]

400064e8 <cortos_get_clock_time>:
400064e8:	82 13 c0 00 	mov  %o7, %g1
400064ec:	7f ff f3 1e 	call  40003164 <__ajit_get_clock_time>
400064f0:	9e 10 40 00 	mov  %g1, %o7

400064f4 <cortos_sleep>:
400064f4:	9d e3 bf a0 	save  %sp, -96, %sp
400064f8:	f0 27 a0 44 	st  %i0, [ %fp + 0x44 ]
400064fc:	d0 07 a0 44 	ld  [ %fp + 0x44 ], %o0
40006500:	7f ff f3 23 	call  4000318c <__ajit_sleep__>
40006504:	01 00 00 00 	nop 
40006508:	81 e8 00 00 	restore 
4000650c:	81 c3 e0 08 	retl 
40006510:	01 00 00 00 	nop 

40006514 <cortos_get_thread_id>:
40006514:	9d e3 bf a0 	save  %sp, -96, %sp
40006518:	a3 47 40 00 	rd  %asr29, %l1
4000651c:	82 10 00 11 	mov  %l1, %g1
40006520:	b1 30 60 07 	srl  %g1, 7, %i0
40006524:	b0 0e 21 fe 	and  %i0, 0x1fe, %i0
40006528:	82 06 00 01 	add  %i0, %g1, %g1
4000652c:	b1 28 60 18 	sll  %g1, 0x18, %i0
40006530:	b1 3e 20 18 	sra  %i0, 0x18, %i0
40006534:	81 c7 e0 08 	ret 
40006538:	81 e8 00 00 	restore 

4000653c <cortos_IsNcRamAddr>:
4000653c:	03 3f c0 00 	sethi  %hi(0xff000000), %g1
40006540:	90 02 00 01 	add  %o0, %g1, %o0
40006544:	05 00 00 3f 	sethi  %hi(0xfc00), %g2
40006548:	84 10 a3 ff 	or  %g2, 0x3ff, %g2	! ffff <__DYNAMIC+0xffff>
4000654c:	80 a0 80 08 	cmp  %g2, %o0
40006550:	81 c3 e0 08 	retl 
40006554:	90 60 3f ff 	subx  %g0, -1, %o0

40006558 <cortos_vprintf>:
40006558:	9d e3 bb a0 	save  %sp, -1120, %sp
4000655c:	92 10 00 18 	mov  %i0, %o1
40006560:	94 10 00 19 	mov  %i1, %o2
40006564:	ba 07 bc 00 	add  %fp, -1024, %i5
40006568:	7f ff ff 6b 	call  40006314 <vsprintf_>
4000656c:	90 10 00 1d 	mov  %i5, %o0
40006570:	39 10 00 54 	sethi  %hi(0x40015000), %i4
40006574:	7f ff f1 f5 	call  40002d48 <cortos_lock_acquire_buzy>
40006578:	d0 07 20 00 	ld  [ %i4 ], %o0
4000657c:	d0 0f bc 00 	ldub  [ %fp + -1024 ], %o0
40006580:	91 2a 20 18 	sll  %o0, 0x18, %o0
40006584:	80 a2 20 00 	cmp  %o0, 0
40006588:	02 80 00 0a 	be  400065b0 <cortos_vprintf+0x58>
4000658c:	b0 10 20 00 	clr  %i0
40006590:	7f ff ff 23 	call  4000621c <uart_send_char>
40006594:	91 3a 20 18 	sra  %o0, 0x18, %o0
40006598:	b0 06 20 01 	inc  %i0
4000659c:	d0 0f 40 18 	ldub  [ %i5 + %i0 ], %o0
400065a0:	91 2a 20 18 	sll  %o0, 0x18, %o0
400065a4:	80 a2 20 00 	cmp  %o0, 0
400065a8:	12 bf ff fa 	bne  40006590 <cortos_vprintf+0x38>
400065ac:	01 00 00 00 	nop 
400065b0:	7f ff f2 00 	call  40002db0 <cortos_lock_release>
400065b4:	d0 07 20 00 	ld  [ %i4 ], %o0
400065b8:	81 c7 e0 08 	ret 
400065bc:	81 e8 00 00 	restore 

400065c0 <cortos_printf>:
400065c0:	9d e3 bf 98 	save  %sp, -104, %sp
400065c4:	92 07 a0 48 	add  %fp, 0x48, %o1
400065c8:	f2 27 a0 48 	st  %i1, [ %fp + 0x48 ]
400065cc:	f4 27 a0 4c 	st  %i2, [ %fp + 0x4c ]
400065d0:	f6 27 a0 50 	st  %i3, [ %fp + 0x50 ]
400065d4:	f8 27 a0 54 	st  %i4, [ %fp + 0x54 ]
400065d8:	fa 27 a0 58 	st  %i5, [ %fp + 0x58 ]
400065dc:	d2 27 bf fc 	st  %o1, [ %fp + -4 ]
400065e0:	7f ff ff de 	call  40006558 <cortos_vprintf>
400065e4:	90 10 00 18 	mov  %i0, %o0
400065e8:	81 c7 e0 08 	ret 
400065ec:	91 e8 00 08 	restore  %g0, %o0, %o0

400065f0 <ajit_initialize_interrupt_handlers_to_null>:
400065f0:	03 10 00 54 	sethi  %hi(0x40015000), %g1
400065f4:	82 10 60 54 	or  %g1, 0x54, %g1	! 40015054 <ajit_global_interrupt_handlers>
400065f8:	84 00 60 40 	add  %g1, 0x40, %g2
400065fc:	c0 20 40 00 	clr  [ %g1 ]
40006600:	82 00 60 04 	add  %g1, 4, %g1
40006604:	80 a0 40 02 	cmp  %g1, %g2
40006608:	32 bf ff fe 	bne,a   40006600 <ajit_initialize_interrupt_handlers_to_null+0x10>
4000660c:	c0 20 40 00 	clr  [ %g1 ]
40006610:	81 c3 e0 08 	retl 
40006614:	01 00 00 00 	nop 

40006618 <ajit_set_interrupt_handler>:
40006618:	80 a2 20 0f 	cmp  %o0, 0xf
4000661c:	18 80 00 05 	bgu  40006630 <ajit_set_interrupt_handler+0x18>
40006620:	91 2a 20 02 	sll  %o0, 2, %o0
40006624:	03 10 00 54 	sethi  %hi(0x40015000), %g1
40006628:	82 10 60 54 	or  %g1, 0x54, %g1	! 40015054 <ajit_global_interrupt_handlers>
4000662c:	d2 20 40 08 	st  %o1, [ %g1 + %o0 ]
40006630:	81 c3 e0 08 	retl 
40006634:	01 00 00 00 	nop 

40006638 <ajit_generic_interrupt_handler>:
40006638:	9d e3 bf 98 	save  %sp, -104, %sp
4000663c:	90 07 bf fe 	add  %fp, -2, %o0
40006640:	7f ff f2 be 	call  40003138 <ajit_get_core_and_thread_id>
40006644:	92 07 bf ff 	add  %fp, -1, %o1
40006648:	c4 0f bf fe 	ldub  [ %fp + -2 ], %g2
4000664c:	84 00 80 02 	add  %g2, %g2, %g2
40006650:	3b 3f ff cc 	sethi  %hi(0xffff3000), %i5
40006654:	c2 0f bf ff 	ldub  [ %fp + -1 ], %g1
40006658:	82 00 40 02 	add  %g1, %g2, %g1
4000665c:	83 28 60 02 	sll  %g1, 2, %g1
40006660:	c4 00 40 1d 	ld  [ %g1 + %i5 ], %g2
40006664:	84 08 bf fe 	and  %g2, -2, %g2
40006668:	b1 36 20 04 	srl  %i0, 4, %i0
4000666c:	b0 0e 20 ff 	and  %i0, 0xff, %i0
40006670:	86 06 3f ef 	add  %i0, -17, %g3
40006674:	80 a0 e0 0e 	cmp  %g3, 0xe
40006678:	18 80 00 16 	bgu  400066d0 <ajit_generic_interrupt_handler+0x98>
4000667c:	c4 20 40 1d 	st  %g2, [ %g1 + %i5 ]
40006680:	b0 06 3f f0 	add  %i0, -16, %i0
40006684:	07 10 00 54 	sethi  %hi(0x40015000), %g3
40006688:	b1 2e 20 02 	sll  %i0, 2, %i0
4000668c:	86 10 e0 54 	or  %g3, 0x54, %g3
40006690:	c6 00 c0 18 	ld  [ %g3 + %i0 ], %g3
40006694:	80 a0 e0 00 	cmp  %g3, 0
40006698:	02 80 00 0f 	be  400066d4 <ajit_generic_interrupt_handler+0x9c>
4000669c:	84 10 a0 01 	or  %g2, 1, %g2
400066a0:	9f c0 c0 00 	call  %g3
400066a4:	01 00 00 00 	nop 
400066a8:	c4 0f bf fe 	ldub  [ %fp + -2 ], %g2
400066ac:	84 00 80 02 	add  %g2, %g2, %g2
400066b0:	c2 0f bf ff 	ldub  [ %fp + -1 ], %g1
400066b4:	82 00 40 02 	add  %g1, %g2, %g1
400066b8:	83 28 60 02 	sll  %g1, 2, %g1
400066bc:	c4 00 40 1d 	ld  [ %g1 + %i5 ], %g2
400066c0:	84 10 a0 01 	or  %g2, 1, %g2
400066c4:	c4 20 40 1d 	st  %g2, [ %g1 + %i5 ]
400066c8:	81 c7 e0 08 	ret 
400066cc:	81 e8 00 00 	restore 
400066d0:	84 10 a0 01 	or  %g2, 1, %g2
400066d4:	c4 20 40 1d 	st  %g2, [ %g1 + %i5 ]
400066d8:	91 d0 20 00 	ta  0
400066dc:	81 c7 e0 08 	ret 
400066e0:	81 e8 00 00 	restore 

400066e4 <readInterruptControlRegister>:
400066e4:	90 02 00 08 	add  %o0, %o0, %o0
400066e8:	03 3f ff cc 	sethi  %hi(0xffff3000), %g1
400066ec:	92 02 00 09 	add  %o0, %o1, %o1
400066f0:	91 2a 60 02 	sll  %o1, 2, %o0
400066f4:	81 c3 e0 08 	retl 
400066f8:	d0 02 00 01 	ld  [ %o0 + %g1 ], %o0

400066fc <writeInterruptControlRegister>:
400066fc:	90 02 00 08 	add  %o0, %o0, %o0
40006700:	03 3f ff cc 	sethi  %hi(0xffff3000), %g1
40006704:	92 02 00 09 	add  %o0, %o1, %o1
40006708:	91 2a 60 02 	sll  %o1, 2, %o0
4000670c:	81 c3 e0 08 	retl 
40006710:	d4 22 00 01 	st  %o2, [ %o0 + %g1 ]

40006714 <enableInterruptController>:
40006714:	03 3f ff cc 	sethi  %hi(0xffff3000), %g1
40006718:	90 02 00 08 	add  %o0, %o0, %o0
4000671c:	92 02 40 08 	add  %o1, %o0, %o1
40006720:	93 2a 60 02 	sll  %o1, 2, %o1
40006724:	c4 02 40 01 	ld  [ %o1 + %g1 ], %g2
40006728:	84 10 a0 01 	or  %g2, 1, %g2
4000672c:	81 c3 e0 08 	retl 
40006730:	c4 22 40 01 	st  %g2, [ %o1 + %g1 ]

40006734 <disableInterruptController>:
40006734:	03 3f ff cc 	sethi  %hi(0xffff3000), %g1
40006738:	90 02 00 08 	add  %o0, %o0, %o0
4000673c:	92 02 40 08 	add  %o1, %o0, %o1
40006740:	93 2a 60 02 	sll  %o1, 2, %o1
40006744:	c4 02 40 01 	ld  [ %o1 + %g1 ], %g2
40006748:	84 08 bf fe 	and  %g2, -2, %g2
4000674c:	81 c3 e0 08 	retl 
40006750:	c4 22 40 01 	st  %g2, [ %o1 + %g1 ]

40006754 <enableInterrupt>:
40006754:	84 10 20 01 	mov  1, %g2
40006758:	03 3f ff cc 	sethi  %hi(0xffff3000), %g1
4000675c:	90 02 00 08 	add  %o0, %o0, %o0
40006760:	95 28 80 0a 	sll  %g2, %o2, %o2
40006764:	92 02 40 08 	add  %o1, %o0, %o1
40006768:	93 2a 60 02 	sll  %o1, 2, %o1
4000676c:	c6 02 40 01 	ld  [ %o1 + %g1 ], %g3
40006770:	84 10 c0 0a 	or  %g3, %o2, %g2
40006774:	81 c3 e0 08 	retl 
40006778:	c4 22 40 01 	st  %g2, [ %o1 + %g1 ]

4000677c <enableAllInterrupts>:
4000677c:	03 3f ff cc 	sethi  %hi(0xffff3000), %g1
40006780:	90 02 00 08 	add  %o0, %o0, %o0
40006784:	05 00 00 3f 	sethi  %hi(0xfc00), %g2
40006788:	92 02 40 08 	add  %o1, %o0, %o1
4000678c:	84 10 a3 fe 	or  %g2, 0x3fe, %g2
40006790:	93 2a 60 02 	sll  %o1, 2, %o1
40006794:	c6 02 40 01 	ld  [ %o1 + %g1 ], %g3
40006798:	84 10 c0 02 	or  %g3, %g2, %g2
4000679c:	81 c3 e0 08 	retl 
400067a0:	c4 22 40 01 	st  %g2, [ %o1 + %g1 ]

400067a4 <enableInterruptControllerAndAllInterrupts>:
400067a4:	90 02 00 08 	add  %o0, %o0, %o0
400067a8:	05 00 00 3f 	sethi  %hi(0xfc00), %g2
400067ac:	92 02 00 09 	add  %o0, %o1, %o1
400067b0:	84 10 a3 ff 	or  %g2, 0x3ff, %g2
400067b4:	91 2a 60 02 	sll  %o1, 2, %o0
400067b8:	03 3f ff cc 	sethi  %hi(0xffff3000), %g1
400067bc:	81 c3 e0 08 	retl 
400067c0:	c4 22 00 01 	st  %g2, [ %o0 + %g1 ]

400067c4 <setInterruptMask>:
400067c4:	03 3f ff cc 	sethi  %hi(0xffff3000), %g1
400067c8:	90 02 00 08 	add  %o0, %o0, %o0
400067cc:	92 02 40 08 	add  %o1, %o0, %o1
400067d0:	93 2a 60 02 	sll  %o1, 2, %o1
400067d4:	c6 02 40 01 	ld  [ %o1 + %g1 ], %g3
400067d8:	05 3f ff c0 	sethi  %hi(0xffff0000), %g2
400067dc:	84 10 a0 01 	or  %g2, 1, %g2	! ffff0001 <allocatedLocks+0xbffd54e1>
400067e0:	84 08 c0 02 	and  %g3, %g2, %g2
400067e4:	07 00 00 3f 	sethi  %hi(0xfc00), %g3
400067e8:	86 10 e3 fe 	or  %g3, 0x3fe, %g3	! fffe <__DYNAMIC+0xfffe>
400067ec:	94 0a 80 03 	and  %o2, %g3, %o2
400067f0:	84 10 80 0a 	or  %g2, %o2, %g2
400067f4:	81 c3 e0 08 	retl 
400067f8:	c4 22 40 01 	st  %g2, [ %o1 + %g1 ]

400067fc <disableInterrupt>:
400067fc:	84 10 20 01 	mov  1, %g2
40006800:	03 3f ff cc 	sethi  %hi(0xffff3000), %g1
40006804:	90 02 00 08 	add  %o0, %o0, %o0
40006808:	95 28 80 0a 	sll  %g2, %o2, %o2
4000680c:	92 02 40 08 	add  %o1, %o0, %o1
40006810:	93 2a 60 02 	sll  %o1, 2, %o1
40006814:	c6 02 40 01 	ld  [ %o1 + %g1 ], %g3
40006818:	84 28 c0 0a 	andn  %g3, %o2, %g2
4000681c:	81 c3 e0 08 	retl 
40006820:	c4 22 40 01 	st  %g2, [ %o1 + %g1 ]

40006824 <bget_ncram>:
40006824:	83 3a 20 1f 	sra  %o0, 0x1f, %g1
40006828:	83 30 60 1c 	srl  %g1, 0x1c, %g1
4000682c:	84 02 00 01 	add  %o0, %g1, %g2
40006830:	84 08 a0 0f 	and  %g2, 0xf, %g2
40006834:	82 20 80 01 	sub  %g2, %g1, %g1
40006838:	90 00 40 08 	add  %g1, %o0, %o0
4000683c:	80 a2 20 0f 	cmp  %o0, 0xf
40006840:	08 80 00 23 	bleu  400068cc <bget_ncram+0xa8>
40006844:	86 10 20 18 	mov  0x18, %g3
40006848:	88 02 20 0f 	add  %o0, 0xf, %g4
4000684c:	88 09 3f f0 	and  %g4, -16, %g4
40006850:	88 01 20 08 	add  %g4, 8, %g4
40006854:	86 10 00 04 	mov  %g4, %g3
40006858:	05 10 00 51 	sethi  %hi(0x40014400), %g2
4000685c:	84 10 a2 78 	or  %g2, 0x278, %g2	! 40014678 <freelist_ncram>
40006860:	d0 00 a0 08 	ld  [ %g2 + 8 ], %o0
40006864:	80 a2 00 02 	cmp  %o0, %g2
40006868:	32 80 00 08 	bne,a   40006888 <bget_ncram+0x64>
4000686c:	c2 02 20 04 	ld  [ %o0 + 4 ], %g1
40006870:	81 c3 e0 08 	retl 
40006874:	90 10 20 00 	clr  %o0
40006878:	80 a2 00 02 	cmp  %o0, %g2
4000687c:	02 80 00 12 	be  400068c4 <bget_ncram+0xa0>
40006880:	01 00 00 00 	nop 
40006884:	c2 02 20 04 	ld  [ %o0 + 4 ], %g1
40006888:	80 a0 40 03 	cmp  %g1, %g3
4000688c:	26 bf ff fb 	bl,a   40006878 <bget_ncram+0x54>
40006890:	d0 02 20 08 	ld  [ %o0 + 8 ], %o0
40006894:	84 20 40 03 	sub  %g1, %g3, %g2
40006898:	80 a0 a0 18 	cmp  %g2, 0x18
4000689c:	28 80 00 0e 	bleu,a   400068d4 <bget_ncram+0xb0>
400068a0:	c6 02 20 08 	ld  [ %o0 + 8 ], %g3
400068a4:	c4 22 20 04 	st  %g2, [ %o0 + 4 ]
400068a8:	c4 22 00 02 	st  %g2, [ %o0 + %g2 ]
400068ac:	86 20 00 03 	neg  %g3
400068b0:	90 02 00 02 	add  %o0, %g2, %o0
400068b4:	c0 22 00 04 	clr  [ %o0 + %g4 ]
400068b8:	c6 22 20 04 	st  %g3, [ %o0 + 4 ]
400068bc:	81 c3 e0 08 	retl 
400068c0:	90 02 20 08 	add  %o0, 8, %o0
400068c4:	81 c3 e0 08 	retl 
400068c8:	90 10 20 00 	clr  %o0
400068cc:	10 bf ff e3 	b  40006858 <bget_ncram+0x34>
400068d0:	88 10 20 18 	mov  0x18, %g4
400068d4:	c4 02 20 0c 	ld  [ %o0 + 0xc ], %g2
400068d8:	c6 20 a0 08 	st  %g3, [ %g2 + 8 ]
400068dc:	c6 02 20 08 	ld  [ %o0 + 8 ], %g3
400068e0:	c4 20 e0 0c 	st  %g2, [ %g3 + 0xc ]
400068e4:	c0 22 00 01 	clr  [ %o0 + %g1 ]
400068e8:	84 20 00 01 	neg  %g1, %g2
400068ec:	c4 22 20 04 	st  %g2, [ %o0 + 4 ]
400068f0:	90 02 20 08 	add  %o0, 8, %o0
400068f4:	81 c3 e0 08 	retl 
400068f8:	01 00 00 00 	nop 

400068fc <bpool_ncram>:
400068fc:	03 10 00 51 	sethi  %hi(0x40014400), %g1
40006900:	82 10 62 78 	or  %g1, 0x278, %g1	! 40014678 <freelist_ncram>
40006904:	c4 00 60 0c 	ld  [ %g1 + 0xc ], %g2
40006908:	c2 22 20 08 	st  %g1, [ %o0 + 8 ]
4000690c:	c4 22 20 0c 	st  %g2, [ %o0 + 0xc ]
40006910:	d0 20 60 0c 	st  %o0, [ %g1 + 0xc ]
40006914:	c0 22 00 00 	clr  [ %o0 ]
40006918:	c2 02 20 0c 	ld  [ %o0 + 0xc ], %g1
4000691c:	92 0a 7f f0 	and  %o1, -16, %o1
40006920:	d0 20 60 08 	st  %o0, [ %g1 + 8 ]
40006924:	92 02 7f f8 	add  %o1, -8, %o1
40006928:	d2 22 20 04 	st  %o1, [ %o0 + 4 ]
4000692c:	82 02 00 09 	add  %o0, %o1, %g1
40006930:	05 20 00 00 	sethi  %hi(0x80000000), %g2
40006934:	d2 22 00 09 	st  %o1, [ %o0 + %o1 ]
40006938:	81 c3 e0 08 	retl 
4000693c:	c4 20 60 04 	st  %g2, [ %g1 + 4 ]

40006940 <brel_ncram>:
40006940:	c2 02 3f f8 	ld  [ %o0 + -8 ], %g1
40006944:	80 a0 60 00 	cmp  %g1, 0
40006948:	02 80 00 16 	be  400069a0 <brel_ncram+0x60>
4000694c:	84 02 3f f8 	add  %o0, -8, %g2
40006950:	84 20 80 01 	sub  %g2, %g1, %g2
40006954:	c2 02 3f fc 	ld  [ %o0 + -4 ], %g1
40006958:	c6 00 a0 04 	ld  [ %g2 + 4 ], %g3
4000695c:	82 20 c0 01 	sub  %g3, %g1, %g1
40006960:	c2 20 a0 04 	st  %g1, [ %g2 + 4 ]
40006964:	86 00 80 01 	add  %g2, %g1, %g3
40006968:	c8 00 e0 04 	ld  [ %g3 + 4 ], %g4
4000696c:	80 a1 20 00 	cmp  %g4, 0
40006970:	04 80 00 0a 	ble  40006998 <brel_ncram+0x58>
40006974:	01 00 00 00 	nop 
40006978:	da 00 e0 0c 	ld  [ %g3 + 0xc ], %o5
4000697c:	82 00 40 04 	add  %g1, %g4, %g1
40006980:	d8 00 e0 08 	ld  [ %g3 + 8 ], %o4
40006984:	c2 20 a0 04 	st  %g1, [ %g2 + 4 ]
40006988:	d8 23 60 08 	st  %o4, [ %o5 + 8 ]
4000698c:	c8 00 e0 08 	ld  [ %g3 + 8 ], %g4
40006990:	86 00 80 01 	add  %g2, %g1, %g3
40006994:	da 21 20 0c 	st  %o5, [ %g4 + 0xc ]
40006998:	81 c3 e0 08 	retl 
4000699c:	c2 20 c0 00 	st  %g1, [ %g3 ]
400069a0:	07 10 00 51 	sethi  %hi(0x40014400), %g3
400069a4:	86 10 e2 78 	or  %g3, 0x278, %g3	! 40014678 <freelist_ncram>
400069a8:	c2 00 e0 0c 	ld  [ %g3 + 0xc ], %g1
400069ac:	c6 22 00 00 	st  %g3, [ %o0 ]
400069b0:	c2 22 20 04 	st  %g1, [ %o0 + 4 ]
400069b4:	c4 20 e0 0c 	st  %g2, [ %g3 + 0xc ]
400069b8:	c2 02 3f fc 	ld  [ %o0 + -4 ], %g1
400069bc:	c6 02 20 04 	ld  [ %o0 + 4 ], %g3
400069c0:	82 20 00 01 	neg  %g1
400069c4:	c4 20 e0 08 	st  %g2, [ %g3 + 8 ]
400069c8:	10 bf ff e7 	b  40006964 <brel_ncram+0x24>
400069cc:	c2 22 3f fc 	st  %g1, [ %o0 + -4 ]

400069d0 <setup>:
400069d0:	9d e3 bf a0 	save  %sp, -96, %sp
400069d4:	94 10 20 00 	clr  %o2
400069d8:	90 10 20 01 	mov  1, %o0
400069dc:	7f ff f3 3c 	call  400036cc <__ajit_serial_configure_via_vmap__>
400069e0:	92 10 20 00 	clr  %o1
400069e4:	11 00 00 70 	sethi  %hi(0x1c000), %o0
400069e8:	13 00 e4 e1 	sethi  %hi(0x3938400), %o1
400069ec:	90 12 22 00 	or  %o0, 0x200, %o0
400069f0:	7f ff f3 7f 	call  400037ec <__ajit_serial_set_baudrate_via_vmap__>
400069f4:	92 12 63 00 	or  %o1, 0x300, %o1
400069f8:	90 10 20 00 	clr  %o0
400069fc:	7f ff f4 58 	call  40003b5c <__ajit_serial_set_uart_reset_via_vmap__>
40006a00:	31 10 00 50 	sethi  %hi(0x40014000), %i0
40006a04:	7f ff fe ef 	call  400065c0 <cortos_printf>
40006a08:	91 ee 22 68 	restore  %i0, 0x268, %o0

40006a0c <set_args>:
40006a0c:	9d e3 bf 90 	save  %sp, -112, %sp
40006a10:	37 10 00 68 	sethi  %hi(0x4001a000), %i3
40006a14:	b8 10 20 00 	clr  %i4
40006a18:	3b 00 40 00 	sethi  %hi(0x1000000), %i5
40006a1c:	b6 16 e1 e0 	or  %i3, 0x1e0, %i3
40006a20:	f8 3f bf f8 	std  %i4, [ %fp + -8 ]
40006a24:	fa 23 a0 5c 	st  %i5, [ %sp + 0x5c ]
40006a28:	9a 10 20 00 	clr  %o5
40006a2c:	90 10 00 1b 	mov  %i3, %o0
40006a30:	92 10 20 00 	clr  %o1
40006a34:	94 10 20 00 	clr  %o2
40006a38:	96 10 20 00 	clr  %o3
40006a3c:	40 00 0f 38 	call  4000a71c <writeThreadDataRegister>
40006a40:	98 10 20 07 	mov  7, %o4
40006a44:	80 a2 20 00 	cmp  %o0, 0
40006a48:	32 bf ff f7 	bne,a   40006a24 <set_args+0x18>
40006a4c:	f8 3f bf f8 	std  %i4, [ %fp + -8 ]
40006a50:	b8 10 20 00 	clr  %i4
40006a54:	3b 00 40 10 	sethi  %hi(0x1004000), %i5
40006a58:	f8 3f bf f8 	std  %i4, [ %fp + -8 ]
40006a5c:	fa 23 a0 5c 	st  %i5, [ %sp + 0x5c ]
40006a60:	9a 10 20 00 	clr  %o5
40006a64:	90 10 00 1b 	mov  %i3, %o0
40006a68:	92 10 20 00 	clr  %o1
40006a6c:	94 10 20 00 	clr  %o2
40006a70:	96 10 20 01 	mov  1, %o3
40006a74:	40 00 0f 2a 	call  4000a71c <writeThreadDataRegister>
40006a78:	98 10 20 07 	mov  7, %o4
40006a7c:	80 a2 20 00 	cmp  %o0, 0
40006a80:	32 bf ff f7 	bne,a   40006a5c <set_args+0x50>
40006a84:	f8 3f bf f8 	std  %i4, [ %fp + -8 ]
40006a88:	b8 10 20 00 	clr  %i4
40006a8c:	3b 00 40 20 	sethi  %hi(0x1008000), %i5
40006a90:	f8 3f bf f8 	std  %i4, [ %fp + -8 ]
40006a94:	fa 23 a0 5c 	st  %i5, [ %sp + 0x5c ]
40006a98:	9a 10 20 00 	clr  %o5
40006a9c:	90 10 00 1b 	mov  %i3, %o0
40006aa0:	92 10 20 00 	clr  %o1
40006aa4:	94 10 20 00 	clr  %o2
40006aa8:	96 10 20 02 	mov  2, %o3
40006aac:	40 00 0f 1c 	call  4000a71c <writeThreadDataRegister>
40006ab0:	98 10 20 07 	mov  7, %o4
40006ab4:	80 a2 20 00 	cmp  %o0, 0
40006ab8:	32 bf ff f7 	bne,a   40006a94 <set_args+0x88>
40006abc:	f8 3f bf f8 	std  %i4, [ %fp + -8 ]
40006ac0:	b8 10 20 00 	clr  %i4
40006ac4:	3b 00 40 30 	sethi  %hi(0x100c000), %i5
40006ac8:	f8 3f bf f8 	std  %i4, [ %fp + -8 ]
40006acc:	fa 23 a0 5c 	st  %i5, [ %sp + 0x5c ]
40006ad0:	9a 10 20 00 	clr  %o5
40006ad4:	90 10 00 1b 	mov  %i3, %o0
40006ad8:	92 10 20 00 	clr  %o1
40006adc:	94 10 20 00 	clr  %o2
40006ae0:	96 10 20 03 	mov  3, %o3
40006ae4:	40 00 0f 0e 	call  4000a71c <writeThreadDataRegister>
40006ae8:	98 10 20 07 	mov  7, %o4
40006aec:	80 a2 20 00 	cmp  %o0, 0
40006af0:	32 bf ff f7 	bne,a   40006acc <set_args+0xc0>
40006af4:	f8 3f bf f8 	std  %i4, [ %fp + -8 ]
40006af8:	81 c7 e0 08 	ret 
40006afc:	81 e8 00 00 	restore 

40006b00 <dump_registers>:
40006b00:	9d e3 bf 98 	save  %sp, -104, %sp
40006b04:	39 10 00 68 	sethi  %hi(0x4001a000), %i4
40006b08:	33 10 00 50 	sethi  %hi(0x40014000), %i1
40006b0c:	b4 10 20 00 	clr  %i2
40006b10:	b6 0e 20 ff 	and  %i0, 0xff, %i3
40006b14:	b8 17 21 e0 	or  %i4, 0x1e0, %i4
40006b18:	b2 16 62 80 	or  %i1, 0x280, %i1
40006b1c:	ba 0e a0 ff 	and  %i2, 0xff, %i5
40006b20:	90 10 00 1c 	mov  %i4, %o0
40006b24:	92 10 20 00 	clr  %o1
40006b28:	94 10 20 00 	clr  %o2
40006b2c:	96 10 00 1b 	mov  %i3, %o3
40006b30:	98 10 00 1d 	mov  %i5, %o4
40006b34:	40 00 0f 41 	call  4000a838 <readThreadDataRegister>
40006b38:	9a 07 bf f8 	add  %fp, -8, %o5
40006b3c:	80 a2 20 00 	cmp  %o0, 0
40006b40:	12 bf ff f9 	bne  40006b24 <dump_registers+0x24>
40006b44:	90 10 00 1c 	mov  %i4, %o0
40006b48:	96 10 00 1a 	mov  %i2, %o3
40006b4c:	90 10 00 19 	mov  %i1, %o0
40006b50:	d2 07 bf f8 	ld  [ %fp + -8 ], %o1
40006b54:	d4 07 bf fc 	ld  [ %fp + -4 ], %o2
40006b58:	7f ff fe 9a 	call  400065c0 <cortos_printf>
40006b5c:	98 10 00 18 	mov  %i0, %o4
40006b60:	b4 06 a0 01 	inc  %i2
40006b64:	80 a6 a0 20 	cmp  %i2, 0x20
40006b68:	12 bf ff ee 	bne  40006b20 <dump_registers+0x20>
40006b6c:	ba 0e a0 ff 	and  %i2, 0xff, %i5
40006b70:	81 c7 e0 08 	ret 
40006b74:	81 e8 00 00 	restore 

40006b78 <ptr_check>:
40006b78:	9d e3 bf a0 	save  %sp, -96, %sp
40006b7c:	21 10 00 50 	sethi  %hi(0x40014000), %l0
40006b80:	35 00 00 0a 	sethi  %hi(0x2800), %i2
40006b84:	31 10 00 50 	sethi  %hi(0x40014000), %i0
40006b88:	37 00 40 0a 	sethi  %hi(0x1002800), %i3
40006b8c:	3b 00 40 00 	sethi  %hi(0x1000000), %i5
40006b90:	33 3f c0 00 	sethi  %hi(0xff000000), %i1
40006b94:	a0 14 22 a0 	or  %l0, 0x2a0, %l0
40006b98:	b4 16 a0 a0 	or  %i2, 0xa0, %i2
40006b9c:	b0 16 22 c0 	or  %i0, 0x2c0, %i0
40006ba0:	b6 16 e0 a0 	or  %i3, 0xa0, %i3
40006ba4:	d4 0f 40 00 	ldub  [ %i5 ], %o2
40006ba8:	80 a2 a0 02 	cmp  %o2, 2
40006bac:	02 80 00 05 	be  40006bc0 <ptr_check+0x48>
40006bb0:	b8 07 40 19 	add  %i5, %i1, %i4
40006bb4:	92 10 00 1c 	mov  %i4, %o1
40006bb8:	7f ff fe 82 	call  400065c0 <cortos_printf>
40006bbc:	90 10 00 10 	mov  %l0, %o0
40006bc0:	c2 0f 40 1a 	ldub  [ %i5 + %i2 ], %g1
40006bc4:	80 a0 60 02 	cmp  %g1, 2
40006bc8:	02 80 00 05 	be  40006bdc <ptr_check+0x64>
40006bcc:	90 10 00 18 	mov  %i0, %o0
40006bd0:	d4 0f 40 00 	ldub  [ %i5 ], %o2
40006bd4:	7f ff fe 7b 	call  400065c0 <cortos_printf>
40006bd8:	92 10 00 1c 	mov  %i4, %o1
40006bdc:	ba 07 60 01 	inc  %i5
40006be0:	80 a7 40 1b 	cmp  %i5, %i3
40006be4:	32 bf ff f1 	bne,a   40006ba8 <ptr_check+0x30>
40006be8:	d4 0f 40 00 	ldub  [ %i5 ], %o2
40006bec:	81 c7 e0 08 	ret 
40006bf0:	81 e8 00 00 	restore 

40006bf4 <wait_on_thread_init>:
40006bf4:	9d e3 bf a0 	save  %sp, -96, %sp
40006bf8:	3b 10 00 68 	sethi  %hi(0x4001a000), %i5
40006bfc:	10 80 00 04 	b  40006c0c <wait_on_thread_init+0x18>
40006c00:	ba 17 61 e0 	or  %i5, 0x1e0, %i5	! 4001a1e0 <hms>
40006c04:	7f ff f1 62 	call  4000318c <__ajit_sleep__>
40006c08:	90 10 24 00 	mov  0x400, %o0
40006c0c:	92 10 20 00 	clr  %o1
40006c10:	94 10 20 00 	clr  %o2
40006c14:	96 10 20 00 	clr  %o3
40006c18:	98 10 00 18 	mov  %i0, %o4
40006c1c:	9a 10 20 00 	clr  %o5
40006c20:	40 00 10 db 	call  4000af8c <readFromConfigRegister>
40006c24:	90 10 00 1d 	mov  %i5, %o0
40006c28:	80 8a 20 80 	btst  0x80, %o0
40006c2c:	02 bf ff f6 	be  40006c04 <wait_on_thread_init+0x10>
40006c30:	01 00 00 00 	nop 
40006c34:	81 c7 e0 08 	ret 
40006c38:	91 e8 00 08 	restore  %g0, %o0, %o0

40006c3c <clear_registers>:
40006c3c:	9d e3 bf 88 	save  %sp, -120, %sp
40006c40:	35 10 00 68 	sethi  %hi(0x4001a000), %i2
40006c44:	33 10 00 50 	sethi  %hi(0x40014000), %i1
40006c48:	b8 10 20 00 	clr  %i4
40006c4c:	ba 10 20 00 	clr  %i5
40006c50:	b0 0e 20 ff 	and  %i0, 0xff, %i0
40006c54:	b4 16 a1 e0 	or  %i2, 0x1e0, %i2
40006c58:	b2 16 62 e0 	or  %i1, 0x2e0, %i1
40006c5c:	b6 0f 60 ff 	and  %i5, 0xff, %i3
40006c60:	c0 27 bf f0 	clr  [ %fp + -16 ]
40006c64:	c0 27 bf f4 	clr  [ %fp + -12 ]
40006c68:	c0 23 a0 5c 	clr  [ %sp + 0x5c ]
40006c6c:	9a 10 20 00 	clr  %o5
40006c70:	90 10 00 1a 	mov  %i2, %o0
40006c74:	92 10 20 00 	clr  %o1
40006c78:	94 10 20 00 	clr  %o2
40006c7c:	96 10 00 18 	mov  %i0, %o3
40006c80:	40 00 0e a7 	call  4000a71c <writeThreadDataRegister>
40006c84:	98 10 00 1b 	mov  %i3, %o4
40006c88:	80 a2 20 00 	cmp  %o0, 0
40006c8c:	32 bf ff f6 	bne,a   40006c64 <clear_registers+0x28>
40006c90:	c0 27 bf f0 	clr  [ %fp + -16 ]
40006c94:	90 10 00 1a 	mov  %i2, %o0
40006c98:	92 10 20 00 	clr  %o1
40006c9c:	94 10 20 00 	clr  %o2
40006ca0:	96 10 00 18 	mov  %i0, %o3
40006ca4:	98 10 00 1b 	mov  %i3, %o4
40006ca8:	40 00 0e e4 	call  4000a838 <readThreadDataRegister>
40006cac:	9a 07 bf f8 	add  %fp, -8, %o5
40006cb0:	80 a2 20 00 	cmp  %o0, 0
40006cb4:	32 bf ff f9 	bne,a   40006c98 <clear_registers+0x5c>
40006cb8:	90 10 00 1a 	mov  %i2, %o0
40006cbc:	d4 1f bf f8 	ldd  [ %fp + -8 ], %o2
40006cc0:	80 92 80 0b 	orcc  %o2, %o3, %g0
40006cc4:	12 80 00 0d 	bne  40006cf8 <clear_registers+0xbc>
40006cc8:	90 10 00 19 	mov  %i1, %o0
40006ccc:	86 87 60 01 	addcc  %i5, 1, %g3
40006cd0:	84 47 20 00 	addx  %i4, 0, %g2
40006cd4:	ba 10 00 03 	mov  %g3, %i5
40006cd8:	80 a0 a0 00 	cmp  %g2, 0
40006cdc:	12 bf ff e0 	bne  40006c5c <clear_registers+0x20>
40006ce0:	b8 10 00 02 	mov  %g2, %i4
40006ce4:	80 a0 e0 20 	cmp  %g3, 0x20
40006ce8:	12 bf ff de 	bne  40006c60 <clear_registers+0x24>
40006cec:	b6 0f 60 ff 	and  %i5, 0xff, %i3
40006cf0:	81 c7 e0 08 	ret 
40006cf4:	81 e8 00 00 	restore 
40006cf8:	7f ff fe 32 	call  400065c0 <cortos_printf>
40006cfc:	92 10 00 1d 	mov  %i5, %o1
40006d00:	10 bf ff f4 	b  40006cd0 <clear_registers+0x94>
40006d04:	86 87 60 01 	addcc  %i5, 1, %g3

40006d08 <clear_all_registers>:
40006d08:	9d e3 bf a0 	save  %sp, -96, %sp
40006d0c:	7f ff ff cc 	call  40006c3c <clear_registers>
40006d10:	90 10 20 00 	clr  %o0
40006d14:	7f ff ff ca 	call  40006c3c <clear_registers>
40006d18:	90 10 20 01 	mov  1, %o0
40006d1c:	90 10 20 02 	mov  2, %o0
40006d20:	7f ff ff c7 	call  40006c3c <clear_registers>
40006d24:	b0 10 20 03 	mov  3, %i0
40006d28:	7f ff ff c5 	call  40006c3c <clear_registers>
40006d2c:	81 e8 00 00 	restore 

40006d30 <load_imem>:
40006d30:	9d e3 bf 98 	save  %sp, -104, %sp
40006d34:	11 10 00 50 	sethi  %hi(0x40014000), %o0
40006d38:	92 10 00 18 	mov  %i0, %o1
40006d3c:	90 12 23 08 	or  %o0, 0x308, %o0
40006d40:	7f ff fe 20 	call  400065c0 <cortos_printf>
40006d44:	94 10 00 19 	mov  %i1, %o2
40006d48:	80 a6 20 00 	cmp  %i0, 0
40006d4c:	02 80 00 24 	be  40006ddc <load_imem+0xac>
40006d50:	ba 10 20 00 	clr  %i5
40006d54:	39 10 00 68 	sethi  %hi(0x4001a000), %i4
40006d58:	35 10 00 50 	sethi  %hi(0x40014000), %i2
40006d5c:	b8 17 21 e0 	or  %i4, 0x1e0, %i4
40006d60:	b4 16 a3 40 	or  %i2, 0x340, %i2
40006d64:	f6 06 40 00 	ld  [ %i1 ], %i3
40006d68:	90 10 00 1c 	mov  %i4, %o0
40006d6c:	92 10 20 00 	clr  %o1
40006d70:	94 10 20 00 	clr  %o2
40006d74:	96 10 00 1d 	mov  %i5, %o3
40006d78:	40 00 0d c0 	call  4000a478 <writeInstructionToEngineInstrMemory>
40006d7c:	98 10 00 1b 	mov  %i3, %o4
40006d80:	80 a2 20 00 	cmp  %o0, 0
40006d84:	12 bf ff fa 	bne  40006d6c <load_imem+0x3c>
40006d88:	90 10 00 1c 	mov  %i4, %o0
40006d8c:	c0 27 bf fc 	clr  [ %fp + -4 ]
40006d90:	92 10 20 00 	clr  %o1
40006d94:	94 10 20 00 	clr  %o2
40006d98:	96 10 00 1d 	mov  %i5, %o3
40006d9c:	40 00 0d f2 	call  4000a564 <readInstructionFromEngineInstrMemory>
40006da0:	98 07 bf fc 	add  %fp, -4, %o4
40006da4:	80 a2 20 00 	cmp  %o0, 0
40006da8:	12 bf ff fa 	bne  40006d90 <load_imem+0x60>
40006dac:	90 10 00 1c 	mov  %i4, %o0
40006db0:	d6 07 bf fc 	ld  [ %fp + -4 ], %o3
40006db4:	80 a6 c0 0b 	cmp  %i3, %o3
40006db8:	02 80 00 05 	be  40006dcc <load_imem+0x9c>
40006dbc:	90 10 00 1a 	mov  %i2, %o0
40006dc0:	92 10 00 1d 	mov  %i5, %o1
40006dc4:	7f ff fd ff 	call  400065c0 <cortos_printf>
40006dc8:	94 10 00 1b 	mov  %i3, %o2
40006dcc:	ba 07 60 01 	inc  %i5
40006dd0:	80 a7 40 18 	cmp  %i5, %i0
40006dd4:	12 bf ff e4 	bne  40006d64 <load_imem+0x34>
40006dd8:	b2 06 60 04 	add  %i1, 4, %i1
40006ddc:	81 c7 e0 08 	ret 
40006de0:	81 e8 00 00 	restore 

40006de4 <load_dmem>:
40006de4:	9d e3 bf a0 	save  %sp, -96, %sp
40006de8:	35 10 00 50 	sethi  %hi(0x40014000), %i2
40006dec:	b1 36 20 02 	srl  %i0, 2, %i0
40006df0:	b6 10 20 00 	clr  %i3
40006df4:	80 a6 20 00 	cmp  %i0, 0
40006df8:	02 80 00 13 	be  40006e44 <load_dmem+0x60>
40006dfc:	b4 16 a3 70 	or  %i2, 0x370, %i2
40006e00:	d4 06 60 08 	ld  [ %i1 + 8 ], %o2
40006e04:	c2 06 40 00 	ld  [ %i1 ], %g1
40006e08:	83 28 60 03 	sll  %g1, 3, %g1
40006e0c:	f8 06 60 04 	ld  [ %i1 + 4 ], %i4
40006e10:	96 10 00 0a 	mov  %o2, %o3
40006e14:	ba 10 20 00 	clr  %i5
40006e18:	94 10 20 00 	clr  %o2
40006e1c:	96 17 40 0b 	or  %i5, %o3, %o3
40006e20:	94 17 00 0a 	or  %i4, %o2, %o2
40006e24:	90 10 00 1a 	mov  %i2, %o0
40006e28:	92 10 00 01 	mov  %g1, %o1
40006e2c:	7f ff fd e5 	call  400065c0 <cortos_printf>
40006e30:	d4 38 40 00 	std  %o2, [ %g1 ]
40006e34:	b6 06 e0 03 	add  %i3, 3, %i3
40006e38:	80 a6 00 1b 	cmp  %i0, %i3
40006e3c:	18 bf ff f1 	bgu  40006e00 <load_dmem+0x1c>
40006e40:	b2 06 60 0c 	add  %i1, 0xc, %i1
40006e44:	81 c7 e0 08 	ret 
40006e48:	81 e8 00 00 	restore 

40006e4c <dotp_on_processor>:
40006e4c:	9d e3 bf a0 	save  %sp, -96, %sp
40006e50:	37 10 00 54 	sethi  %hi(0x40015000), %i3
40006e54:	05 00 00 0a 	sethi  %hi(0x2800), %g2
40006e58:	82 10 20 00 	clr  %g1
40006e5c:	b6 16 e0 98 	or  %i3, 0x98, %i3
40006e60:	86 10 20 02 	mov  2, %g3
40006e64:	84 10 a0 a0 	or  %g2, 0xa0, %g2
40006e68:	c6 2e c0 01 	stb  %g3, [ %i3 + %g1 ]
40006e6c:	88 06 c0 01 	add  %i3, %g1, %g4
40006e70:	82 00 60 01 	inc  %g1
40006e74:	80 a0 40 02 	cmp  %g1, %g2
40006e78:	12 bf ff fc 	bne  40006e68 <dotp_on_processor+0x1c>
40006e7c:	c6 29 00 02 	stb  %g3, [ %g4 + %g2 ]
40006e80:	7f ff f0 b9 	call  40003164 <__ajit_get_clock_time>
40006e84:	b2 10 20 00 	clr  %i1
40006e88:	05 00 00 0a 	sethi  %hi(0x2800), %g2
40006e8c:	b8 10 00 08 	mov  %o0, %i4
40006e90:	ba 10 00 09 	mov  %o1, %i5
40006e94:	82 10 20 00 	clr  %g1
40006e98:	84 10 a0 a0 	or  %g2, 0xa0, %g2
40006e9c:	c8 0e c0 01 	ldub  [ %i3 + %g1 ], %g4
40006ea0:	86 06 c0 01 	add  %i3, %g1, %g3
40006ea4:	82 00 60 01 	inc  %g1
40006ea8:	c6 08 c0 02 	ldub  [ %g3 + %g2 ], %g3
40006eac:	80 a0 40 02 	cmp  %g1, %g2
40006eb0:	86 59 00 03 	smul  %g4, %g3, %g3
40006eb4:	12 bf ff fa 	bne  40006e9c <dotp_on_processor+0x50>
40006eb8:	b2 06 40 03 	add  %i1, %g3, %i1
40006ebc:	7f ff f0 aa 	call  40003164 <__ajit_get_clock_time>
40006ec0:	31 10 00 50 	sethi  %hi(0x40014000), %i0
40006ec4:	03 10 00 68 	sethi  %hi(0x4001a000), %g1
40006ec8:	92 a2 40 1d 	subcc  %o1, %i5, %o1
40006ecc:	90 62 00 1c 	subx  %o0, %i4, %o0
40006ed0:	89 32 60 1e 	srl  %o1, 0x1e, %g4
40006ed4:	85 2a 20 02 	sll  %o0, 2, %g2
40006ed8:	87 2a 60 02 	sll  %o1, 2, %g3
40006edc:	84 11 00 02 	or  %g4, %g2, %g2
40006ee0:	b0 16 23 90 	or  %i0, 0x390, %i0
40006ee4:	c4 38 61 d8 	std  %g2, [ %g1 + 0x1d8 ]
40006ee8:	f4 18 61 d8 	ldd  [ %g1 + 0x1d8 ], %i2
40006eec:	7f ff fd b5 	call  400065c0 <cortos_printf>
40006ef0:	81 e8 00 00 	restore 

40006ef4 <matmul_on_processor>:
40006ef4:	9d e3 bf a0 	save  %sp, -96, %sp
40006ef8:	35 10 00 54 	sethi  %hi(0x40015000), %i2
40006efc:	88 10 20 02 	mov  2, %g4
40006f00:	b4 16 a0 98 	or  %i2, 0x98, %i2
40006f04:	b0 06 a4 00 	add  %i2, 0x400, %i0
40006f08:	82 10 00 1a 	mov  %i2, %g1
40006f0c:	84 10 00 1a 	mov  %i2, %g2
40006f10:	86 10 00 18 	mov  %i0, %g3
40006f14:	c8 28 40 00 	stb  %g4, [ %g1 ]
40006f18:	82 00 60 01 	inc  %g1
40006f1c:	80 a0 40 03 	cmp  %g1, %g3
40006f20:	32 bf ff fe 	bne,a   40006f18 <matmul_on_processor+0x24>
40006f24:	c8 28 40 00 	stb  %g4, [ %g1 ]
40006f28:	82 10 00 18 	mov  %i0, %g1
40006f2c:	88 00 a8 00 	add  %g2, 0x800, %g4
40006f30:	86 10 20 02 	mov  2, %g3
40006f34:	c6 28 40 00 	stb  %g3, [ %g1 ]
40006f38:	82 00 60 01 	inc  %g1
40006f3c:	80 a0 40 04 	cmp  %g1, %g4
40006f40:	32 bf ff fe 	bne,a   40006f38 <matmul_on_processor+0x44>
40006f44:	c6 28 40 00 	stb  %g3, [ %g1 ]
40006f48:	03 00 00 06 	sethi  %hi(0x1800), %g1
40006f4c:	21 10 00 56 	sethi  %hi(0x40015800), %l0
40006f50:	84 00 80 01 	add  %g2, %g1, %g2
40006f54:	a0 14 20 98 	or  %l0, 0x98, %l0
40006f58:	82 10 00 10 	mov  %l0, %g1
40006f5c:	c0 20 40 00 	clr  [ %g1 ]
40006f60:	82 00 60 04 	add  %g1, 4, %g1
40006f64:	80 a0 40 02 	cmp  %g1, %g2
40006f68:	32 bf ff fe 	bne,a   40006f60 <matmul_on_processor+0x6c>
40006f6c:	c0 20 40 00 	clr  [ %g1 ]
40006f70:	7f ff f0 7d 	call  40003164 <__ajit_get_clock_time>
40006f74:	b2 10 20 00 	clr  %i1
40006f78:	b8 10 00 08 	mov  %o0, %i4
40006f7c:	ba 10 00 09 	mov  %o1, %i5
40006f80:	9a 10 00 10 	mov  %l0, %o5
40006f84:	9e 10 20 00 	clr  %o7
40006f88:	84 10 00 0f 	mov  %o7, %g2
40006f8c:	86 10 20 00 	clr  %g3
40006f90:	82 10 20 00 	clr  %g1
40006f94:	b6 06 80 01 	add  %i2, %g1, %i3
40006f98:	c8 0e 00 02 	ldub  [ %i0 + %g2 ], %g4
40006f9c:	f6 0e c0 19 	ldub  [ %i3 + %i1 ], %i3
40006fa0:	82 00 60 01 	inc  %g1
40006fa4:	88 5e c0 04 	smul  %i3, %g4, %g4
40006fa8:	84 00 a0 20 	add  %g2, 0x20, %g2
40006fac:	80 a0 60 20 	cmp  %g1, 0x20
40006fb0:	12 bf ff f9 	bne  40006f94 <matmul_on_processor+0xa0>
40006fb4:	86 00 c0 04 	add  %g3, %g4, %g3
40006fb8:	c6 23 40 00 	st  %g3, [ %o5 ]
40006fbc:	9e 03 e0 01 	inc  %o7
40006fc0:	80 a3 e0 20 	cmp  %o7, 0x20
40006fc4:	12 bf ff f1 	bne  40006f88 <matmul_on_processor+0x94>
40006fc8:	9a 03 60 04 	add  %o5, 4, %o5
40006fcc:	b2 06 60 20 	add  %i1, 0x20, %i1
40006fd0:	80 a6 64 00 	cmp  %i1, 0x400
40006fd4:	12 bf ff eb 	bne  40006f80 <matmul_on_processor+0x8c>
40006fd8:	a0 04 20 80 	add  %l0, 0x80, %l0
40006fdc:	7f ff f0 62 	call  40003164 <__ajit_get_clock_time>
40006fe0:	31 10 00 50 	sethi  %hi(0x40014000), %i0
40006fe4:	92 a2 40 1d 	subcc  %o1, %i5, %o1
40006fe8:	87 2a 60 02 	sll  %o1, 2, %g3
40006fec:	90 62 00 1c 	subx  %o0, %i4, %o0
40006ff0:	89 32 60 1e 	srl  %o1, 0x1e, %g4
40006ff4:	85 2a 20 02 	sll  %o0, 2, %g2
40006ff8:	84 11 00 02 	or  %g4, %g2, %g2
40006ffc:	03 10 00 68 	sethi  %hi(0x4001a000), %g1
40007000:	c4 38 61 d8 	std  %g2, [ %g1 + 0x1d8 ]	! 4001a1d8 <processor_ticks>
40007004:	b0 16 23 c0 	or  %i0, 0x3c0, %i0
40007008:	c4 18 61 d8 	ldd  [ %g1 + 0x1d8 ], %g2
4000700c:	b2 10 00 02 	mov  %g2, %i1
40007010:	7f ff fd 6c 	call  400065c0 <cortos_printf>
40007014:	95 e8 00 03 	restore  %g0, %g3, %o2

40007018 <fft_across_all_threads>:
40007018:	9d e3 bf 70 	save  %sp, -144, %sp
4000701c:	11 10 00 50 	sethi  %hi(0x40014000), %o0
40007020:	39 10 00 51 	sethi  %hi(0x40014400), %i4
40007024:	90 12 23 e8 	or  %o0, 0x3e8, %o0
40007028:	7f ff fd 66 	call  400065c0 <cortos_printf>
4000702c:	ba 10 20 00 	clr  %i5
40007030:	b8 17 20 08 	or  %i4, 8, %i4
40007034:	92 10 00 1d 	mov  %i5, %o1
40007038:	7f ff fd 62 	call  400065c0 <cortos_printf>
4000703c:	90 10 00 1c 	mov  %i4, %o0
40007040:	7f ff fe ff 	call  40006c3c <clear_registers>
40007044:	90 10 00 1d 	mov  %i5, %o0
40007048:	7f ff fe 71 	call  40006a0c <set_args>
4000704c:	ba 07 60 01 	inc  %i5
40007050:	80 a7 60 04 	cmp  %i5, 4
40007054:	12 bf ff f9 	bne  40007038 <fft_across_all_threads+0x20>
40007058:	92 10 00 1d 	mov  %i5, %o1
4000705c:	7f ff f0 42 	call  40003164 <__ajit_get_clock_time>
40007060:	39 10 00 68 	sethi  %hi(0x4001a000), %i4
40007064:	b6 10 20 00 	clr  %i3
40007068:	b8 17 21 e0 	or  %i4, 0x1e0, %i4
4000706c:	ba 0e e0 ff 	and  %i3, 0xff, %i5
40007070:	90 10 00 1c 	mov  %i4, %o0
40007074:	92 10 20 00 	clr  %o1
40007078:	94 10 20 00 	clr  %o2
4000707c:	96 10 00 1d 	mov  %i5, %o3
40007080:	40 00 0e 3f 	call  4000a97c <runEngineThread>
40007084:	98 10 20 00 	clr  %o4
40007088:	80 a2 20 00 	cmp  %o0, 0
4000708c:	12 bf ff fa 	bne  40007074 <fft_across_all_threads+0x5c>
40007090:	90 10 00 1c 	mov  %i4, %o0
40007094:	b6 06 e0 01 	inc  %i3
40007098:	80 a6 e0 04 	cmp  %i3, 4
4000709c:	12 bf ff f6 	bne  40007074 <fft_across_all_threads+0x5c>
400070a0:	ba 0e e0 ff 	and  %i3, 0xff, %i5
400070a4:	7f ff f0 30 	call  40003164 <__ajit_get_clock_time>
400070a8:	a0 10 20 00 	clr  %l0
400070ac:	b4 10 00 08 	mov  %o0, %i2
400070b0:	b6 10 00 09 	mov  %o1, %i3
400070b4:	a2 07 bf e0 	add  %fp, -32, %l1
400070b8:	a4 07 bf f0 	add  %fp, -16, %l2
400070bc:	b0 10 00 1c 	mov  %i4, %i0
400070c0:	bb 2c 20 02 	sll  %l0, 2, %i5
400070c4:	b2 0c 20 ff 	and  %l0, 0xff, %i1
400070c8:	b8 04 40 1d 	add  %l1, %i5, %i4
400070cc:	ba 04 80 1d 	add  %l2, %i5, %i5
400070d0:	90 10 00 18 	mov  %i0, %o0
400070d4:	92 10 20 00 	clr  %o1
400070d8:	94 10 20 00 	clr  %o2
400070dc:	96 10 00 19 	mov  %i1, %o3
400070e0:	98 10 00 1c 	mov  %i4, %o4
400070e4:	40 00 0e 93 	call  4000ab30 <checkIfThreadHasCompleted>
400070e8:	9a 10 00 1d 	mov  %i5, %o5
400070ec:	80 a2 20 00 	cmp  %o0, 0
400070f0:	32 bf ff f9 	bne,a   400070d4 <fft_across_all_threads+0xbc>
400070f4:	90 10 00 18 	mov  %i0, %o0
400070f8:	a0 04 20 01 	inc  %l0
400070fc:	80 a4 20 04 	cmp  %l0, 4
40007100:	12 bf ff f1 	bne  400070c4 <fft_across_all_threads+0xac>
40007104:	bb 2c 20 02 	sll  %l0, 2, %i5
40007108:	7f ff f0 17 	call  40003164 <__ajit_get_clock_time>
4000710c:	29 10 00 51 	sethi  %hi(0x40014400), %l4
40007110:	03 10 00 6a 	sethi  %hi(0x4001a800), %g1
40007114:	ba a2 40 1b 	subcc  %o1, %i3, %i5
40007118:	b0 10 00 08 	mov  %o0, %i0
4000711c:	b8 66 00 1a 	subx  %i0, %i2, %i4
40007120:	b2 10 00 09 	mov  %o1, %i1
40007124:	f8 38 62 00 	std  %i4, [ %g1 + 0x200 ]
40007128:	a6 10 20 00 	clr  %l3
4000712c:	a0 10 20 00 	clr  %l0
40007130:	a8 15 20 30 	or  %l4, 0x30, %l4
40007134:	92 10 00 10 	mov  %l0, %o1
40007138:	d4 04 40 13 	ld  [ %l1 + %l3 ], %o2
4000713c:	d6 04 80 13 	ld  [ %l2 + %l3 ], %o3
40007140:	7f ff fd 20 	call  400065c0 <cortos_printf>
40007144:	90 10 00 14 	mov  %l4, %o0
40007148:	a0 04 20 01 	inc  %l0
4000714c:	80 a4 20 04 	cmp  %l0, 4
40007150:	12 bf ff f9 	bne  40007134 <fft_across_all_threads+0x11c>
40007154:	a6 04 e0 04 	add  %l3, 4, %l3
40007158:	11 10 00 51 	sethi  %hi(0x40014400), %o0
4000715c:	7f ff fd 19 	call  400065c0 <cortos_printf>
40007160:	90 12 20 60 	or  %o0, 0x60, %o0	! 40014460 <__clz_tab+0x3d0>
40007164:	9a 10 00 1c 	mov  %i4, %o5
40007168:	f8 3f bf d8 	std  %i4, [ %fp + -40 ]
4000716c:	fa 23 a0 5c 	st  %i5, [ %sp + 0x5c ]
40007170:	11 10 00 51 	sethi  %hi(0x40014400), %o0
40007174:	92 10 00 1a 	mov  %i2, %o1
40007178:	94 10 00 1b 	mov  %i3, %o2
4000717c:	96 10 00 18 	mov  %i0, %o3
40007180:	98 10 00 19 	mov  %i1, %o4
40007184:	7f ff fd 0f 	call  400065c0 <cortos_printf>
40007188:	90 12 20 88 	or  %o0, 0x88, %o0
4000718c:	81 c7 e0 08 	ret 
40007190:	81 e8 00 00 	restore 

40007194 <main_00>:
40007194:	9d e3 bf a0 	save  %sp, -96, %sp
40007198:	35 10 00 6a 	sethi  %hi(0x4001a800), %i2
4000719c:	7f ff ee d9 	call  40002d00 <get_blob_info>
400071a0:	90 16 a2 08 	or  %i2, 0x208, %o0	! 4001aa08 <blob_info>
400071a4:	d2 06 a2 08 	ld  [ %i2 + 0x208 ], %o1
400071a8:	b8 16 a2 08 	or  %i2, 0x208, %i4
400071ac:	11 10 00 51 	sethi  %hi(0x40014400), %o0
400071b0:	d4 07 20 04 	ld  [ %i4 + 4 ], %o2
400071b4:	90 12 20 c0 	or  %o0, 0xc0, %o0
400071b8:	d6 07 20 08 	ld  [ %i4 + 8 ], %o3
400071bc:	d8 07 20 0c 	ld  [ %i4 + 0xc ], %o4
400071c0:	7f ff fd 00 	call  400065c0 <cortos_printf>
400071c4:	33 10 00 68 	sethi  %hi(0x4001a000), %i1
400071c8:	11 10 00 51 	sethi  %hi(0x40014400), %o0
400071cc:	90 12 20 e8 	or  %o0, 0xe8, %o0	! 400144e8 <__clz_tab+0x458>
400071d0:	b6 10 20 00 	clr  %i3
400071d4:	7f ff fc fb 	call  400065c0 <cortos_printf>
400071d8:	ba 10 20 00 	clr  %i5
400071dc:	b2 16 61 e0 	or  %i1, 0x1e0, %i1
400071e0:	7f ff fe 85 	call  40006bf4 <wait_on_thread_init>
400071e4:	90 10 00 1d 	mov  %i5, %o0
400071e8:	96 10 00 1d 	mov  %i5, %o3
400071ec:	90 10 00 19 	mov  %i1, %o0
400071f0:	92 10 20 00 	clr  %o1
400071f4:	40 00 0e ee 	call  4000adac <enableThreadCommandDaemon>
400071f8:	94 10 20 00 	clr  %o2
400071fc:	b6 06 e0 01 	inc  %i3
40007200:	ba 0e e0 ff 	and  %i3, 0xff, %i5
40007204:	80 a7 60 04 	cmp  %i5, 4
40007208:	12 bf ff f6 	bne  400071e0 <main_00+0x4c>
4000720c:	11 10 00 51 	sethi  %hi(0x40014400), %o0
40007210:	7f ff fc ec 	call  400065c0 <cortos_printf>
40007214:	90 12 21 00 	or  %o0, 0x100, %o0	! 40014500 <__clz_tab+0x470>
40007218:	d2 06 a2 08 	ld  [ %i2 + 0x208 ], %o1
4000721c:	11 10 00 51 	sethi  %hi(0x40014400), %o0
40007220:	d4 07 20 04 	ld  [ %i4 + 4 ], %o2
40007224:	7f ff fc e7 	call  400065c0 <cortos_printf>
40007228:	90 12 21 18 	or  %o0, 0x118, %o0
4000722c:	d0 06 a2 08 	ld  [ %i2 + 0x208 ], %o0
40007230:	d2 07 20 04 	ld  [ %i4 + 4 ], %o1
40007234:	7f ff fe bf 	call  40006d30 <load_imem>
40007238:	91 32 20 02 	srl  %o0, 2, %o0
4000723c:	d2 06 a2 08 	ld  [ %i2 + 0x208 ], %o1
40007240:	3b 10 00 51 	sethi  %hi(0x40014400), %i5
40007244:	d4 07 20 04 	ld  [ %i4 + 4 ], %o2
40007248:	7f ff fc de 	call  400065c0 <cortos_printf>
4000724c:	90 17 61 40 	or  %i5, 0x140, %o0
40007250:	d2 07 20 08 	ld  [ %i4 + 8 ], %o1
40007254:	11 10 00 51 	sethi  %hi(0x40014400), %o0
40007258:	d4 07 20 0c 	ld  [ %i4 + 0xc ], %o2
4000725c:	7f ff fc d9 	call  400065c0 <cortos_printf>
40007260:	90 12 21 70 	or  %o0, 0x170, %o0
40007264:	d0 07 20 08 	ld  [ %i4 + 8 ], %o0
40007268:	d2 07 20 0c 	ld  [ %i4 + 0xc ], %o1
4000726c:	7f ff fe de 	call  40006de4 <load_dmem>
40007270:	01 00 00 00 	nop 
40007274:	d2 07 20 08 	ld  [ %i4 + 8 ], %o1
40007278:	90 17 61 40 	or  %i5, 0x140, %o0
4000727c:	d4 07 20 0c 	ld  [ %i4 + 0xc ], %o2
40007280:	7f ff fc d0 	call  400065c0 <cortos_printf>
40007284:	01 00 00 00 	nop 
40007288:	7f ff fe a0 	call  40006d08 <clear_all_registers>
4000728c:	01 00 00 00 	nop 
40007290:	7f ff fd df 	call  40006a0c <set_args>
40007294:	01 00 00 00 	nop 
40007298:	7f ff fd dd 	call  40006a0c <set_args>
4000729c:	01 00 00 00 	nop 
400072a0:	7f ff fd db 	call  40006a0c <set_args>
400072a4:	01 00 00 00 	nop 
400072a8:	7f ff fd d9 	call  40006a0c <set_args>
400072ac:	01 00 00 00 	nop 
400072b0:	11 10 00 51 	sethi  %hi(0x40014400), %o0
400072b4:	7f ff fc c3 	call  400065c0 <cortos_printf>
400072b8:	90 12 21 98 	or  %o0, 0x198, %o0	! 40014598 <__clz_tab+0x508>
400072bc:	7f ff ff 0e 	call  40006ef4 <matmul_on_processor>
400072c0:	01 00 00 00 	nop 
400072c4:	7f ff ff 55 	call  40007018 <fft_across_all_threads>
400072c8:	01 00 00 00 	nop 
400072cc:	11 10 00 51 	sethi  %hi(0x40014400), %o0
400072d0:	7f ff fc bc 	call  400065c0 <cortos_printf>
400072d4:	90 12 21 a8 	or  %o0, 0x1a8, %o0	! 400145a8 <__clz_tab+0x518>
400072d8:	03 10 00 6a 	sethi  %hi(0x4001a800), %g1
400072dc:	c4 18 62 00 	ldd  [ %g1 + 0x200 ], %g2	! 4001aa00 <accel_ticks>
400072e0:	92 10 22 8a 	mov  0x28a, %o1
400072e4:	11 10 00 51 	sethi  %hi(0x40014400), %o0
400072e8:	31 10 00 51 	sethi  %hi(0x40014400), %i0
400072ec:	90 12 21 b8 	or  %o0, 0x1b8, %o0
400072f0:	37 10 00 51 	sethi  %hi(0x40014400), %i3
400072f4:	33 10 00 51 	sethi  %hi(0x40014400), %i1
400072f8:	7f ff fc b2 	call  400065c0 <cortos_printf>
400072fc:	b4 10 20 00 	clr  %i2
40007300:	21 00 40 00 	sethi  %hi(0x1000000), %l0
40007304:	b0 16 21 e8 	or  %i0, 0x1e8, %i0
40007308:	b6 16 e1 f8 	or  %i3, 0x1f8, %i3
4000730c:	b2 16 60 28 	or  %i1, 0x28, %i1
40007310:	90 10 00 18 	mov  %i0, %o0
40007314:	92 10 00 1a 	mov  %i2, %o1
40007318:	b9 2e a0 03 	sll  %i2, 3, %i4
4000731c:	7f ff fc a9 	call  400065c0 <cortos_printf>
40007320:	ba 10 20 00 	clr  %i5
40007324:	b8 07 00 10 	add  %i4, %l0, %i4
40007328:	d2 0f 00 1d 	ldub  [ %i4 + %i5 ], %o1
4000732c:	7f ff fc a5 	call  400065c0 <cortos_printf>
40007330:	90 10 00 1b 	mov  %i3, %o0
40007334:	ba 07 60 01 	inc  %i5
40007338:	80 a7 60 08 	cmp  %i5, 8
4000733c:	32 bf ff fc 	bne,a   4000732c <main_00+0x198>
40007340:	d2 0f 00 1d 	ldub  [ %i4 + %i5 ], %o1
40007344:	7f ff fc 9f 	call  400065c0 <cortos_printf>
40007348:	90 10 00 19 	mov  %i1, %o0
4000734c:	b4 06 a0 01 	inc  %i2
40007350:	80 a6 a5 14 	cmp  %i2, 0x514
40007354:	32 bf ff f0 	bne,a   40007314 <main_00+0x180>
40007358:	90 10 00 18 	mov  %i0, %o0
4000735c:	11 10 00 51 	sethi  %hi(0x40014400), %o0
40007360:	7f ff fc 98 	call  400065c0 <cortos_printf>
40007364:	90 12 22 00 	or  %o0, 0x200, %o0	! 40014600 <__clz_tab+0x570>
40007368:	7f ff fd e6 	call  40006b00 <dump_registers>
4000736c:	90 10 20 00 	clr  %o0
40007370:	7f ff fd e4 	call  40006b00 <dump_registers>
40007374:	90 10 20 01 	mov  1, %o0
40007378:	90 10 20 02 	mov  2, %o0
4000737c:	7f ff fd e1 	call  40006b00 <dump_registers>
40007380:	b0 10 20 03 	mov  3, %i0
40007384:	7f ff fd df 	call  40006b00 <dump_registers>
40007388:	81 e8 00 00 	restore 

4000738c <cortos_init_locks>:
4000738c:	84 10 20 01 	mov  1, %g2
40007390:	03 10 00 6a 	sethi  %hi(0x4001a800), %g1
40007394:	c4 28 62 20 	stb  %g2, [ %g1 + 0x220 ]	! 4001aa20 <allocatedLocksNc>
40007398:	05 10 00 70 	sethi  %hi(0x4001c000), %g2
4000739c:	03 10 00 6a 	sethi  %hi(0x4001a800), %g1
400073a0:	81 c3 e0 08 	retl 
400073a4:	c4 20 62 18 	st  %g2, [ %g1 + 0x218 ]	! 4001aa18 <cortos_reservedLockAddr>

400073a8 <cortos_reserveLock>:
400073a8:	9d e3 bf a0 	save  %sp, -96, %sp
400073ac:	80 a6 20 00 	cmp  %i0, 0
400073b0:	22 80 00 1b 	be,a   4000741c <cortos_reserveLock+0x74>
400073b4:	03 10 00 51 	sethi  %hi(0x40014400), %g1
400073b8:	03 10 00 51 	sethi  %hi(0x40014400), %g1
400073bc:	39 10 00 6a 	sethi  %hi(0x4001a800), %i4
400073c0:	f0 00 62 88 	ld  [ %g1 + 0x288 ], %i0
400073c4:	b8 17 22 20 	or  %i4, 0x220, %i4
400073c8:	3b 10 00 6a 	sethi  %hi(0x4001a800), %i5
400073cc:	7f ff ee 5f 	call  40002d48 <cortos_lock_acquire_buzy>
400073d0:	d0 07 62 18 	ld  [ %i5 + 0x218 ], %o0	! 4001aa18 <cortos_reservedLockAddr>
400073d4:	82 10 00 1c 	mov  %i4, %g1
400073d8:	10 80 00 06 	b  400073f0 <cortos_reserveLock+0x48>
400073dc:	84 10 20 00 	clr  %g2
400073e0:	84 00 a0 01 	inc  %g2
400073e4:	80 a0 a1 00 	cmp  %g2, 0x100
400073e8:	02 80 00 11 	be  4000742c <cortos_reserveLock+0x84>
400073ec:	82 00 60 01 	inc  %g1
400073f0:	c6 48 40 00 	ldsb  [ %g1 ], %g3
400073f4:	80 a0 e0 00 	cmp  %g3, 0
400073f8:	12 bf ff fa 	bne  400073e0 <cortos_reserveLock+0x38>
400073fc:	b8 10 00 02 	mov  %g2, %i4
40007400:	86 10 20 01 	mov  1, %g3
40007404:	d0 07 62 18 	ld  [ %i5 + 0x218 ], %o0
40007408:	c6 28 40 00 	stb  %g3, [ %g1 ]
4000740c:	7f ff ee 69 	call  40002db0 <cortos_lock_release>
40007410:	b0 06 00 1c 	add  %i0, %i4, %i0
40007414:	81 c7 e0 08 	ret 
40007418:	81 e8 00 00 	restore 
4000741c:	39 10 00 6a 	sethi  %hi(0x4001a800), %i4
40007420:	f0 00 62 8c 	ld  [ %g1 + 0x28c ], %i0
40007424:	10 bf ff e9 	b  400073c8 <cortos_reserveLock+0x20>
40007428:	b8 17 23 20 	or  %i4, 0x320, %i4
4000742c:	b8 10 21 00 	mov  0x100, %i4
40007430:	d0 07 62 18 	ld  [ %i5 + 0x218 ], %o0
40007434:	7f ff ee 5f 	call  40002db0 <cortos_lock_release>
40007438:	b0 06 00 1c 	add  %i0, %i4, %i0
4000743c:	81 c7 e0 08 	ret 
40007440:	81 e8 00 00 	restore 

40007444 <cortos_freeLock>:
40007444:	9d e3 bf a0 	save  %sp, -96, %sp
40007448:	3b 10 00 51 	sethi  %hi(0x40014400), %i5
4000744c:	c2 07 62 8c 	ld  [ %i5 + 0x28c ], %g1	! 4001468c <lockStartAddr>
40007450:	80 a0 40 18 	cmp  %g1, %i0
40007454:	18 80 00 05 	bgu  40007468 <cortos_freeLock+0x24>
40007458:	82 00 61 00 	add  %g1, 0x100, %g1
4000745c:	80 a6 00 01 	cmp  %i0, %g1
40007460:	0a 80 00 0e 	bcs  40007498 <cortos_freeLock+0x54>
40007464:	39 10 00 6a 	sethi  %hi(0x4001a800), %i4
40007468:	3b 10 00 6a 	sethi  %hi(0x4001a800), %i5
4000746c:	7f ff ee 37 	call  40002d48 <cortos_lock_acquire_buzy>
40007470:	d0 07 62 18 	ld  [ %i5 + 0x218 ], %o0	! 4001aa18 <cortos_reservedLockAddr>
40007474:	03 10 00 51 	sethi  %hi(0x40014400), %g1
40007478:	05 10 00 6a 	sethi  %hi(0x4001a800), %g2
4000747c:	c2 00 62 88 	ld  [ %g1 + 0x288 ], %g1
40007480:	84 10 a2 20 	or  %g2, 0x220, %g2
40007484:	82 26 00 01 	sub  %i0, %g1, %g1
40007488:	f0 07 62 18 	ld  [ %i5 + 0x218 ], %i0
4000748c:	c0 28 80 01 	clrb  [ %g2 + %g1 ]
40007490:	7f ff ee 48 	call  40002db0 <cortos_lock_release>
40007494:	81 e8 00 00 	restore 
40007498:	7f ff ee 2c 	call  40002d48 <cortos_lock_acquire_buzy>
4000749c:	d0 07 22 18 	ld  [ %i4 + 0x218 ], %o0
400074a0:	c2 07 62 8c 	ld  [ %i5 + 0x28c ], %g1
400074a4:	05 10 00 6a 	sethi  %hi(0x4001a800), %g2
400074a8:	82 26 00 01 	sub  %i0, %g1, %g1
400074ac:	84 10 a3 20 	or  %g2, 0x320, %g2
400074b0:	f0 07 22 18 	ld  [ %i4 + 0x218 ], %i0
400074b4:	c0 28 80 01 	clrb  [ %g2 + %g1 ]
400074b8:	7f ff ee 3e 	call  40002db0 <cortos_lock_release>
400074bc:	81 e8 00 00 	restore 

400074c0 <bget>:
400074c0:	80 a2 20 07 	cmp  %o0, 7
400074c4:	08 80 00 23 	bleu  40007550 <bget+0x90>
400074c8:	86 10 20 10 	mov  0x10, %g3
400074cc:	88 02 20 07 	add  %o0, 7, %g4
400074d0:	88 09 3f f8 	and  %g4, -8, %g4
400074d4:	88 01 20 08 	add  %g4, 8, %g4
400074d8:	86 10 00 04 	mov  %g4, %g3
400074dc:	05 10 00 51 	sethi  %hi(0x40014400), %g2
400074e0:	84 10 a2 90 	or  %g2, 0x290, %g2	! 40014690 <freelist>
400074e4:	d0 00 a0 08 	ld  [ %g2 + 8 ], %o0
400074e8:	80 a2 00 02 	cmp  %o0, %g2
400074ec:	32 80 00 08 	bne,a   4000750c <bget+0x4c>
400074f0:	c2 02 20 04 	ld  [ %o0 + 4 ], %g1
400074f4:	81 c3 e0 08 	retl 
400074f8:	90 10 20 00 	clr  %o0
400074fc:	80 a2 00 02 	cmp  %o0, %g2
40007500:	02 80 00 12 	be  40007548 <bget+0x88>
40007504:	01 00 00 00 	nop 
40007508:	c2 02 20 04 	ld  [ %o0 + 4 ], %g1
4000750c:	80 a0 40 03 	cmp  %g1, %g3
40007510:	26 bf ff fb 	bl,a   400074fc <bget+0x3c>
40007514:	d0 02 20 08 	ld  [ %o0 + 8 ], %o0
40007518:	84 20 40 03 	sub  %g1, %g3, %g2
4000751c:	80 a0 a0 10 	cmp  %g2, 0x10
40007520:	28 80 00 0e 	bleu,a   40007558 <bget+0x98>
40007524:	c6 02 20 08 	ld  [ %o0 + 8 ], %g3
40007528:	c4 22 20 04 	st  %g2, [ %o0 + 4 ]
4000752c:	c4 22 00 02 	st  %g2, [ %o0 + %g2 ]
40007530:	86 20 00 03 	neg  %g3
40007534:	90 02 00 02 	add  %o0, %g2, %o0
40007538:	c0 22 00 04 	clr  [ %o0 + %g4 ]
4000753c:	c6 22 20 04 	st  %g3, [ %o0 + 4 ]
40007540:	81 c3 e0 08 	retl 
40007544:	90 02 20 08 	add  %o0, 8, %o0
40007548:	81 c3 e0 08 	retl 
4000754c:	90 10 20 00 	clr  %o0
40007550:	10 bf ff e3 	b  400074dc <bget+0x1c>
40007554:	88 10 20 10 	mov  0x10, %g4
40007558:	c4 02 20 0c 	ld  [ %o0 + 0xc ], %g2
4000755c:	c6 20 a0 08 	st  %g3, [ %g2 + 8 ]
40007560:	c6 02 20 08 	ld  [ %o0 + 8 ], %g3
40007564:	c4 20 e0 0c 	st  %g2, [ %g3 + 0xc ]
40007568:	c0 22 00 01 	clr  [ %o0 + %g1 ]
4000756c:	84 20 00 01 	neg  %g1, %g2
40007570:	c4 22 20 04 	st  %g2, [ %o0 + 4 ]
40007574:	90 02 20 08 	add  %o0, 8, %o0
40007578:	81 c3 e0 08 	retl 
4000757c:	01 00 00 00 	nop 

40007580 <bpool>:
40007580:	03 10 00 51 	sethi  %hi(0x40014400), %g1
40007584:	82 10 62 90 	or  %g1, 0x290, %g1	! 40014690 <freelist>
40007588:	c4 00 60 0c 	ld  [ %g1 + 0xc ], %g2
4000758c:	c2 22 20 08 	st  %g1, [ %o0 + 8 ]
40007590:	c4 22 20 0c 	st  %g2, [ %o0 + 0xc ]
40007594:	d0 20 60 0c 	st  %o0, [ %g1 + 0xc ]
40007598:	c0 22 00 00 	clr  [ %o0 ]
4000759c:	c2 02 20 0c 	ld  [ %o0 + 0xc ], %g1
400075a0:	92 0a 7f f8 	and  %o1, -8, %o1
400075a4:	d0 20 60 08 	st  %o0, [ %g1 + 8 ]
400075a8:	92 02 7f f8 	add  %o1, -8, %o1
400075ac:	d2 22 20 04 	st  %o1, [ %o0 + 4 ]
400075b0:	82 02 00 09 	add  %o0, %o1, %g1
400075b4:	05 20 00 00 	sethi  %hi(0x80000000), %g2
400075b8:	d2 22 00 09 	st  %o1, [ %o0 + %o1 ]
400075bc:	81 c3 e0 08 	retl 
400075c0:	c4 20 60 04 	st  %g2, [ %g1 + 4 ]

400075c4 <brel>:
400075c4:	c2 02 3f f8 	ld  [ %o0 + -8 ], %g1
400075c8:	80 a0 60 00 	cmp  %g1, 0
400075cc:	02 80 00 16 	be  40007624 <brel+0x60>
400075d0:	84 02 3f f8 	add  %o0, -8, %g2
400075d4:	84 20 80 01 	sub  %g2, %g1, %g2
400075d8:	c2 02 3f fc 	ld  [ %o0 + -4 ], %g1
400075dc:	c6 00 a0 04 	ld  [ %g2 + 4 ], %g3
400075e0:	82 20 c0 01 	sub  %g3, %g1, %g1
400075e4:	c2 20 a0 04 	st  %g1, [ %g2 + 4 ]
400075e8:	86 00 80 01 	add  %g2, %g1, %g3
400075ec:	c8 00 e0 04 	ld  [ %g3 + 4 ], %g4
400075f0:	80 a1 20 00 	cmp  %g4, 0
400075f4:	04 80 00 0a 	ble  4000761c <brel+0x58>
400075f8:	01 00 00 00 	nop 
400075fc:	da 00 e0 0c 	ld  [ %g3 + 0xc ], %o5
40007600:	82 00 40 04 	add  %g1, %g4, %g1
40007604:	d8 00 e0 08 	ld  [ %g3 + 8 ], %o4
40007608:	c2 20 a0 04 	st  %g1, [ %g2 + 4 ]
4000760c:	d8 23 60 08 	st  %o4, [ %o5 + 8 ]
40007610:	c8 00 e0 08 	ld  [ %g3 + 8 ], %g4
40007614:	86 00 80 01 	add  %g2, %g1, %g3
40007618:	da 21 20 0c 	st  %o5, [ %g4 + 0xc ]
4000761c:	81 c3 e0 08 	retl 
40007620:	c2 20 c0 00 	st  %g1, [ %g3 ]
40007624:	07 10 00 51 	sethi  %hi(0x40014400), %g3
40007628:	86 10 e2 90 	or  %g3, 0x290, %g3	! 40014690 <freelist>
4000762c:	c2 00 e0 0c 	ld  [ %g3 + 0xc ], %g1
40007630:	c6 22 00 00 	st  %g3, [ %o0 ]
40007634:	c2 22 20 04 	st  %g1, [ %o0 + 4 ]
40007638:	c4 20 e0 0c 	st  %g2, [ %g3 + 0xc ]
4000763c:	c2 02 3f fc 	ld  [ %o0 + -4 ], %g1
40007640:	c6 02 20 04 	ld  [ %o0 + 4 ], %g3
40007644:	82 20 00 01 	neg  %g1
40007648:	c4 20 e0 08 	st  %g2, [ %g3 + 8 ]
4000764c:	10 bf ff e7 	b  400075e8 <brel+0x24>
40007650:	c2 22 3f fc 	st  %g1, [ %o0 + -4 ]

40007654 <__cortos_bpool>:
40007654:	9d e3 bf a0 	save  %sp, -96, %sp
40007658:	3b 10 00 54 	sethi  %hi(0x40015000), %i5
4000765c:	c2 07 60 08 	ld  [ %i5 + 8 ], %g1	! 40015008 <bgetLockAddr>
40007660:	80 a0 60 00 	cmp  %g1, 0
40007664:	12 80 00 0b 	bne  40007690 <__cortos_bpool+0x3c>
40007668:	11 10 00 74 	sethi  %hi(0x4001d000), %o0
4000766c:	7f ff ff c5 	call  40007580 <bpool>
40007670:	13 00 00 04 	sethi  %hi(0x1000), %o1
40007674:	03 10 00 6a 	sethi  %hi(0x4001a800), %g1
40007678:	82 10 62 20 	or  %g1, 0x220, %g1	! 4001aa20 <allocatedLocksNc>
4000767c:	84 10 20 01 	mov  1, %g2
40007680:	c4 28 60 02 	stb  %g2, [ %g1 + 2 ]
40007684:	03 10 00 70 	sethi  %hi(0x4001c000), %g1
40007688:	82 10 60 02 	or  %g1, 2, %g1	! 4001c002 <allocatedLocks+0x14e2>
4000768c:	c2 27 60 08 	st  %g1, [ %i5 + 8 ]
40007690:	81 c7 e0 08 	ret 
40007694:	81 e8 00 00 	restore 

40007698 <cortos_bget>:
40007698:	9d e3 bf a0 	save  %sp, -96, %sp
4000769c:	3b 10 00 54 	sethi  %hi(0x40015000), %i5
400076a0:	7f ff ed aa 	call  40002d48 <cortos_lock_acquire_buzy>
400076a4:	d0 07 60 08 	ld  [ %i5 + 8 ], %o0	! 40015008 <bgetLockAddr>
400076a8:	7f ff ff 86 	call  400074c0 <bget>
400076ac:	90 10 00 18 	mov  %i0, %o0
400076b0:	b0 10 00 08 	mov  %o0, %i0
400076b4:	7f ff ed bf 	call  40002db0 <cortos_lock_release>
400076b8:	d0 07 60 08 	ld  [ %i5 + 8 ], %o0
400076bc:	81 c7 e0 08 	ret 
400076c0:	81 e8 00 00 	restore 

400076c4 <cortos_brel>:
400076c4:	9d e3 bf a0 	save  %sp, -96, %sp
400076c8:	3b 10 00 54 	sethi  %hi(0x40015000), %i5
400076cc:	7f ff ed 9f 	call  40002d48 <cortos_lock_acquire_buzy>
400076d0:	d0 07 60 08 	ld  [ %i5 + 8 ], %o0	! 40015008 <bgetLockAddr>
400076d4:	7f ff ff bc 	call  400075c4 <brel>
400076d8:	90 10 00 18 	mov  %i0, %o0
400076dc:	f0 07 60 08 	ld  [ %i5 + 8 ], %i0
400076e0:	7f ff ed b4 	call  40002db0 <cortos_lock_release>
400076e4:	81 e8 00 00 	restore 

400076e8 <__cortos_bpool_ncram>:
400076e8:	9d e3 bf a0 	save  %sp, -96, %sp
400076ec:	3b 10 00 54 	sethi  %hi(0x40015000), %i5
400076f0:	c2 07 60 04 	ld  [ %i5 + 4 ], %g1	! 40015004 <bgetNcramLockAddr>
400076f4:	80 a0 60 00 	cmp  %g1, 0
400076f8:	12 80 00 0c 	bne  40007728 <__cortos_bpool_ncram+0x40>
400076fc:	11 00 40 00 	sethi  %hi(0x1000000), %o0
40007700:	13 00 00 3f 	sethi  %hi(0xfc00), %o1
40007704:	7f ff fc 7e 	call  400068fc <bpool_ncram>
40007708:	92 12 63 ff 	or  %o1, 0x3ff, %o1	! ffff <__DYNAMIC+0xffff>
4000770c:	03 10 00 6a 	sethi  %hi(0x4001a800), %g1
40007710:	82 10 62 20 	or  %g1, 0x220, %g1	! 4001aa20 <allocatedLocksNc>
40007714:	84 10 20 01 	mov  1, %g2
40007718:	c4 28 60 03 	stb  %g2, [ %g1 + 3 ]
4000771c:	03 10 00 70 	sethi  %hi(0x4001c000), %g1
40007720:	82 10 60 03 	or  %g1, 3, %g1	! 4001c003 <allocatedLocks+0x14e3>
40007724:	c2 27 60 04 	st  %g1, [ %i5 + 4 ]
40007728:	81 c7 e0 08 	ret 
4000772c:	81 e8 00 00 	restore 

40007730 <cortos_bget_ncram>:
40007730:	9d e3 bf a0 	save  %sp, -96, %sp
40007734:	3b 10 00 54 	sethi  %hi(0x40015000), %i5
40007738:	7f ff ed 84 	call  40002d48 <cortos_lock_acquire_buzy>
4000773c:	d0 07 60 04 	ld  [ %i5 + 4 ], %o0	! 40015004 <bgetNcramLockAddr>
40007740:	7f ff fc 39 	call  40006824 <bget_ncram>
40007744:	90 10 00 18 	mov  %i0, %o0
40007748:	b0 10 00 08 	mov  %o0, %i0
4000774c:	7f ff ed 99 	call  40002db0 <cortos_lock_release>
40007750:	d0 07 60 04 	ld  [ %i5 + 4 ], %o0
40007754:	81 c7 e0 08 	ret 
40007758:	81 e8 00 00 	restore 

4000775c <cortos_brel_ncram>:
4000775c:	9d e3 bf a0 	save  %sp, -96, %sp
40007760:	3b 10 00 54 	sethi  %hi(0x40015000), %i5
40007764:	7f ff ed 79 	call  40002d48 <cortos_lock_acquire_buzy>
40007768:	d0 07 60 04 	ld  [ %i5 + 4 ], %o0	! 40015004 <bgetNcramLockAddr>
4000776c:	7f ff fc 75 	call  40006940 <brel_ncram>
40007770:	90 10 00 18 	mov  %i0, %o0
40007774:	f0 07 60 04 	ld  [ %i5 + 4 ], %i0
40007778:	7f ff ed 8e 	call  40002db0 <cortos_lock_release>
4000777c:	81 e8 00 00 	restore 

40007780 <cortos_init_logging>:
40007780:	84 10 20 01 	mov  1, %g2
40007784:	03 10 00 6a 	sethi  %hi(0x4001a800), %g1
40007788:	82 10 62 20 	or  %g1, 0x220, %g1	! 4001aa20 <allocatedLocksNc>
4000778c:	c4 28 60 04 	stb  %g2, [ %g1 + 4 ]
40007790:	05 10 00 70 	sethi  %hi(0x4001c000), %g2
40007794:	03 10 00 54 	sethi  %hi(0x40015000), %g1
40007798:	84 10 a0 04 	or  %g2, 4, %g2
4000779c:	81 c3 e0 08 	retl 
400077a0:	c4 20 60 0c 	st  %g2, [ %g1 + 0xc ]

400077a4 <__cortos_log_printf>:
400077a4:	9d e3 bb 80 	save  %sp, -1152, %sp
400077a8:	21 10 00 54 	sethi  %hi(0x40015000), %l0
400077ac:	fa 27 a0 58 	st  %i5, [ %fp + 0x58 ]
400077b0:	7f ff ed 66 	call  40002d48 <cortos_lock_acquire_buzy>
400077b4:	d0 04 20 0c 	ld  [ %l0 + 0xc ], %o0
400077b8:	7f ff fb 4c 	call  400064e8 <cortos_get_clock_time>
400077bc:	01 00 00 00 	nop 
400077c0:	a3 47 40 00 	rd  %asr29, %l1
400077c4:	82 10 00 11 	mov  %l1, %g1
400077c8:	d0 3f bb f0 	std  %o0, [ %fp + -1040 ]
400077cc:	96 08 60 ff 	and  %g1, 0xff, %o3
400077d0:	95 30 60 08 	srl  %g1, 8, %o2
400077d4:	c2 07 bb f0 	ld  [ %fp + -1040 ], %g1
400077d8:	c2 23 a0 60 	st  %g1, [ %sp + 0x60 ]
400077dc:	c2 07 bb f4 	ld  [ %fp + -1036 ], %g1
400077e0:	92 10 00 18 	mov  %i0, %o1
400077e4:	c2 23 a0 64 	st  %g1, [ %sp + 0x64 ]
400077e8:	98 10 00 19 	mov  %i1, %o4
400077ec:	9a 10 00 1b 	mov  %i3, %o5
400077f0:	94 0a a0 ff 	and  %o2, 0xff, %o2
400077f4:	f4 23 a0 5c 	st  %i2, [ %sp + 0x5c ]
400077f8:	11 10 00 51 	sethi  %hi(0x40014400), %o0
400077fc:	7f ff fa db 	call  40006368 <printf_>
40007800:	90 12 22 20 	or  %o0, 0x220, %o0	! 40014620 <__clz_tab+0x590>
40007804:	94 07 a0 58 	add  %fp, 0x58, %o2
40007808:	b0 10 00 08 	mov  %o0, %i0
4000780c:	d4 27 bb fc 	st  %o2, [ %fp + -1028 ]
40007810:	ba 07 bc 00 	add  %fp, -1024, %i5
40007814:	92 10 00 1c 	mov  %i4, %o1
40007818:	7f ff fa bf 	call  40006314 <vsprintf_>
4000781c:	90 10 00 1d 	mov  %i5, %o0
40007820:	c2 0f bc 00 	ldub  [ %fp + -1024 ], %g1
40007824:	91 28 60 18 	sll  %g1, 0x18, %o0
40007828:	80 a2 20 00 	cmp  %o0, 0
4000782c:	22 80 00 0c 	be,a   4000785c <__cortos_log_printf+0xb8>
40007830:	11 10 00 51 	sethi  %hi(0x40014400), %o0
40007834:	ba 27 40 18 	sub  %i5, %i0, %i5
40007838:	7f ff fa 79 	call  4000621c <uart_send_char>
4000783c:	91 3a 20 18 	sra  %o0, 0x18, %o0
40007840:	b0 06 20 01 	inc  %i0
40007844:	c2 0f 40 18 	ldub  [ %i5 + %i0 ], %g1
40007848:	91 28 60 18 	sll  %g1, 0x18, %o0
4000784c:	80 a2 20 00 	cmp  %o0, 0
40007850:	12 bf ff fa 	bne  40007838 <__cortos_log_printf+0x94>
40007854:	01 00 00 00 	nop 
40007858:	11 10 00 51 	sethi  %hi(0x40014400), %o0
4000785c:	7f ff fa c3 	call  40006368 <printf_>
40007860:	90 12 20 28 	or  %o0, 0x28, %o0	! 40014428 <__clz_tab+0x398>
40007864:	b0 02 00 18 	add  %o0, %i0, %i0
40007868:	7f ff ed 52 	call  40002db0 <cortos_lock_release>
4000786c:	d0 04 20 0c 	ld  [ %l0 + 0xc ], %o0
40007870:	81 c7 e0 08 	ret 
40007874:	81 e8 00 00 	restore 
40007878:	80 8a 60 01 	btst  1, %o1
4000787c:	02 80 00 08 	be  4000789c <__cortos_log_printf+0xf8>
40007880:	80 8a 60 02 	btst  2, %o1
40007884:	c4 0a 7f ff 	ldub  [ %o1 + -1 ], %g2
40007888:	92 22 60 01 	dec  %o1
4000788c:	c4 2a 3f ff 	stb  %g2, [ %o0 + -1 ]
40007890:	94 22 a0 01 	dec  %o2
40007894:	02 80 00 1a 	be  400078fc <__GI_memmove+0x3c>
40007898:	90 22 20 01 	dec  %o0
4000789c:	c4 12 7f fe 	lduh  [ %o1 + -2 ], %g2
400078a0:	92 22 60 02 	sub  %o1, 2, %o1
400078a4:	c4 32 3f fe 	sth  %g2, [ %o0 + -2 ]
400078a8:	94 22 a0 02 	sub  %o2, 2, %o2
400078ac:	10 80 00 14 	b  400078fc <__GI_memmove+0x3c>
400078b0:	90 22 20 02 	sub  %o0, 2, %o0

400078b4 <bcopy>:
400078b4:	96 10 00 08 	mov  %o0, %o3
400078b8:	90 10 00 09 	mov  %o1, %o0
400078bc:	92 10 00 0b 	mov  %o3, %o1

400078c0 <__GI_memmove>:
400078c0:	80 a2 00 09 	cmp  %o0, %o1
400078c4:	d0 23 a0 40 	st  %o0, [ %sp + 0x40 ]
400078c8:	08 80 01 79 	bleu  40007eac <__GI_memcpy+0x8>
400078cc:	98 22 00 09 	sub  %o0, %o1, %o4
400078d0:	96 02 40 0a 	add  %o1, %o2, %o3
400078d4:	80 a2 c0 08 	cmp  %o3, %o0
400078d8:	08 80 01 76 	bleu  40007eb0 <__GI_memcpy+0xc>
400078dc:	9a 8b 20 03 	andcc  %o4, 3, %o5
400078e0:	92 02 40 0a 	add  %o1, %o2, %o1
400078e4:	90 02 00 0a 	add  %o0, %o2, %o0
400078e8:	12 80 00 f9 	bne  40007ccc <__GI_memmove+0x40c>
400078ec:	80 a2 a0 0f 	cmp  %o2, 0xf
400078f0:	08 80 00 eb 	bleu  40007c9c <__GI_memmove+0x3dc>
400078f4:	80 8a 60 03 	btst  3, %o1
400078f8:	12 bf ff e0 	bne  40007878 <__cortos_log_printf+0xd4>
400078fc:	80 8a 60 04 	btst  4, %o1
40007900:	02 80 00 07 	be  4000791c <__GI_memmove+0x5c>
40007904:	82 10 00 0a 	mov  %o2, %g1
40007908:	d8 02 7f fc 	ld  [ %o1 + -4 ], %o4
4000790c:	82 20 60 04 	sub  %g1, 4, %g1
40007910:	d8 22 3f fc 	st  %o4, [ %o0 + -4 ]
40007914:	92 22 60 04 	sub  %o1, 4, %o1
40007918:	90 22 20 04 	sub  %o0, 4, %o0
4000791c:	8c 88 7f 80 	andcc  %g1, -128, %g6
40007920:	02 80 00 37 	be  400079fc <__GI_memmove+0x13c>
40007924:	80 8a 20 04 	btst  4, %o0
40007928:	02 80 00 84 	be  40007b38 <__GI_memmove+0x278>
4000792c:	d4 1a 7f e0 	ldd  [ %o1 + -32 ], %o2
40007930:	d8 1a 7f e8 	ldd  [ %o1 + -24 ], %o4
40007934:	c4 1a 7f f0 	ldd  [ %o1 + -16 ], %g2
40007938:	c8 1a 7f f8 	ldd  [ %o1 + -8 ], %g4
4000793c:	d4 22 3f e0 	st  %o2, [ %o0 + -32 ]
40007940:	d6 22 3f e4 	st  %o3, [ %o0 + -28 ]
40007944:	d8 22 3f e8 	st  %o4, [ %o0 + -24 ]
40007948:	da 22 3f ec 	st  %o5, [ %o0 + -20 ]
4000794c:	c4 22 3f f0 	st  %g2, [ %o0 + -16 ]
40007950:	c6 22 3f f4 	st  %g3, [ %o0 + -12 ]
40007954:	c8 22 3f f8 	st  %g4, [ %o0 + -8 ]
40007958:	ca 22 3f fc 	st  %g5, [ %o0 + -4 ]
4000795c:	d4 1a 7f c0 	ldd  [ %o1 + -64 ], %o2
40007960:	d8 1a 7f c8 	ldd  [ %o1 + -56 ], %o4
40007964:	c4 1a 7f d0 	ldd  [ %o1 + -48 ], %g2
40007968:	c8 1a 7f d8 	ldd  [ %o1 + -40 ], %g4
4000796c:	d4 22 3f c0 	st  %o2, [ %o0 + -64 ]
40007970:	d6 22 3f c4 	st  %o3, [ %o0 + -60 ]
40007974:	d8 22 3f c8 	st  %o4, [ %o0 + -56 ]
40007978:	da 22 3f cc 	st  %o5, [ %o0 + -52 ]
4000797c:	c4 22 3f d0 	st  %g2, [ %o0 + -48 ]
40007980:	c6 22 3f d4 	st  %g3, [ %o0 + -44 ]
40007984:	c8 22 3f d8 	st  %g4, [ %o0 + -40 ]
40007988:	ca 22 3f dc 	st  %g5, [ %o0 + -36 ]
4000798c:	d4 1a 7f a0 	ldd  [ %o1 + -96 ], %o2
40007990:	d8 1a 7f a8 	ldd  [ %o1 + -88 ], %o4
40007994:	c4 1a 7f b0 	ldd  [ %o1 + -80 ], %g2
40007998:	c8 1a 7f b8 	ldd  [ %o1 + -72 ], %g4
4000799c:	d4 22 3f a0 	st  %o2, [ %o0 + -96 ]
400079a0:	d6 22 3f a4 	st  %o3, [ %o0 + -92 ]
400079a4:	d8 22 3f a8 	st  %o4, [ %o0 + -88 ]
400079a8:	da 22 3f ac 	st  %o5, [ %o0 + -84 ]
400079ac:	c4 22 3f b0 	st  %g2, [ %o0 + -80 ]
400079b0:	c6 22 3f b4 	st  %g3, [ %o0 + -76 ]
400079b4:	c8 22 3f b8 	st  %g4, [ %o0 + -72 ]
400079b8:	ca 22 3f bc 	st  %g5, [ %o0 + -68 ]
400079bc:	d4 1a 7f 80 	ldd  [ %o1 + -128 ], %o2
400079c0:	d8 1a 7f 88 	ldd  [ %o1 + -120 ], %o4
400079c4:	c4 1a 7f 90 	ldd  [ %o1 + -112 ], %g2
400079c8:	c8 1a 7f 98 	ldd  [ %o1 + -104 ], %g4
400079cc:	d4 22 3f 80 	st  %o2, [ %o0 + -128 ]
400079d0:	d6 22 3f 84 	st  %o3, [ %o0 + -124 ]
400079d4:	d8 22 3f 88 	st  %o4, [ %o0 + -120 ]
400079d8:	da 22 3f 8c 	st  %o5, [ %o0 + -116 ]
400079dc:	c4 22 3f 90 	st  %g2, [ %o0 + -112 ]
400079e0:	c6 22 3f 94 	st  %g3, [ %o0 + -108 ]
400079e4:	c8 22 3f 98 	st  %g4, [ %o0 + -104 ]
400079e8:	ca 22 3f 9c 	st  %g5, [ %o0 + -100 ]
400079ec:	8c a1 a0 80 	subcc  %g6, 0x80, %g6
400079f0:	92 22 60 80 	sub  %o1, 0x80, %o1
400079f4:	12 bf ff ce 	bne  4000792c <__GI_memmove+0x6c>
400079f8:	90 22 20 80 	sub  %o0, 0x80, %o0
400079fc:	8c 88 60 70 	andcc  %g1, 0x70, %g6
40007a00:	02 80 00 34 	be  40007ad0 <__GI_memmove+0x210>
40007a04:	80 88 60 08 	btst  8, %g1
40007a08:	99 31 a0 01 	srl  %g6, 1, %o4
40007a0c:	84 10 00 0f 	mov  %o7, %g2
40007a10:	98 01 80 0c 	add  %g6, %o4, %o4
40007a14:	40 00 05 3d 	call  40008f08 <__GI_memcpy+0x1064>
40007a18:	92 22 40 06 	sub  %o1, %g6, %o1
40007a1c:	9e 10 00 02 	mov  %g2, %o7
40007a20:	81 c3 60 bc 	jmp  %o5 + 0xbc
40007a24:	90 22 00 06 	sub  %o0, %g6, %o0
40007a28:	c4 1a 60 60 	ldd  [ %o1 + 0x60 ], %g2
40007a2c:	c8 1a 60 68 	ldd  [ %o1 + 0x68 ], %g4
40007a30:	c4 22 20 60 	st  %g2, [ %o0 + 0x60 ]
40007a34:	c6 22 20 64 	st  %g3, [ %o0 + 0x64 ]
40007a38:	c8 22 20 68 	st  %g4, [ %o0 + 0x68 ]
40007a3c:	ca 22 20 6c 	st  %g5, [ %o0 + 0x6c ]
40007a40:	c4 1a 60 50 	ldd  [ %o1 + 0x50 ], %g2
40007a44:	c8 1a 60 58 	ldd  [ %o1 + 0x58 ], %g4
40007a48:	c4 22 20 50 	st  %g2, [ %o0 + 0x50 ]
40007a4c:	c6 22 20 54 	st  %g3, [ %o0 + 0x54 ]
40007a50:	c8 22 20 58 	st  %g4, [ %o0 + 0x58 ]
40007a54:	ca 22 20 5c 	st  %g5, [ %o0 + 0x5c ]
40007a58:	c4 1a 60 40 	ldd  [ %o1 + 0x40 ], %g2
40007a5c:	c8 1a 60 48 	ldd  [ %o1 + 0x48 ], %g4
40007a60:	c4 22 20 40 	st  %g2, [ %o0 + 0x40 ]
40007a64:	c6 22 20 44 	st  %g3, [ %o0 + 0x44 ]
40007a68:	c8 22 20 48 	st  %g4, [ %o0 + 0x48 ]
40007a6c:	ca 22 20 4c 	st  %g5, [ %o0 + 0x4c ]
40007a70:	c4 1a 60 30 	ldd  [ %o1 + 0x30 ], %g2
40007a74:	c8 1a 60 38 	ldd  [ %o1 + 0x38 ], %g4
40007a78:	c4 22 20 30 	st  %g2, [ %o0 + 0x30 ]
40007a7c:	c6 22 20 34 	st  %g3, [ %o0 + 0x34 ]
40007a80:	c8 22 20 38 	st  %g4, [ %o0 + 0x38 ]
40007a84:	ca 22 20 3c 	st  %g5, [ %o0 + 0x3c ]
40007a88:	c4 1a 60 20 	ldd  [ %o1 + 0x20 ], %g2
40007a8c:	c8 1a 60 28 	ldd  [ %o1 + 0x28 ], %g4
40007a90:	c4 22 20 20 	st  %g2, [ %o0 + 0x20 ]
40007a94:	c6 22 20 24 	st  %g3, [ %o0 + 0x24 ]
40007a98:	c8 22 20 28 	st  %g4, [ %o0 + 0x28 ]
40007a9c:	ca 22 20 2c 	st  %g5, [ %o0 + 0x2c ]
40007aa0:	c4 1a 60 10 	ldd  [ %o1 + 0x10 ], %g2
40007aa4:	c8 1a 60 18 	ldd  [ %o1 + 0x18 ], %g4
40007aa8:	c4 22 20 10 	st  %g2, [ %o0 + 0x10 ]
40007aac:	c6 22 20 14 	st  %g3, [ %o0 + 0x14 ]
40007ab0:	c8 22 20 18 	st  %g4, [ %o0 + 0x18 ]
40007ab4:	ca 22 20 1c 	st  %g5, [ %o0 + 0x1c ]
40007ab8:	c4 1a 60 00 	ldd  [ %o1 ], %g2
40007abc:	c8 1a 60 08 	ldd  [ %o1 + 8 ], %g4
40007ac0:	c4 22 20 00 	st  %g2, [ %o0 ]
40007ac4:	c6 22 20 04 	st  %g3, [ %o0 + 4 ]
40007ac8:	c8 22 20 08 	st  %g4, [ %o0 + 8 ]
40007acc:	ca 22 20 0c 	st  %g5, [ %o0 + 0xc ]
40007ad0:	02 80 00 07 	be  40007aec <__GI_memmove+0x22c>
40007ad4:	80 88 60 04 	btst  4, %g1
40007ad8:	c4 1a 7f f8 	ldd  [ %o1 + -8 ], %g2
40007adc:	90 22 20 08 	sub  %o0, 8, %o0
40007ae0:	92 22 60 08 	sub  %o1, 8, %o1
40007ae4:	c4 22 00 00 	st  %g2, [ %o0 ]
40007ae8:	c6 22 20 04 	st  %g3, [ %o0 + 4 ]
40007aec:	02 80 00 06 	be  40007b04 <__GI_memmove+0x244>
40007af0:	80 88 60 02 	btst  2, %g1
40007af4:	c4 02 7f fc 	ld  [ %o1 + -4 ], %g2
40007af8:	92 22 60 04 	sub  %o1, 4, %o1
40007afc:	c4 22 3f fc 	st  %g2, [ %o0 + -4 ]
40007b00:	90 22 20 04 	sub  %o0, 4, %o0
40007b04:	02 80 00 06 	be  40007b1c <__GI_memmove+0x25c>
40007b08:	80 88 60 01 	btst  1, %g1
40007b0c:	c4 12 7f fe 	lduh  [ %o1 + -2 ], %g2
40007b10:	92 22 60 02 	sub  %o1, 2, %o1
40007b14:	c4 32 3f fe 	sth  %g2, [ %o0 + -2 ]
40007b18:	90 22 20 02 	sub  %o0, 2, %o0
40007b1c:	02 80 00 04 	be  40007b2c <__GI_memmove+0x26c>
40007b20:	01 00 00 00 	nop 
40007b24:	c4 0a 7f ff 	ldub  [ %o1 + -1 ], %g2
40007b28:	c4 2a 3f ff 	stb  %g2, [ %o0 + -1 ]
40007b2c:	81 c3 e0 08 	retl 
40007b30:	d0 03 a0 40 	ld  [ %sp + 0x40 ], %o0
40007b34:	d4 1a 7f e0 	ldd  [ %o1 + -32 ], %o2
40007b38:	d8 1a 7f e8 	ldd  [ %o1 + -24 ], %o4
40007b3c:	c4 1a 7f f0 	ldd  [ %o1 + -16 ], %g2
40007b40:	c8 1a 7f f8 	ldd  [ %o1 + -8 ], %g4
40007b44:	d4 3a 3f e0 	std  %o2, [ %o0 + -32 ]
40007b48:	d8 3a 3f e8 	std  %o4, [ %o0 + -24 ]
40007b4c:	c4 3a 3f f0 	std  %g2, [ %o0 + -16 ]
40007b50:	c8 3a 3f f8 	std  %g4, [ %o0 + -8 ]
40007b54:	d4 1a 7f c0 	ldd  [ %o1 + -64 ], %o2
40007b58:	d8 1a 7f c8 	ldd  [ %o1 + -56 ], %o4
40007b5c:	c4 1a 7f d0 	ldd  [ %o1 + -48 ], %g2
40007b60:	c8 1a 7f d8 	ldd  [ %o1 + -40 ], %g4
40007b64:	d4 3a 3f c0 	std  %o2, [ %o0 + -64 ]
40007b68:	d8 3a 3f c8 	std  %o4, [ %o0 + -56 ]
40007b6c:	c4 3a 3f d0 	std  %g2, [ %o0 + -48 ]
40007b70:	c8 3a 3f d8 	std  %g4, [ %o0 + -40 ]
40007b74:	d4 1a 7f a0 	ldd  [ %o1 + -96 ], %o2
40007b78:	d8 1a 7f a8 	ldd  [ %o1 + -88 ], %o4
40007b7c:	c4 1a 7f b0 	ldd  [ %o1 + -80 ], %g2
40007b80:	c8 1a 7f b8 	ldd  [ %o1 + -72 ], %g4
40007b84:	d4 3a 3f a0 	std  %o2, [ %o0 + -96 ]
40007b88:	d8 3a 3f a8 	std  %o4, [ %o0 + -88 ]
40007b8c:	c4 3a 3f b0 	std  %g2, [ %o0 + -80 ]
40007b90:	c8 3a 3f b8 	std  %g4, [ %o0 + -72 ]
40007b94:	d4 1a 7f 80 	ldd  [ %o1 + -128 ], %o2
40007b98:	d8 1a 7f 88 	ldd  [ %o1 + -120 ], %o4
40007b9c:	c4 1a 7f 90 	ldd  [ %o1 + -112 ], %g2
40007ba0:	c8 1a 7f 98 	ldd  [ %o1 + -104 ], %g4
40007ba4:	d4 3a 3f 80 	std  %o2, [ %o0 + -128 ]
40007ba8:	d8 3a 3f 88 	std  %o4, [ %o0 + -120 ]
40007bac:	c4 3a 3f 90 	std  %g2, [ %o0 + -112 ]
40007bb0:	c8 3a 3f 98 	std  %g4, [ %o0 + -104 ]
40007bb4:	8c a1 a0 80 	subcc  %g6, 0x80, %g6
40007bb8:	92 22 60 80 	sub  %o1, 0x80, %o1
40007bbc:	12 bf ff de 	bne  40007b34 <__GI_memmove+0x274>
40007bc0:	90 22 20 80 	sub  %o0, 0x80, %o0
40007bc4:	8c 88 60 70 	andcc  %g1, 0x70, %g6
40007bc8:	02 bf ff c2 	be  40007ad0 <__GI_memmove+0x210>
40007bcc:	80 88 60 08 	btst  8, %g1
40007bd0:	99 31 a0 01 	srl  %g6, 1, %o4
40007bd4:	84 10 00 0f 	mov  %o7, %g2
40007bd8:	98 01 80 0c 	add  %g6, %o4, %o4
40007bdc:	40 00 04 cb 	call  40008f08 <__GI_memcpy+0x1064>
40007be0:	92 22 40 06 	sub  %o1, %g6, %o1
40007be4:	9e 10 00 02 	mov  %g2, %o7
40007be8:	81 c3 7e f4 	jmp  %o5 + -268
40007bec:	90 22 00 06 	sub  %o0, %g6, %o0
40007bf0:	96 0a a0 0e 	and  %o2, 0xe, %o3
40007bf4:	84 10 00 0f 	mov  %o7, %g2
40007bf8:	99 2a e0 03 	sll  %o3, 3, %o4
40007bfc:	90 22 00 0b 	sub  %o0, %o3, %o0
40007c00:	40 00 04 c2 	call  40008f08 <__GI_memcpy+0x1064>
40007c04:	92 22 40 0b 	sub  %o1, %o3, %o1
40007c08:	9e 10 00 02 	mov  %g2, %o7
40007c0c:	81 c3 60 84 	jmp  %o5 + 0x84
40007c10:	80 8a a0 01 	btst  1, %o2
40007c14:	c4 0a 60 0c 	ldub  [ %o1 + 0xc ], %g2
40007c18:	c6 0a 60 0d 	ldub  [ %o1 + 0xd ], %g3
40007c1c:	c4 2a 20 0c 	stb  %g2, [ %o0 + 0xc ]
40007c20:	c6 2a 20 0d 	stb  %g3, [ %o0 + 0xd ]
40007c24:	c4 0a 60 0a 	ldub  [ %o1 + 0xa ], %g2
40007c28:	c6 0a 60 0b 	ldub  [ %o1 + 0xb ], %g3
40007c2c:	c4 2a 20 0a 	stb  %g2, [ %o0 + 0xa ]
40007c30:	c6 2a 20 0b 	stb  %g3, [ %o0 + 0xb ]
40007c34:	c4 0a 60 08 	ldub  [ %o1 + 8 ], %g2
40007c38:	c6 0a 60 09 	ldub  [ %o1 + 9 ], %g3
40007c3c:	c4 2a 20 08 	stb  %g2, [ %o0 + 8 ]
40007c40:	c6 2a 20 09 	stb  %g3, [ %o0 + 9 ]
40007c44:	c4 0a 60 06 	ldub  [ %o1 + 6 ], %g2
40007c48:	c6 0a 60 07 	ldub  [ %o1 + 7 ], %g3
40007c4c:	c4 2a 20 06 	stb  %g2, [ %o0 + 6 ]
40007c50:	c6 2a 20 07 	stb  %g3, [ %o0 + 7 ]
40007c54:	c4 0a 60 04 	ldub  [ %o1 + 4 ], %g2
40007c58:	c6 0a 60 05 	ldub  [ %o1 + 5 ], %g3
40007c5c:	c4 2a 20 04 	stb  %g2, [ %o0 + 4 ]
40007c60:	c6 2a 20 05 	stb  %g3, [ %o0 + 5 ]
40007c64:	c4 0a 60 02 	ldub  [ %o1 + 2 ], %g2
40007c68:	c6 0a 60 03 	ldub  [ %o1 + 3 ], %g3
40007c6c:	c4 2a 20 02 	stb  %g2, [ %o0 + 2 ]
40007c70:	c6 2a 20 03 	stb  %g3, [ %o0 + 3 ]
40007c74:	c4 0a 60 00 	ldub  [ %o1 ], %g2
40007c78:	c6 0a 60 01 	ldub  [ %o1 + 1 ], %g3
40007c7c:	c4 2a 20 00 	stb  %g2, [ %o0 ]
40007c80:	c6 2a 20 01 	stb  %g3, [ %o0 + 1 ]
40007c84:	02 80 00 04 	be  40007c94 <__GI_memmove+0x3d4>
40007c88:	01 00 00 00 	nop 
40007c8c:	c4 0a 7f ff 	ldub  [ %o1 + -1 ], %g2
40007c90:	c4 2a 3f ff 	stb  %g2, [ %o0 + -1 ]
40007c94:	81 c3 e0 08 	retl 
40007c98:	d0 03 a0 40 	ld  [ %sp + 0x40 ], %o0
40007c9c:	12 bf ff d5 	bne  40007bf0 <__GI_memmove+0x330>
40007ca0:	80 8a a0 08 	btst  8, %o2
40007ca4:	02 80 00 08 	be  40007cc4 <__GI_memmove+0x404>
40007ca8:	80 8a a0 04 	btst  4, %o2
40007cac:	c4 02 7f f8 	ld  [ %o1 + -8 ], %g2
40007cb0:	c6 02 7f fc 	ld  [ %o1 + -4 ], %g3
40007cb4:	92 22 60 08 	sub  %o1, 8, %o1
40007cb8:	c4 22 3f f8 	st  %g2, [ %o0 + -8 ]
40007cbc:	c6 22 3f fc 	st  %g3, [ %o0 + -4 ]
40007cc0:	90 22 20 08 	sub  %o0, 8, %o0
40007cc4:	10 bf ff 8a 	b  40007aec <__GI_memmove+0x22c>
40007cc8:	82 10 00 0a 	mov  %o2, %g1
40007ccc:	80 a2 a0 0f 	cmp  %o2, 0xf
40007cd0:	08 bf ff c8 	bleu  40007bf0 <__GI_memmove+0x330>
40007cd4:	80 8a 20 03 	btst  3, %o0
40007cd8:	02 80 00 11 	be  40007d1c <__GI_memmove+0x45c>
40007cdc:	80 8a 20 01 	btst  1, %o0
40007ce0:	02 80 00 08 	be  40007d00 <__GI_memmove+0x440>
40007ce4:	80 8a 20 02 	btst  2, %o0
40007ce8:	ca 0a 7f ff 	ldub  [ %o1 + -1 ], %g5
40007cec:	92 22 60 01 	dec  %o1
40007cf0:	ca 2a 3f ff 	stb  %g5, [ %o0 + -1 ]
40007cf4:	90 22 20 01 	dec  %o0
40007cf8:	02 80 00 09 	be  40007d1c <__GI_memmove+0x45c>
40007cfc:	94 22 a0 01 	dec  %o2
40007d00:	ca 0a 7f ff 	ldub  [ %o1 + -1 ], %g5
40007d04:	92 22 60 02 	sub  %o1, 2, %o1
40007d08:	ca 2a 3f ff 	stb  %g5, [ %o0 + -1 ]
40007d0c:	90 22 20 02 	sub  %o0, 2, %o0
40007d10:	ca 0a 40 00 	ldub  [ %o1 ], %g5
40007d14:	94 22 a0 02 	sub  %o2, 2, %o2
40007d18:	ca 2a 00 00 	stb  %g5, [ %o0 ]
40007d1c:	84 0a 60 03 	and  %o1, 3, %g2
40007d20:	92 0a 7f fc 	and  %o1, -4, %o1
40007d24:	86 0a a0 0c 	and  %o2, 0xc, %g3
40007d28:	92 02 60 04 	add  %o1, 4, %o1
40007d2c:	80 a0 e0 04 	cmp  %g3, 4
40007d30:	89 28 a0 03 	sll  %g2, 3, %g4
40007d34:	84 10 20 20 	mov  0x20, %g2
40007d38:	02 80 00 18 	be  40007d98 <__GI_memmove+0x4d8>
40007d3c:	8c 20 80 04 	sub  %g2, %g4, %g6
40007d40:	0a 80 00 10 	bcs  40007d80 <__GI_memmove+0x4c0>
40007d44:	80 a0 e0 08 	cmp  %g3, 8
40007d48:	02 80 00 08 	be  40007d68 <__GI_memmove+0x4a8>
40007d4c:	87 32 a0 02 	srl  %o2, 2, %g3
40007d50:	d6 02 7f fc 	ld  [ %o1 + -4 ], %o3
40007d54:	90 02 3f f8 	add  %o0, -8, %o0
40007d58:	d8 02 7f f8 	ld  [ %o1 + -8 ], %o4
40007d5c:	92 02 7f f0 	add  %o1, -16, %o1
40007d60:	10 80 00 1e 	b  40007dd8 <__GI_memmove+0x518>
40007d64:	86 00 e0 01 	inc  %g3
40007d68:	d8 02 7f fc 	ld  [ %o1 + -4 ], %o4
40007d6c:	90 02 3f fc 	add  %o0, -4, %o0
40007d70:	c2 02 7f f8 	ld  [ %o1 + -8 ], %g1
40007d74:	92 02 7f f4 	add  %o1, -12, %o1
40007d78:	10 80 00 1d 	b  40007dec <__GI_memmove+0x52c>
40007d7c:	86 00 e0 02 	add  %g3, 2, %g3
40007d80:	da 02 7f fc 	ld  [ %o1 + -4 ], %o5
40007d84:	90 02 3f f4 	add  %o0, -12, %o0
40007d88:	d6 02 7f f8 	ld  [ %o1 + -8 ], %o3
40007d8c:	92 02 7f ec 	add  %o1, -20, %o1
40007d90:	10 80 00 0d 	b  40007dc4 <__GI_memmove+0x504>
40007d94:	87 32 a0 02 	srl  %o2, 2, %g3
40007d98:	c2 02 7f fc 	ld  [ %o1 + -4 ], %g1
40007d9c:	87 32 a0 02 	srl  %o2, 2, %g3
40007da0:	da 02 7f f8 	ld  [ %o1 + -8 ], %o5
40007da4:	92 02 7f e8 	add  %o1, -24, %o1
40007da8:	90 02 3f f0 	add  %o0, -16, %o0
40007dac:	86 00 ff ff 	add  %g3, -1, %g3
40007db0:	d6 02 60 0c 	ld  [ %o1 + 0xc ], %o3
40007db4:	85 2b 40 04 	sll  %o5, %g4, %g2
40007db8:	8b 30 40 06 	srl  %g1, %g6, %g5
40007dbc:	84 10 80 05 	or  %g2, %g5, %g2
40007dc0:	c4 22 20 0c 	st  %g2, [ %o0 + 0xc ]
40007dc4:	d8 02 60 08 	ld  [ %o1 + 8 ], %o4
40007dc8:	85 2a c0 04 	sll  %o3, %g4, %g2
40007dcc:	8b 33 40 06 	srl  %o5, %g6, %g5
40007dd0:	84 10 80 05 	or  %g2, %g5, %g2
40007dd4:	c4 22 20 08 	st  %g2, [ %o0 + 8 ]
40007dd8:	c2 02 60 04 	ld  [ %o1 + 4 ], %g1
40007ddc:	85 2b 00 04 	sll  %o4, %g4, %g2
40007de0:	8b 32 c0 06 	srl  %o3, %g6, %g5
40007de4:	84 10 80 05 	or  %g2, %g5, %g2
40007de8:	c4 22 20 04 	st  %g2, [ %o0 + 4 ]
40007dec:	da 02 40 00 	ld  [ %o1 ], %o5
40007df0:	85 28 40 04 	sll  %g1, %g4, %g2
40007df4:	8b 33 00 06 	srl  %o4, %g6, %g5
40007df8:	86 80 ff fc 	addcc  %g3, -4, %g3
40007dfc:	84 10 80 05 	or  %g2, %g5, %g2
40007e00:	92 02 7f f0 	add  %o1, -16, %o1
40007e04:	c4 22 00 00 	st  %g2, [ %o0 ]
40007e08:	90 02 3f f0 	add  %o0, -16, %o0
40007e0c:	32 bf ff ea 	bne,a   40007db4 <__GI_memmove+0x4f4>
40007e10:	d6 02 60 0c 	ld  [ %o1 + 0xc ], %o3
40007e14:	85 2b 40 04 	sll  %o5, %g4, %g2
40007e18:	8b 30 40 06 	srl  %g1, %g6, %g5
40007e1c:	87 31 20 03 	srl  %g4, 3, %g3
40007e20:	84 10 80 05 	or  %g2, %g5, %g2
40007e24:	92 02 40 03 	add  %o1, %g3, %o1
40007e28:	80 8a a0 02 	btst  2, %o2
40007e2c:	c4 22 20 0c 	st  %g2, [ %o0 + 0xc ]
40007e30:	02 80 00 08 	be  40007e50 <__GI_memmove+0x590>
40007e34:	80 8a a0 01 	btst  1, %o2
40007e38:	ca 0a 60 0f 	ldub  [ %o1 + 0xf ], %g5
40007e3c:	92 02 7f fe 	add  %o1, -2, %o1
40007e40:	ca 2a 20 0b 	stb  %g5, [ %o0 + 0xb ]
40007e44:	90 02 3f fe 	add  %o0, -2, %o0
40007e48:	ca 0a 60 10 	ldub  [ %o1 + 0x10 ], %g5
40007e4c:	ca 2a 20 0c 	stb  %g5, [ %o0 + 0xc ]
40007e50:	02 80 00 04 	be  40007e60 <__GI_memmove+0x5a0>
40007e54:	01 00 00 00 	nop 
40007e58:	ca 0a 60 0f 	ldub  [ %o1 + 0xf ], %g5
40007e5c:	ca 2a 20 0b 	stb  %g5, [ %o0 + 0xb ]
40007e60:	81 c3 e0 08 	retl 
40007e64:	d0 03 a0 40 	ld  [ %sp + 0x40 ], %o0
40007e68:	80 8a 60 01 	btst  1, %o1
40007e6c:	02 80 00 08 	be  40007e8c <__GI_memmove+0x5cc>
40007e70:	80 8a 60 02 	btst  2, %o1
40007e74:	c4 0a 40 00 	ldub  [ %o1 ], %g2
40007e78:	92 02 60 01 	inc  %o1
40007e7c:	c4 2a 00 00 	stb  %g2, [ %o0 ]
40007e80:	94 22 a0 01 	dec  %o2
40007e84:	12 80 00 10 	bne  40007ec4 <__GI_memcpy+0x20>
40007e88:	90 02 20 01 	inc  %o0
40007e8c:	c4 12 40 00 	lduh  [ %o1 ], %g2
40007e90:	92 02 60 02 	add  %o1, 2, %o1
40007e94:	c4 32 00 00 	sth  %g2, [ %o0 ]
40007e98:	94 22 a0 02 	sub  %o2, 2, %o2
40007e9c:	10 80 00 0a 	b  40007ec4 <__GI_memcpy+0x20>
40007ea0:	90 02 20 02 	add  %o0, 2, %o0

40007ea4 <__GI_memcpy>:
40007ea4:	98 22 00 09 	sub  %o0, %o1, %o4
40007ea8:	d0 23 a0 40 	st  %o0, [ %sp + 0x40 ]
40007eac:	9a 8b 20 03 	andcc  %o4, 3, %o5
40007eb0:	12 80 00 f4 	bne  40008280 <__GI_memcpy+0x3dc>
40007eb4:	80 a2 a0 0f 	cmp  %o2, 0xf
40007eb8:	08 80 04 08 	bleu  40008ed8 <__GI_memcpy+0x1034>
40007ebc:	80 8a 60 03 	btst  3, %o1
40007ec0:	12 bf ff ea 	bne  40007e68 <__GI_memmove+0x5a8>
40007ec4:	80 8a 60 04 	btst  4, %o1
40007ec8:	02 80 00 07 	be  40007ee4 <__GI_memcpy+0x40>
40007ecc:	82 10 00 0a 	mov  %o2, %g1
40007ed0:	d8 02 40 00 	ld  [ %o1 ], %o4
40007ed4:	82 20 60 04 	sub  %g1, 4, %g1
40007ed8:	d8 22 00 00 	st  %o4, [ %o0 ]
40007edc:	92 02 60 04 	add  %o1, 4, %o1
40007ee0:	90 02 20 04 	add  %o0, 4, %o0
40007ee4:	8c 88 7f 80 	andcc  %g1, -128, %g6
40007ee8:	02 80 00 37 	be  40007fc4 <__GI_memcpy+0x120>
40007eec:	80 8a 20 04 	btst  4, %o0
40007ef0:	02 80 00 84 	be  40008100 <__GI_memcpy+0x25c>
40007ef4:	d4 1a 60 00 	ldd  [ %o1 ], %o2
40007ef8:	d8 1a 60 08 	ldd  [ %o1 + 8 ], %o4
40007efc:	c4 1a 60 10 	ldd  [ %o1 + 0x10 ], %g2
40007f00:	c8 1a 60 18 	ldd  [ %o1 + 0x18 ], %g4
40007f04:	d4 22 20 00 	st  %o2, [ %o0 ]
40007f08:	d6 22 20 04 	st  %o3, [ %o0 + 4 ]
40007f0c:	d8 22 20 08 	st  %o4, [ %o0 + 8 ]
40007f10:	da 22 20 0c 	st  %o5, [ %o0 + 0xc ]
40007f14:	c4 22 20 10 	st  %g2, [ %o0 + 0x10 ]
40007f18:	c6 22 20 14 	st  %g3, [ %o0 + 0x14 ]
40007f1c:	c8 22 20 18 	st  %g4, [ %o0 + 0x18 ]
40007f20:	ca 22 20 1c 	st  %g5, [ %o0 + 0x1c ]
40007f24:	d4 1a 60 20 	ldd  [ %o1 + 0x20 ], %o2
40007f28:	d8 1a 60 28 	ldd  [ %o1 + 0x28 ], %o4
40007f2c:	c4 1a 60 30 	ldd  [ %o1 + 0x30 ], %g2
40007f30:	c8 1a 60 38 	ldd  [ %o1 + 0x38 ], %g4
40007f34:	d4 22 20 20 	st  %o2, [ %o0 + 0x20 ]
40007f38:	d6 22 20 24 	st  %o3, [ %o0 + 0x24 ]
40007f3c:	d8 22 20 28 	st  %o4, [ %o0 + 0x28 ]
40007f40:	da 22 20 2c 	st  %o5, [ %o0 + 0x2c ]
40007f44:	c4 22 20 30 	st  %g2, [ %o0 + 0x30 ]
40007f48:	c6 22 20 34 	st  %g3, [ %o0 + 0x34 ]
40007f4c:	c8 22 20 38 	st  %g4, [ %o0 + 0x38 ]
40007f50:	ca 22 20 3c 	st  %g5, [ %o0 + 0x3c ]
40007f54:	d4 1a 60 40 	ldd  [ %o1 + 0x40 ], %o2
40007f58:	d8 1a 60 48 	ldd  [ %o1 + 0x48 ], %o4
40007f5c:	c4 1a 60 50 	ldd  [ %o1 + 0x50 ], %g2
40007f60:	c8 1a 60 58 	ldd  [ %o1 + 0x58 ], %g4
40007f64:	d4 22 20 40 	st  %o2, [ %o0 + 0x40 ]
40007f68:	d6 22 20 44 	st  %o3, [ %o0 + 0x44 ]
40007f6c:	d8 22 20 48 	st  %o4, [ %o0 + 0x48 ]
40007f70:	da 22 20 4c 	st  %o5, [ %o0 + 0x4c ]
40007f74:	c4 22 20 50 	st  %g2, [ %o0 + 0x50 ]
40007f78:	c6 22 20 54 	st  %g3, [ %o0 + 0x54 ]
40007f7c:	c8 22 20 58 	st  %g4, [ %o0 + 0x58 ]
40007f80:	ca 22 20 5c 	st  %g5, [ %o0 + 0x5c ]
40007f84:	d4 1a 60 60 	ldd  [ %o1 + 0x60 ], %o2
40007f88:	d8 1a 60 68 	ldd  [ %o1 + 0x68 ], %o4
40007f8c:	c4 1a 60 70 	ldd  [ %o1 + 0x70 ], %g2
40007f90:	c8 1a 60 78 	ldd  [ %o1 + 0x78 ], %g4
40007f94:	d4 22 20 60 	st  %o2, [ %o0 + 0x60 ]
40007f98:	d6 22 20 64 	st  %o3, [ %o0 + 0x64 ]
40007f9c:	d8 22 20 68 	st  %o4, [ %o0 + 0x68 ]
40007fa0:	da 22 20 6c 	st  %o5, [ %o0 + 0x6c ]
40007fa4:	c4 22 20 70 	st  %g2, [ %o0 + 0x70 ]
40007fa8:	c6 22 20 74 	st  %g3, [ %o0 + 0x74 ]
40007fac:	c8 22 20 78 	st  %g4, [ %o0 + 0x78 ]
40007fb0:	ca 22 20 7c 	st  %g5, [ %o0 + 0x7c ]
40007fb4:	8c a1 a0 80 	subcc  %g6, 0x80, %g6
40007fb8:	92 02 60 80 	add  %o1, 0x80, %o1
40007fbc:	12 bf ff ce 	bne  40007ef4 <__GI_memcpy+0x50>
40007fc0:	90 02 20 80 	add  %o0, 0x80, %o0
40007fc4:	8c 88 60 70 	andcc  %g1, 0x70, %g6
40007fc8:	02 80 00 34 	be  40008098 <__GI_memcpy+0x1f4>
40007fcc:	80 88 60 08 	btst  8, %g1
40007fd0:	99 31 a0 01 	srl  %g6, 1, %o4
40007fd4:	84 10 00 0f 	mov  %o7, %g2
40007fd8:	98 01 80 0c 	add  %g6, %o4, %o4
40007fdc:	92 02 40 06 	add  %o1, %g6, %o1
40007fe0:	40 00 03 ca 	call  40008f08 <__GI_memcpy+0x1064>
40007fe4:	90 02 00 06 	add  %o0, %g6, %o0
40007fe8:	81 c3 60 b8 	jmp  %o5 + 0xb8
40007fec:	9e 10 00 02 	mov  %g2, %o7
40007ff0:	c4 1a 7f 90 	ldd  [ %o1 + -112 ], %g2
40007ff4:	c8 1a 7f 98 	ldd  [ %o1 + -104 ], %g4
40007ff8:	c4 22 3f 90 	st  %g2, [ %o0 + -112 ]
40007ffc:	c6 22 3f 94 	st  %g3, [ %o0 + -108 ]
40008000:	c8 22 3f 98 	st  %g4, [ %o0 + -104 ]
40008004:	ca 22 3f 9c 	st  %g5, [ %o0 + -100 ]
40008008:	c4 1a 7f a0 	ldd  [ %o1 + -96 ], %g2
4000800c:	c8 1a 7f a8 	ldd  [ %o1 + -88 ], %g4
40008010:	c4 22 3f a0 	st  %g2, [ %o0 + -96 ]
40008014:	c6 22 3f a4 	st  %g3, [ %o0 + -92 ]
40008018:	c8 22 3f a8 	st  %g4, [ %o0 + -88 ]
4000801c:	ca 22 3f ac 	st  %g5, [ %o0 + -84 ]
40008020:	c4 1a 7f b0 	ldd  [ %o1 + -80 ], %g2
40008024:	c8 1a 7f b8 	ldd  [ %o1 + -72 ], %g4
40008028:	c4 22 3f b0 	st  %g2, [ %o0 + -80 ]
4000802c:	c6 22 3f b4 	st  %g3, [ %o0 + -76 ]
40008030:	c8 22 3f b8 	st  %g4, [ %o0 + -72 ]
40008034:	ca 22 3f bc 	st  %g5, [ %o0 + -68 ]
40008038:	c4 1a 7f c0 	ldd  [ %o1 + -64 ], %g2
4000803c:	c8 1a 7f c8 	ldd  [ %o1 + -56 ], %g4
40008040:	c4 22 3f c0 	st  %g2, [ %o0 + -64 ]
40008044:	c6 22 3f c4 	st  %g3, [ %o0 + -60 ]
40008048:	c8 22 3f c8 	st  %g4, [ %o0 + -56 ]
4000804c:	ca 22 3f cc 	st  %g5, [ %o0 + -52 ]
40008050:	c4 1a 7f d0 	ldd  [ %o1 + -48 ], %g2
40008054:	c8 1a 7f d8 	ldd  [ %o1 + -40 ], %g4
40008058:	c4 22 3f d0 	st  %g2, [ %o0 + -48 ]
4000805c:	c6 22 3f d4 	st  %g3, [ %o0 + -44 ]
40008060:	c8 22 3f d8 	st  %g4, [ %o0 + -40 ]
40008064:	ca 22 3f dc 	st  %g5, [ %o0 + -36 ]
40008068:	c4 1a 7f e0 	ldd  [ %o1 + -32 ], %g2
4000806c:	c8 1a 7f e8 	ldd  [ %o1 + -24 ], %g4
40008070:	c4 22 3f e0 	st  %g2, [ %o0 + -32 ]
40008074:	c6 22 3f e4 	st  %g3, [ %o0 + -28 ]
40008078:	c8 22 3f e8 	st  %g4, [ %o0 + -24 ]
4000807c:	ca 22 3f ec 	st  %g5, [ %o0 + -20 ]
40008080:	c4 1a 7f f0 	ldd  [ %o1 + -16 ], %g2
40008084:	c8 1a 7f f8 	ldd  [ %o1 + -8 ], %g4
40008088:	c4 22 3f f0 	st  %g2, [ %o0 + -16 ]
4000808c:	c6 22 3f f4 	st  %g3, [ %o0 + -12 ]
40008090:	c8 22 3f f8 	st  %g4, [ %o0 + -8 ]
40008094:	ca 22 3f fc 	st  %g5, [ %o0 + -4 ]
40008098:	02 80 00 07 	be  400080b4 <__GI_memcpy+0x210>
4000809c:	80 88 60 04 	btst  4, %g1
400080a0:	c4 1a 40 00 	ldd  [ %o1 ], %g2
400080a4:	90 02 20 08 	add  %o0, 8, %o0
400080a8:	c4 22 3f f8 	st  %g2, [ %o0 + -8 ]
400080ac:	92 02 60 08 	add  %o1, 8, %o1
400080b0:	c6 22 3f fc 	st  %g3, [ %o0 + -4 ]
400080b4:	02 80 00 06 	be  400080cc <__GI_memcpy+0x228>
400080b8:	80 88 60 02 	btst  2, %g1
400080bc:	c4 02 40 00 	ld  [ %o1 ], %g2
400080c0:	92 02 60 04 	add  %o1, 4, %o1
400080c4:	c4 22 00 00 	st  %g2, [ %o0 ]
400080c8:	90 02 20 04 	add  %o0, 4, %o0
400080cc:	02 80 00 06 	be  400080e4 <__GI_memcpy+0x240>
400080d0:	80 88 60 01 	btst  1, %g1
400080d4:	c4 12 40 00 	lduh  [ %o1 ], %g2
400080d8:	92 02 60 02 	add  %o1, 2, %o1
400080dc:	c4 32 00 00 	sth  %g2, [ %o0 ]
400080e0:	90 02 20 02 	add  %o0, 2, %o0
400080e4:	02 80 00 04 	be  400080f4 <__GI_memcpy+0x250>
400080e8:	01 00 00 00 	nop 
400080ec:	c4 0a 40 00 	ldub  [ %o1 ], %g2
400080f0:	c4 2a 00 00 	stb  %g2, [ %o0 ]
400080f4:	81 c3 e0 08 	retl 
400080f8:	d0 03 a0 40 	ld  [ %sp + 0x40 ], %o0
400080fc:	d4 1a 60 00 	ldd  [ %o1 ], %o2
40008100:	d8 1a 60 08 	ldd  [ %o1 + 8 ], %o4
40008104:	c4 1a 60 10 	ldd  [ %o1 + 0x10 ], %g2
40008108:	c8 1a 60 18 	ldd  [ %o1 + 0x18 ], %g4
4000810c:	d4 3a 20 00 	std  %o2, [ %o0 ]
40008110:	d8 3a 20 08 	std  %o4, [ %o0 + 8 ]
40008114:	c4 3a 20 10 	std  %g2, [ %o0 + 0x10 ]
40008118:	c8 3a 20 18 	std  %g4, [ %o0 + 0x18 ]
4000811c:	d4 1a 60 20 	ldd  [ %o1 + 0x20 ], %o2
40008120:	d8 1a 60 28 	ldd  [ %o1 + 0x28 ], %o4
40008124:	c4 1a 60 30 	ldd  [ %o1 + 0x30 ], %g2
40008128:	c8 1a 60 38 	ldd  [ %o1 + 0x38 ], %g4
4000812c:	d4 3a 20 20 	std  %o2, [ %o0 + 0x20 ]
40008130:	d8 3a 20 28 	std  %o4, [ %o0 + 0x28 ]
40008134:	c4 3a 20 30 	std  %g2, [ %o0 + 0x30 ]
40008138:	c8 3a 20 38 	std  %g4, [ %o0 + 0x38 ]
4000813c:	d4 1a 60 40 	ldd  [ %o1 + 0x40 ], %o2
40008140:	d8 1a 60 48 	ldd  [ %o1 + 0x48 ], %o4
40008144:	c4 1a 60 50 	ldd  [ %o1 + 0x50 ], %g2
40008148:	c8 1a 60 58 	ldd  [ %o1 + 0x58 ], %g4
4000814c:	d4 3a 20 40 	std  %o2, [ %o0 + 0x40 ]
40008150:	d8 3a 20 48 	std  %o4, [ %o0 + 0x48 ]
40008154:	c4 3a 20 50 	std  %g2, [ %o0 + 0x50 ]
40008158:	c8 3a 20 58 	std  %g4, [ %o0 + 0x58 ]
4000815c:	d4 1a 60 60 	ldd  [ %o1 + 0x60 ], %o2
40008160:	d8 1a 60 68 	ldd  [ %o1 + 0x68 ], %o4
40008164:	c4 1a 60 70 	ldd  [ %o1 + 0x70 ], %g2
40008168:	c8 1a 60 78 	ldd  [ %o1 + 0x78 ], %g4
4000816c:	d4 3a 20 60 	std  %o2, [ %o0 + 0x60 ]
40008170:	d8 3a 20 68 	std  %o4, [ %o0 + 0x68 ]
40008174:	c4 3a 20 70 	std  %g2, [ %o0 + 0x70 ]
40008178:	c8 3a 20 78 	std  %g4, [ %o0 + 0x78 ]
4000817c:	8c a1 a0 80 	subcc  %g6, 0x80, %g6
40008180:	92 02 60 80 	add  %o1, 0x80, %o1
40008184:	12 bf ff de 	bne  400080fc <__GI_memcpy+0x258>
40008188:	90 02 20 80 	add  %o0, 0x80, %o0
4000818c:	8c 88 60 70 	andcc  %g1, 0x70, %g6
40008190:	02 80 00 24 	be  40008220 <__GI_memcpy+0x37c>
40008194:	80 88 60 08 	btst  8, %g1
40008198:	84 10 00 0f 	mov  %o7, %g2
4000819c:	40 00 03 5d 	call  40008f10 <__GI_memcpy+0x106c>
400081a0:	92 02 40 06 	add  %o1, %g6, %o1
400081a4:	9e 10 00 02 	mov  %g2, %o7
400081a8:	81 c3 60 84 	jmp  %o5 + 0x84
400081ac:	90 02 00 06 	add  %o0, %g6, %o0
400081b0:	c4 1a 7f 90 	ldd  [ %o1 + -112 ], %g2
400081b4:	c8 1a 7f 98 	ldd  [ %o1 + -104 ], %g4
400081b8:	c4 3a 3f 90 	std  %g2, [ %o0 + -112 ]
400081bc:	c8 3a 3f 98 	std  %g4, [ %o0 + -104 ]
400081c0:	c4 1a 7f a0 	ldd  [ %o1 + -96 ], %g2
400081c4:	c8 1a 7f a8 	ldd  [ %o1 + -88 ], %g4
400081c8:	c4 3a 3f a0 	std  %g2, [ %o0 + -96 ]
400081cc:	c8 3a 3f a8 	std  %g4, [ %o0 + -88 ]
400081d0:	c4 1a 7f b0 	ldd  [ %o1 + -80 ], %g2
400081d4:	c8 1a 7f b8 	ldd  [ %o1 + -72 ], %g4
400081d8:	c4 3a 3f b0 	std  %g2, [ %o0 + -80 ]
400081dc:	c8 3a 3f b8 	std  %g4, [ %o0 + -72 ]
400081e0:	c4 1a 7f c0 	ldd  [ %o1 + -64 ], %g2
400081e4:	c8 1a 7f c8 	ldd  [ %o1 + -56 ], %g4
400081e8:	c4 3a 3f c0 	std  %g2, [ %o0 + -64 ]
400081ec:	c8 3a 3f c8 	std  %g4, [ %o0 + -56 ]
400081f0:	c4 1a 7f d0 	ldd  [ %o1 + -48 ], %g2
400081f4:	c8 1a 7f d8 	ldd  [ %o1 + -40 ], %g4
400081f8:	c4 3a 3f d0 	std  %g2, [ %o0 + -48 ]
400081fc:	c8 3a 3f d8 	std  %g4, [ %o0 + -40 ]
40008200:	c4 1a 7f e0 	ldd  [ %o1 + -32 ], %g2
40008204:	c8 1a 7f e8 	ldd  [ %o1 + -24 ], %g4
40008208:	c4 3a 3f e0 	std  %g2, [ %o0 + -32 ]
4000820c:	c8 3a 3f e8 	std  %g4, [ %o0 + -24 ]
40008210:	c4 1a 7f f0 	ldd  [ %o1 + -16 ], %g2
40008214:	c8 1a 7f f8 	ldd  [ %o1 + -8 ], %g4
40008218:	c4 3a 3f f0 	std  %g2, [ %o0 + -16 ]
4000821c:	c8 3a 3f f8 	std  %g4, [ %o0 + -8 ]
40008220:	02 80 00 06 	be  40008238 <__GI_memcpy+0x394>
40008224:	80 88 60 04 	btst  4, %g1
40008228:	c4 1a 40 00 	ldd  [ %o1 ], %g2
4000822c:	90 02 20 08 	add  %o0, 8, %o0
40008230:	c4 3a 3f f8 	std  %g2, [ %o0 + -8 ]
40008234:	92 02 60 08 	add  %o1, 8, %o1
40008238:	02 80 00 06 	be  40008250 <__GI_memcpy+0x3ac>
4000823c:	80 88 60 02 	btst  2, %g1
40008240:	c4 02 40 00 	ld  [ %o1 ], %g2
40008244:	92 02 60 04 	add  %o1, 4, %o1
40008248:	c4 22 00 00 	st  %g2, [ %o0 ]
4000824c:	90 02 20 04 	add  %o0, 4, %o0
40008250:	02 80 00 06 	be  40008268 <__GI_memcpy+0x3c4>
40008254:	80 88 60 01 	btst  1, %g1
40008258:	c4 12 40 00 	lduh  [ %o1 ], %g2
4000825c:	92 02 60 02 	add  %o1, 2, %o1
40008260:	c4 32 00 00 	sth  %g2, [ %o0 ]
40008264:	90 02 20 02 	add  %o0, 2, %o0
40008268:	02 80 00 04 	be  40008278 <__GI_memcpy+0x3d4>
4000826c:	01 00 00 00 	nop 
40008270:	c4 0a 40 00 	ldub  [ %o1 ], %g2
40008274:	c4 2a 00 00 	stb  %g2, [ %o0 ]
40008278:	81 c3 e0 08 	retl 
4000827c:	d0 03 a0 40 	ld  [ %sp + 0x40 ], %o0
40008280:	80 a2 a0 06 	cmp  %o2, 6
40008284:	08 80 02 ea 	bleu  40008e2c <__GI_memcpy+0xf88>
40008288:	80 a2 a1 00 	cmp  %o2, 0x100
4000828c:	1a 80 00 65 	bcc  40008420 <__GI_memcpy+0x57c>
40008290:	80 8a 20 03 	btst  3, %o0
40008294:	02 80 00 11 	be  400082d8 <__GI_memcpy+0x434>
40008298:	80 8a 20 01 	btst  1, %o0
4000829c:	02 80 00 08 	be  400082bc <__GI_memcpy+0x418>
400082a0:	80 8a 20 02 	btst  2, %o0
400082a4:	ca 0a 40 00 	ldub  [ %o1 ], %g5
400082a8:	92 02 60 01 	inc  %o1
400082ac:	ca 2a 00 00 	stb  %g5, [ %o0 ]
400082b0:	94 22 a0 01 	dec  %o2
400082b4:	12 80 00 09 	bne  400082d8 <__GI_memcpy+0x434>
400082b8:	90 02 20 01 	inc  %o0
400082bc:	c6 0a 40 00 	ldub  [ %o1 ], %g3
400082c0:	92 02 60 02 	add  %o1, 2, %o1
400082c4:	c6 2a 00 00 	stb  %g3, [ %o0 ]
400082c8:	94 22 a0 02 	sub  %o2, 2, %o2
400082cc:	c6 0a 7f ff 	ldub  [ %o1 + -1 ], %g3
400082d0:	90 02 20 02 	add  %o0, 2, %o0
400082d4:	c6 2a 3f ff 	stb  %g3, [ %o0 + -1 ]
400082d8:	84 0a 60 03 	and  %o1, 3, %g2
400082dc:	86 0a a0 0c 	and  %o2, 0xc, %g3
400082e0:	92 0a 7f fc 	and  %o1, -4, %o1
400082e4:	80 a0 e0 04 	cmp  %g3, 4
400082e8:	89 28 a0 03 	sll  %g2, 3, %g4
400082ec:	84 10 20 20 	mov  0x20, %g2
400082f0:	02 80 00 17 	be  4000834c <__GI_memcpy+0x4a8>
400082f4:	8c 20 80 04 	sub  %g2, %g4, %g6
400082f8:	0a 80 00 0f 	bcs  40008334 <__GI_memcpy+0x490>
400082fc:	80 a0 e0 08 	cmp  %g3, 8
40008300:	02 80 00 07 	be  4000831c <__GI_memcpy+0x478>
40008304:	87 32 a0 02 	srl  %o2, 2, %g3
40008308:	d6 02 40 00 	ld  [ %o1 ], %o3
4000830c:	90 02 3f f8 	add  %o0, -8, %o0
40008310:	d8 02 60 04 	ld  [ %o1 + 4 ], %o4
40008314:	10 80 00 1f 	b  40008390 <__GI_memcpy+0x4ec>
40008318:	86 00 e0 01 	inc  %g3
4000831c:	d8 02 40 00 	ld  [ %o1 ], %o4
40008320:	90 02 3f f4 	add  %o0, -12, %o0
40008324:	da 02 60 04 	ld  [ %o1 + 4 ], %o5
40008328:	86 00 e0 02 	add  %g3, 2, %g3
4000832c:	10 80 00 1e 	b  400083a4 <__GI_memcpy+0x500>
40008330:	92 02 7f fc 	add  %o1, -4, %o1
40008334:	c2 02 40 00 	ld  [ %o1 ], %g1
40008338:	90 02 3f fc 	add  %o0, -4, %o0
4000833c:	d6 02 60 04 	ld  [ %o1 + 4 ], %o3
40008340:	87 32 a0 02 	srl  %o2, 2, %g3
40008344:	10 80 00 0e 	b  4000837c <__GI_memcpy+0x4d8>
40008348:	92 02 60 04 	add  %o1, 4, %o1
4000834c:	da 02 40 00 	ld  [ %o1 ], %o5
40008350:	80 a2 a0 07 	cmp  %o2, 7
40008354:	c2 02 60 04 	ld  [ %o1 + 4 ], %g1
40008358:	87 32 a0 02 	srl  %o2, 2, %g3
4000835c:	08 80 00 1c 	bleu  400083cc <__GI_memcpy+0x528>
40008360:	92 02 60 08 	add  %o1, 8, %o1
40008364:	d6 02 40 00 	ld  [ %o1 ], %o3
40008368:	86 00 ff ff 	add  %g3, -1, %g3
4000836c:	85 2b 40 04 	sll  %o5, %g4, %g2
40008370:	8b 30 40 06 	srl  %g1, %g6, %g5
40008374:	84 10 80 05 	or  %g2, %g5, %g2
40008378:	c4 22 00 00 	st  %g2, [ %o0 ]
4000837c:	d8 02 60 04 	ld  [ %o1 + 4 ], %o4
40008380:	85 28 40 04 	sll  %g1, %g4, %g2
40008384:	8b 32 c0 06 	srl  %o3, %g6, %g5
40008388:	84 10 80 05 	or  %g2, %g5, %g2
4000838c:	c4 22 20 04 	st  %g2, [ %o0 + 4 ]
40008390:	da 02 60 08 	ld  [ %o1 + 8 ], %o5
40008394:	85 2a c0 04 	sll  %o3, %g4, %g2
40008398:	8b 33 00 06 	srl  %o4, %g6, %g5
4000839c:	84 10 80 05 	or  %g2, %g5, %g2
400083a0:	c4 22 20 08 	st  %g2, [ %o0 + 8 ]
400083a4:	c2 02 60 0c 	ld  [ %o1 + 0xc ], %g1
400083a8:	85 2b 00 04 	sll  %o4, %g4, %g2
400083ac:	8b 33 40 06 	srl  %o5, %g6, %g5
400083b0:	86 80 ff fc 	addcc  %g3, -4, %g3
400083b4:	84 10 80 05 	or  %g2, %g5, %g2
400083b8:	92 02 60 10 	add  %o1, 0x10, %o1
400083bc:	c4 22 20 0c 	st  %g2, [ %o0 + 0xc ]
400083c0:	90 02 20 10 	add  %o0, 0x10, %o0
400083c4:	32 bf ff ea 	bne,a   4000836c <__GI_memcpy+0x4c8>
400083c8:	d6 02 40 00 	ld  [ %o1 ], %o3
400083cc:	85 2b 40 04 	sll  %o5, %g4, %g2
400083d0:	8b 30 40 06 	srl  %g1, %g6, %g5
400083d4:	87 31 a0 03 	srl  %g6, 3, %g3
400083d8:	84 10 80 05 	or  %g2, %g5, %g2
400083dc:	92 22 40 03 	sub  %o1, %g3, %o1
400083e0:	80 8a a0 02 	btst  2, %o2
400083e4:	c4 22 00 00 	st  %g2, [ %o0 ]
400083e8:	02 80 00 08 	be  40008408 <__GI_memcpy+0x564>
400083ec:	80 8a a0 01 	btst  1, %o2
400083f0:	c4 0a 40 00 	ldub  [ %o1 ], %g2
400083f4:	92 02 60 02 	add  %o1, 2, %o1
400083f8:	c4 2a 20 04 	stb  %g2, [ %o0 + 4 ]
400083fc:	90 02 20 02 	add  %o0, 2, %o0
40008400:	c4 0a 7f ff 	ldub  [ %o1 + -1 ], %g2
40008404:	c4 2a 20 03 	stb  %g2, [ %o0 + 3 ]
40008408:	02 80 00 04 	be  40008418 <__GI_memcpy+0x574>
4000840c:	01 00 00 00 	nop 
40008410:	c4 0a 40 00 	ldub  [ %o1 ], %g2
40008414:	c4 2a 20 04 	stb  %g2, [ %o0 + 4 ]
40008418:	81 c3 e0 08 	retl 
4000841c:	d0 03 a0 40 	ld  [ %sp + 0x40 ], %o0
40008420:	80 8a 60 03 	btst  3, %o1
40008424:	02 80 00 11 	be  40008468 <__GI_memcpy+0x5c4>
40008428:	80 8a 60 01 	btst  1, %o1
4000842c:	02 80 00 08 	be  4000844c <__GI_memcpy+0x5a8>
40008430:	80 8a 60 02 	btst  2, %o1
40008434:	c4 0a 40 00 	ldub  [ %o1 ], %g2
40008438:	92 02 60 01 	inc  %o1
4000843c:	c4 2a 00 00 	stb  %g2, [ %o0 ]
40008440:	94 22 a0 01 	dec  %o2
40008444:	12 80 00 09 	bne  40008468 <__GI_memcpy+0x5c4>
40008448:	90 02 20 01 	inc  %o0
4000844c:	c4 12 40 00 	lduh  [ %o1 ], %g2
40008450:	92 02 60 02 	add  %o1, 2, %o1
40008454:	87 30 a0 08 	srl  %g2, 8, %g3
40008458:	94 22 a0 02 	sub  %o2, 2, %o2
4000845c:	c6 2a 00 00 	stb  %g3, [ %o0 ]
40008460:	90 02 20 02 	add  %o0, 2, %o0
40008464:	c4 2a 3f ff 	stb  %g2, [ %o0 + -1 ]
40008468:	80 8a 60 04 	btst  4, %o1
4000846c:	12 80 00 0d 	bne  400084a0 <__GI_memcpy+0x5fc>
40008470:	80 a3 60 01 	cmp  %o5, 1
40008474:	d8 02 40 00 	ld  [ %o1 ], %o4
40008478:	85 33 20 18 	srl  %o4, 0x18, %g2
4000847c:	c4 2a 00 00 	stb  %g2, [ %o0 ]
40008480:	87 33 20 10 	srl  %o4, 0x10, %g3
40008484:	c6 2a 20 01 	stb  %g3, [ %o0 + 1 ]
40008488:	85 33 20 08 	srl  %o4, 8, %g2
4000848c:	c4 2a 20 02 	stb  %g2, [ %o0 + 2 ]
40008490:	94 22 a0 04 	sub  %o2, 4, %o2
40008494:	d8 2a 20 03 	stb  %o4, [ %o0 + 3 ]
40008498:	92 02 60 04 	add  %o1, 4, %o1
4000849c:	90 02 20 04 	add  %o0, 4, %o0
400084a0:	02 80 00 da 	be  40008808 <__GI_memcpy+0x964>
400084a4:	80 a3 60 02 	cmp  %o5, 2
400084a8:	02 80 00 6e 	be  40008660 <__GI_memcpy+0x7bc>
400084ac:	94 22 a0 04 	sub  %o2, 4, %o2
400084b0:	c4 02 40 00 	ld  [ %o1 ], %g2
400084b4:	92 02 60 04 	add  %o1, 4, %o1
400084b8:	87 30 a0 18 	srl  %g2, 0x18, %g3
400084bc:	8a 0a 20 07 	and  %o0, 7, %g5
400084c0:	c6 2a 00 00 	stb  %g3, [ %o0 ]
400084c4:	80 a1 60 07 	cmp  %g5, 7
400084c8:	83 28 a0 08 	sll  %g2, 8, %g1
400084cc:	90 02 20 04 	add  %o0, 4, %o0
400084d0:	02 80 01 3b 	be  400089bc <__GI_memcpy+0xb18>
400084d4:	96 0a bf c0 	and  %o2, -64, %o3
400084d8:	d8 02 3f f9 	ld  [ %o0 + -7 ], %o4
400084dc:	c4 1a 60 00 	ldd  [ %o1 ], %g2
400084e0:	c8 1a 60 08 	ldd  [ %o1 + 8 ], %g4
400084e4:	9b 30 a0 18 	srl  %g2, 0x18, %o5
400084e8:	8d 30 e0 18 	srl  %g3, 0x18, %g6
400084ec:	85 28 a0 08 	sll  %g2, 8, %g2
400084f0:	9a 13 40 01 	or  %o5, %g1, %o5
400084f4:	83 28 e0 08 	sll  %g3, 8, %g1
400084f8:	84 11 80 02 	or  %g6, %g2, %g2
400084fc:	87 31 20 18 	srl  %g4, 0x18, %g3
40008500:	8d 31 60 18 	srl  %g5, 0x18, %g6
40008504:	89 29 20 08 	sll  %g4, 8, %g4
40008508:	86 10 c0 01 	or  %g3, %g1, %g3
4000850c:	d8 3a 3f f9 	std  %o4, [ %o0 + -7 ]
40008510:	c4 3a 20 01 	std  %g2, [ %o0 + 1 ]
40008514:	83 29 60 08 	sll  %g5, 8, %g1
40008518:	98 11 80 04 	or  %g6, %g4, %o4
4000851c:	c4 1a 60 10 	ldd  [ %o1 + 0x10 ], %g2
40008520:	c8 1a 60 18 	ldd  [ %o1 + 0x18 ], %g4
40008524:	9b 30 a0 18 	srl  %g2, 0x18, %o5
40008528:	8d 30 e0 18 	srl  %g3, 0x18, %g6
4000852c:	85 28 a0 08 	sll  %g2, 8, %g2
40008530:	9a 13 40 01 	or  %o5, %g1, %o5
40008534:	83 28 e0 08 	sll  %g3, 8, %g1
40008538:	84 11 80 02 	or  %g6, %g2, %g2
4000853c:	87 31 20 18 	srl  %g4, 0x18, %g3
40008540:	8d 31 60 18 	srl  %g5, 0x18, %g6
40008544:	89 29 20 08 	sll  %g4, 8, %g4
40008548:	86 10 c0 01 	or  %g3, %g1, %g3
4000854c:	d8 3a 20 09 	std  %o4, [ %o0 + 9 ]
40008550:	c4 3a 20 11 	std  %g2, [ %o0 + 0x11 ]
40008554:	83 29 60 08 	sll  %g5, 8, %g1
40008558:	98 11 80 04 	or  %g6, %g4, %o4
4000855c:	c4 1a 60 20 	ldd  [ %o1 + 0x20 ], %g2
40008560:	c8 1a 60 28 	ldd  [ %o1 + 0x28 ], %g4
40008564:	9b 30 a0 18 	srl  %g2, 0x18, %o5
40008568:	8d 30 e0 18 	srl  %g3, 0x18, %g6
4000856c:	85 28 a0 08 	sll  %g2, 8, %g2
40008570:	9a 13 40 01 	or  %o5, %g1, %o5
40008574:	83 28 e0 08 	sll  %g3, 8, %g1
40008578:	84 11 80 02 	or  %g6, %g2, %g2
4000857c:	87 31 20 18 	srl  %g4, 0x18, %g3
40008580:	8d 31 60 18 	srl  %g5, 0x18, %g6
40008584:	89 29 20 08 	sll  %g4, 8, %g4
40008588:	86 10 c0 01 	or  %g3, %g1, %g3
4000858c:	d8 3a 20 19 	std  %o4, [ %o0 + 0x19 ]
40008590:	c4 3a 20 21 	std  %g2, [ %o0 + 0x21 ]
40008594:	83 29 60 08 	sll  %g5, 8, %g1
40008598:	98 11 80 04 	or  %g6, %g4, %o4
4000859c:	c4 1a 60 30 	ldd  [ %o1 + 0x30 ], %g2
400085a0:	c8 1a 60 38 	ldd  [ %o1 + 0x38 ], %g4
400085a4:	9b 30 a0 18 	srl  %g2, 0x18, %o5
400085a8:	8d 30 e0 18 	srl  %g3, 0x18, %g6
400085ac:	85 28 a0 08 	sll  %g2, 8, %g2
400085b0:	9a 13 40 01 	or  %o5, %g1, %o5
400085b4:	83 28 e0 08 	sll  %g3, 8, %g1
400085b8:	84 11 80 02 	or  %g6, %g2, %g2
400085bc:	87 31 20 18 	srl  %g4, 0x18, %g3
400085c0:	8d 31 60 18 	srl  %g5, 0x18, %g6
400085c4:	89 29 20 08 	sll  %g4, 8, %g4
400085c8:	86 10 c0 01 	or  %g3, %g1, %g3
400085cc:	d8 3a 20 29 	std  %o4, [ %o0 + 0x29 ]
400085d0:	c4 3a 20 31 	std  %g2, [ %o0 + 0x31 ]
400085d4:	83 29 60 08 	sll  %g5, 8, %g1
400085d8:	98 11 80 04 	or  %g6, %g4, %o4
400085dc:	96 a2 e0 40 	subcc  %o3, 0x40, %o3
400085e0:	92 02 60 40 	add  %o1, 0x40, %o1
400085e4:	12 bf ff be 	bne  400084dc <__GI_memcpy+0x638>
400085e8:	90 02 20 40 	add  %o0, 0x40, %o0
400085ec:	96 8a a0 30 	andcc  %o2, 0x30, %o3
400085f0:	22 80 00 17 	be,a   4000864c <__GI_memcpy+0x7a8>
400085f4:	85 30 60 10 	srl  %g1, 0x10, %g2
400085f8:	c4 1a 60 00 	ldd  [ %o1 ], %g2
400085fc:	c8 1a 60 08 	ldd  [ %o1 + 8 ], %g4
40008600:	9b 30 a0 18 	srl  %g2, 0x18, %o5
40008604:	8d 30 e0 18 	srl  %g3, 0x18, %g6
40008608:	85 28 a0 08 	sll  %g2, 8, %g2
4000860c:	9a 13 40 01 	or  %o5, %g1, %o5
40008610:	83 28 e0 08 	sll  %g3, 8, %g1
40008614:	84 11 80 02 	or  %g6, %g2, %g2
40008618:	87 31 20 18 	srl  %g4, 0x18, %g3
4000861c:	8d 31 60 18 	srl  %g5, 0x18, %g6
40008620:	89 29 20 08 	sll  %g4, 8, %g4
40008624:	86 10 c0 01 	or  %g3, %g1, %g3
40008628:	d8 3a 3f f9 	std  %o4, [ %o0 + -7 ]
4000862c:	c4 3a 20 01 	std  %g2, [ %o0 + 1 ]
40008630:	83 29 60 08 	sll  %g5, 8, %g1
40008634:	98 11 80 04 	or  %g6, %g4, %o4
40008638:	96 a2 e0 10 	subcc  %o3, 0x10, %o3
4000863c:	92 02 60 10 	add  %o1, 0x10, %o1
40008640:	12 bf ff ee 	bne  400085f8 <__GI_memcpy+0x754>
40008644:	90 02 20 10 	add  %o0, 0x10, %o0
40008648:	85 30 60 10 	srl  %g1, 0x10, %g2
4000864c:	d8 22 3f f9 	st  %o4, [ %o0 + -7 ]
40008650:	c4 32 3f fd 	sth  %g2, [ %o0 + -3 ]
40008654:	89 30 60 08 	srl  %g1, 8, %g4
40008658:	10 80 01 f5 	b  40008e2c <__GI_memcpy+0xf88>
4000865c:	c8 2a 3f ff 	stb  %g4, [ %o0 + -1 ]
40008660:	c4 02 40 00 	ld  [ %o1 ], %g2
40008664:	92 02 60 04 	add  %o1, 4, %o1
40008668:	87 30 a0 10 	srl  %g2, 0x10, %g3
4000866c:	8a 0a 20 07 	and  %o0, 7, %g5
40008670:	c6 32 00 00 	sth  %g3, [ %o0 ]
40008674:	80 a1 60 06 	cmp  %g5, 6
40008678:	83 28 a0 10 	sll  %g2, 0x10, %g1
4000867c:	90 02 20 04 	add  %o0, 4, %o0
40008680:	02 80 01 8e 	be  40008cb8 <__GI_memcpy+0xe14>
40008684:	96 0a bf c0 	and  %o2, -64, %o3
40008688:	d8 02 3f fa 	ld  [ %o0 + -6 ], %o4
4000868c:	c4 1a 60 00 	ldd  [ %o1 ], %g2
40008690:	c8 1a 60 08 	ldd  [ %o1 + 8 ], %g4
40008694:	9b 30 a0 10 	srl  %g2, 0x10, %o5
40008698:	8d 30 e0 10 	srl  %g3, 0x10, %g6
4000869c:	85 28 a0 10 	sll  %g2, 0x10, %g2
400086a0:	9a 13 40 01 	or  %o5, %g1, %o5
400086a4:	83 28 e0 10 	sll  %g3, 0x10, %g1
400086a8:	84 11 80 02 	or  %g6, %g2, %g2
400086ac:	87 31 20 10 	srl  %g4, 0x10, %g3
400086b0:	8d 31 60 10 	srl  %g5, 0x10, %g6
400086b4:	89 29 20 10 	sll  %g4, 0x10, %g4
400086b8:	86 10 c0 01 	or  %g3, %g1, %g3
400086bc:	d8 3a 3f fa 	std  %o4, [ %o0 + -6 ]
400086c0:	c4 3a 20 02 	std  %g2, [ %o0 + 2 ]
400086c4:	83 29 60 10 	sll  %g5, 0x10, %g1
400086c8:	98 11 80 04 	or  %g6, %g4, %o4
400086cc:	c4 1a 60 10 	ldd  [ %o1 + 0x10 ], %g2
400086d0:	c8 1a 60 18 	ldd  [ %o1 + 0x18 ], %g4
400086d4:	9b 30 a0 10 	srl  %g2, 0x10, %o5
400086d8:	8d 30 e0 10 	srl  %g3, 0x10, %g6
400086dc:	85 28 a0 10 	sll  %g2, 0x10, %g2
400086e0:	9a 13 40 01 	or  %o5, %g1, %o5
400086e4:	83 28 e0 10 	sll  %g3, 0x10, %g1
400086e8:	84 11 80 02 	or  %g6, %g2, %g2
400086ec:	87 31 20 10 	srl  %g4, 0x10, %g3
400086f0:	8d 31 60 10 	srl  %g5, 0x10, %g6
400086f4:	89 29 20 10 	sll  %g4, 0x10, %g4
400086f8:	86 10 c0 01 	or  %g3, %g1, %g3
400086fc:	d8 3a 20 0a 	std  %o4, [ %o0 + 0xa ]
40008700:	c4 3a 20 12 	std  %g2, [ %o0 + 0x12 ]
40008704:	83 29 60 10 	sll  %g5, 0x10, %g1
40008708:	98 11 80 04 	or  %g6, %g4, %o4
4000870c:	c4 1a 60 20 	ldd  [ %o1 + 0x20 ], %g2
40008710:	c8 1a 60 28 	ldd  [ %o1 + 0x28 ], %g4
40008714:	9b 30 a0 10 	srl  %g2, 0x10, %o5
40008718:	8d 30 e0 10 	srl  %g3, 0x10, %g6
4000871c:	85 28 a0 10 	sll  %g2, 0x10, %g2
40008720:	9a 13 40 01 	or  %o5, %g1, %o5
40008724:	83 28 e0 10 	sll  %g3, 0x10, %g1
40008728:	84 11 80 02 	or  %g6, %g2, %g2
4000872c:	87 31 20 10 	srl  %g4, 0x10, %g3
40008730:	8d 31 60 10 	srl  %g5, 0x10, %g6
40008734:	89 29 20 10 	sll  %g4, 0x10, %g4
40008738:	86 10 c0 01 	or  %g3, %g1, %g3
4000873c:	d8 3a 20 1a 	std  %o4, [ %o0 + 0x1a ]
40008740:	c4 3a 20 22 	std  %g2, [ %o0 + 0x22 ]
40008744:	83 29 60 10 	sll  %g5, 0x10, %g1
40008748:	98 11 80 04 	or  %g6, %g4, %o4
4000874c:	c4 1a 60 30 	ldd  [ %o1 + 0x30 ], %g2
40008750:	c8 1a 60 38 	ldd  [ %o1 + 0x38 ], %g4
40008754:	9b 30 a0 10 	srl  %g2, 0x10, %o5
40008758:	8d 30 e0 10 	srl  %g3, 0x10, %g6
4000875c:	85 28 a0 10 	sll  %g2, 0x10, %g2
40008760:	9a 13 40 01 	or  %o5, %g1, %o5
40008764:	83 28 e0 10 	sll  %g3, 0x10, %g1
40008768:	84 11 80 02 	or  %g6, %g2, %g2
4000876c:	87 31 20 10 	srl  %g4, 0x10, %g3
40008770:	8d 31 60 10 	srl  %g5, 0x10, %g6
40008774:	89 29 20 10 	sll  %g4, 0x10, %g4
40008778:	86 10 c0 01 	or  %g3, %g1, %g3
4000877c:	d8 3a 20 2a 	std  %o4, [ %o0 + 0x2a ]
40008780:	c4 3a 20 32 	std  %g2, [ %o0 + 0x32 ]
40008784:	83 29 60 10 	sll  %g5, 0x10, %g1
40008788:	98 11 80 04 	or  %g6, %g4, %o4
4000878c:	96 a2 e0 40 	subcc  %o3, 0x40, %o3
40008790:	92 02 60 40 	add  %o1, 0x40, %o1
40008794:	12 bf ff be 	bne  4000868c <__GI_memcpy+0x7e8>
40008798:	90 02 20 40 	add  %o0, 0x40, %o0
4000879c:	96 8a a0 30 	andcc  %o2, 0x30, %o3
400087a0:	22 80 00 17 	be,a   400087fc <__GI_memcpy+0x958>
400087a4:	85 30 60 10 	srl  %g1, 0x10, %g2
400087a8:	c4 1a 60 00 	ldd  [ %o1 ], %g2
400087ac:	c8 1a 60 08 	ldd  [ %o1 + 8 ], %g4
400087b0:	9b 30 a0 10 	srl  %g2, 0x10, %o5
400087b4:	8d 30 e0 10 	srl  %g3, 0x10, %g6
400087b8:	85 28 a0 10 	sll  %g2, 0x10, %g2
400087bc:	9a 13 40 01 	or  %o5, %g1, %o5
400087c0:	83 28 e0 10 	sll  %g3, 0x10, %g1
400087c4:	84 11 80 02 	or  %g6, %g2, %g2
400087c8:	87 31 20 10 	srl  %g4, 0x10, %g3
400087cc:	8d 31 60 10 	srl  %g5, 0x10, %g6
400087d0:	89 29 20 10 	sll  %g4, 0x10, %g4
400087d4:	86 10 c0 01 	or  %g3, %g1, %g3
400087d8:	d8 3a 3f fa 	std  %o4, [ %o0 + -6 ]
400087dc:	c4 3a 20 02 	std  %g2, [ %o0 + 2 ]
400087e0:	83 29 60 10 	sll  %g5, 0x10, %g1
400087e4:	98 11 80 04 	or  %g6, %g4, %o4
400087e8:	96 a2 e0 10 	subcc  %o3, 0x10, %o3
400087ec:	92 02 60 10 	add  %o1, 0x10, %o1
400087f0:	12 bf ff ee 	bne  400087a8 <__GI_memcpy+0x904>
400087f4:	90 02 20 10 	add  %o0, 0x10, %o0
400087f8:	85 30 60 10 	srl  %g1, 0x10, %g2
400087fc:	d8 22 3f fa 	st  %o4, [ %o0 + -6 ]
40008800:	10 80 01 8b 	b  40008e2c <__GI_memcpy+0xf88>
40008804:	c4 32 3f fe 	sth  %g2, [ %o0 + -2 ]
40008808:	c4 02 40 00 	ld  [ %o1 ], %g2
4000880c:	94 22 a0 04 	sub  %o2, 4, %o2
40008810:	87 30 a0 18 	srl  %g2, 0x18, %g3
40008814:	8a 0a 20 07 	and  %o0, 7, %g5
40008818:	c6 2a 00 00 	stb  %g3, [ %o0 ]
4000881c:	80 a1 60 05 	cmp  %g5, 5
40008820:	89 30 a0 08 	srl  %g2, 8, %g4
40008824:	83 28 a0 18 	sll  %g2, 0x18, %g1
40008828:	c8 32 20 01 	sth  %g4, [ %o0 + 1 ]
4000882c:	92 02 60 04 	add  %o1, 4, %o1
40008830:	02 80 00 c3 	be  40008b3c <__GI_memcpy+0xc98>
40008834:	96 0a bf c0 	and  %o2, -64, %o3
40008838:	d8 02 3f ff 	ld  [ %o0 + -1 ], %o4
4000883c:	90 02 20 04 	add  %o0, 4, %o0
40008840:	c4 1a 60 00 	ldd  [ %o1 ], %g2
40008844:	c8 1a 60 08 	ldd  [ %o1 + 8 ], %g4
40008848:	9b 30 a0 08 	srl  %g2, 8, %o5
4000884c:	8d 30 e0 08 	srl  %g3, 8, %g6
40008850:	85 28 a0 18 	sll  %g2, 0x18, %g2
40008854:	9a 13 40 01 	or  %o5, %g1, %o5
40008858:	83 28 e0 18 	sll  %g3, 0x18, %g1
4000885c:	84 11 80 02 	or  %g6, %g2, %g2
40008860:	87 31 20 08 	srl  %g4, 8, %g3
40008864:	8d 31 60 08 	srl  %g5, 8, %g6
40008868:	89 29 20 18 	sll  %g4, 0x18, %g4
4000886c:	86 10 c0 01 	or  %g3, %g1, %g3
40008870:	d8 3a 3f fb 	std  %o4, [ %o0 + -5 ]
40008874:	c4 3a 20 03 	std  %g2, [ %o0 + 3 ]
40008878:	83 29 60 18 	sll  %g5, 0x18, %g1
4000887c:	98 11 80 04 	or  %g6, %g4, %o4
40008880:	c4 1a 60 10 	ldd  [ %o1 + 0x10 ], %g2
40008884:	c8 1a 60 18 	ldd  [ %o1 + 0x18 ], %g4
40008888:	9b 30 a0 08 	srl  %g2, 8, %o5
4000888c:	8d 30 e0 08 	srl  %g3, 8, %g6
40008890:	85 28 a0 18 	sll  %g2, 0x18, %g2
40008894:	9a 13 40 01 	or  %o5, %g1, %o5
40008898:	83 28 e0 18 	sll  %g3, 0x18, %g1
4000889c:	84 11 80 02 	or  %g6, %g2, %g2
400088a0:	87 31 20 08 	srl  %g4, 8, %g3
400088a4:	8d 31 60 08 	srl  %g5, 8, %g6
400088a8:	89 29 20 18 	sll  %g4, 0x18, %g4
400088ac:	86 10 c0 01 	or  %g3, %g1, %g3
400088b0:	d8 3a 20 0b 	std  %o4, [ %o0 + 0xb ]
400088b4:	c4 3a 20 13 	std  %g2, [ %o0 + 0x13 ]
400088b8:	83 29 60 18 	sll  %g5, 0x18, %g1
400088bc:	98 11 80 04 	or  %g6, %g4, %o4
400088c0:	c4 1a 60 20 	ldd  [ %o1 + 0x20 ], %g2
400088c4:	c8 1a 60 28 	ldd  [ %o1 + 0x28 ], %g4
400088c8:	9b 30 a0 08 	srl  %g2, 8, %o5
400088cc:	8d 30 e0 08 	srl  %g3, 8, %g6
400088d0:	85 28 a0 18 	sll  %g2, 0x18, %g2
400088d4:	9a 13 40 01 	or  %o5, %g1, %o5
400088d8:	83 28 e0 18 	sll  %g3, 0x18, %g1
400088dc:	84 11 80 02 	or  %g6, %g2, %g2
400088e0:	87 31 20 08 	srl  %g4, 8, %g3
400088e4:	8d 31 60 08 	srl  %g5, 8, %g6
400088e8:	89 29 20 18 	sll  %g4, 0x18, %g4
400088ec:	86 10 c0 01 	or  %g3, %g1, %g3
400088f0:	d8 3a 20 1b 	std  %o4, [ %o0 + 0x1b ]
400088f4:	c4 3a 20 23 	std  %g2, [ %o0 + 0x23 ]
400088f8:	83 29 60 18 	sll  %g5, 0x18, %g1
400088fc:	98 11 80 04 	or  %g6, %g4, %o4
40008900:	c4 1a 60 30 	ldd  [ %o1 + 0x30 ], %g2
40008904:	c8 1a 60 38 	ldd  [ %o1 + 0x38 ], %g4
40008908:	9b 30 a0 08 	srl  %g2, 8, %o5
4000890c:	8d 30 e0 08 	srl  %g3, 8, %g6
40008910:	85 28 a0 18 	sll  %g2, 0x18, %g2
40008914:	9a 13 40 01 	or  %o5, %g1, %o5
40008918:	83 28 e0 18 	sll  %g3, 0x18, %g1
4000891c:	84 11 80 02 	or  %g6, %g2, %g2
40008920:	87 31 20 08 	srl  %g4, 8, %g3
40008924:	8d 31 60 08 	srl  %g5, 8, %g6
40008928:	89 29 20 18 	sll  %g4, 0x18, %g4
4000892c:	86 10 c0 01 	or  %g3, %g1, %g3
40008930:	d8 3a 20 2b 	std  %o4, [ %o0 + 0x2b ]
40008934:	c4 3a 20 33 	std  %g2, [ %o0 + 0x33 ]
40008938:	83 29 60 18 	sll  %g5, 0x18, %g1
4000893c:	98 11 80 04 	or  %g6, %g4, %o4
40008940:	96 a2 e0 40 	subcc  %o3, 0x40, %o3
40008944:	92 02 60 40 	add  %o1, 0x40, %o1
40008948:	12 bf ff be 	bne  40008840 <__GI_memcpy+0x99c>
4000894c:	90 02 20 40 	add  %o0, 0x40, %o0
40008950:	96 8a a0 30 	andcc  %o2, 0x30, %o3
40008954:	22 80 00 17 	be,a   400089b0 <__GI_memcpy+0xb0c>
40008958:	85 30 60 18 	srl  %g1, 0x18, %g2
4000895c:	c4 1a 60 00 	ldd  [ %o1 ], %g2
40008960:	c8 1a 60 08 	ldd  [ %o1 + 8 ], %g4
40008964:	9b 30 a0 08 	srl  %g2, 8, %o5
40008968:	8d 30 e0 08 	srl  %g3, 8, %g6
4000896c:	85 28 a0 18 	sll  %g2, 0x18, %g2
40008970:	9a 13 40 01 	or  %o5, %g1, %o5
40008974:	83 28 e0 18 	sll  %g3, 0x18, %g1
40008978:	84 11 80 02 	or  %g6, %g2, %g2
4000897c:	87 31 20 08 	srl  %g4, 8, %g3
40008980:	8d 31 60 08 	srl  %g5, 8, %g6
40008984:	89 29 20 18 	sll  %g4, 0x18, %g4
40008988:	86 10 c0 01 	or  %g3, %g1, %g3
4000898c:	d8 3a 3f fb 	std  %o4, [ %o0 + -5 ]
40008990:	c4 3a 20 03 	std  %g2, [ %o0 + 3 ]
40008994:	83 29 60 18 	sll  %g5, 0x18, %g1
40008998:	98 11 80 04 	or  %g6, %g4, %o4
4000899c:	96 a2 e0 10 	subcc  %o3, 0x10, %o3
400089a0:	92 02 60 10 	add  %o1, 0x10, %o1
400089a4:	12 bf ff ee 	bne  4000895c <__GI_memcpy+0xab8>
400089a8:	90 02 20 10 	add  %o0, 0x10, %o0
400089ac:	85 30 60 18 	srl  %g1, 0x18, %g2
400089b0:	d8 22 3f fb 	st  %o4, [ %o0 + -5 ]
400089b4:	10 80 01 1e 	b  40008e2c <__GI_memcpy+0xf88>
400089b8:	c4 2a 3f ff 	stb  %g2, [ %o0 + -1 ]
400089bc:	c4 1a 60 00 	ldd  [ %o1 ], %g2
400089c0:	c8 1a 60 08 	ldd  [ %o1 + 8 ], %g4
400089c4:	99 30 a0 18 	srl  %g2, 0x18, %o4
400089c8:	9b 30 e0 18 	srl  %g3, 0x18, %o5
400089cc:	8d 28 a0 08 	sll  %g2, 8, %g6
400089d0:	84 13 00 01 	or  %o4, %g1, %g2
400089d4:	83 28 e0 08 	sll  %g3, 8, %g1
400089d8:	86 13 40 06 	or  %o5, %g6, %g3
400089dc:	99 31 20 18 	srl  %g4, 0x18, %o4
400089e0:	9b 31 60 18 	srl  %g5, 0x18, %o5
400089e4:	8d 29 20 08 	sll  %g4, 8, %g6
400089e8:	88 13 00 01 	or  %o4, %g1, %g4
400089ec:	83 29 60 08 	sll  %g5, 8, %g1
400089f0:	8a 13 40 06 	or  %o5, %g6, %g5
400089f4:	c4 3a 3f fd 	std  %g2, [ %o0 + -3 ]
400089f8:	c8 3a 20 05 	std  %g4, [ %o0 + 5 ]
400089fc:	c4 1a 60 10 	ldd  [ %o1 + 0x10 ], %g2
40008a00:	c8 1a 60 18 	ldd  [ %o1 + 0x18 ], %g4
40008a04:	99 30 a0 18 	srl  %g2, 0x18, %o4
40008a08:	9b 30 e0 18 	srl  %g3, 0x18, %o5
40008a0c:	8d 28 a0 08 	sll  %g2, 8, %g6
40008a10:	84 13 00 01 	or  %o4, %g1, %g2
40008a14:	83 28 e0 08 	sll  %g3, 8, %g1
40008a18:	86 13 40 06 	or  %o5, %g6, %g3
40008a1c:	99 31 20 18 	srl  %g4, 0x18, %o4
40008a20:	9b 31 60 18 	srl  %g5, 0x18, %o5
40008a24:	8d 29 20 08 	sll  %g4, 8, %g6
40008a28:	88 13 00 01 	or  %o4, %g1, %g4
40008a2c:	83 29 60 08 	sll  %g5, 8, %g1
40008a30:	8a 13 40 06 	or  %o5, %g6, %g5
40008a34:	c4 3a 20 0d 	std  %g2, [ %o0 + 0xd ]
40008a38:	c8 3a 20 15 	std  %g4, [ %o0 + 0x15 ]
40008a3c:	c4 1a 60 20 	ldd  [ %o1 + 0x20 ], %g2
40008a40:	c8 1a 60 28 	ldd  [ %o1 + 0x28 ], %g4
40008a44:	99 30 a0 18 	srl  %g2, 0x18, %o4
40008a48:	9b 30 e0 18 	srl  %g3, 0x18, %o5
40008a4c:	8d 28 a0 08 	sll  %g2, 8, %g6
40008a50:	84 13 00 01 	or  %o4, %g1, %g2
40008a54:	83 28 e0 08 	sll  %g3, 8, %g1
40008a58:	86 13 40 06 	or  %o5, %g6, %g3
40008a5c:	99 31 20 18 	srl  %g4, 0x18, %o4
40008a60:	9b 31 60 18 	srl  %g5, 0x18, %o5
40008a64:	8d 29 20 08 	sll  %g4, 8, %g6
40008a68:	88 13 00 01 	or  %o4, %g1, %g4
40008a6c:	83 29 60 08 	sll  %g5, 8, %g1
40008a70:	8a 13 40 06 	or  %o5, %g6, %g5
40008a74:	c4 3a 20 1d 	std  %g2, [ %o0 + 0x1d ]
40008a78:	c8 3a 20 25 	std  %g4, [ %o0 + 0x25 ]
40008a7c:	c4 1a 60 30 	ldd  [ %o1 + 0x30 ], %g2
40008a80:	c8 1a 60 38 	ldd  [ %o1 + 0x38 ], %g4
40008a84:	99 30 a0 18 	srl  %g2, 0x18, %o4
40008a88:	9b 30 e0 18 	srl  %g3, 0x18, %o5
40008a8c:	8d 28 a0 08 	sll  %g2, 8, %g6
40008a90:	84 13 00 01 	or  %o4, %g1, %g2
40008a94:	83 28 e0 08 	sll  %g3, 8, %g1
40008a98:	86 13 40 06 	or  %o5, %g6, %g3
40008a9c:	99 31 20 18 	srl  %g4, 0x18, %o4
40008aa0:	9b 31 60 18 	srl  %g5, 0x18, %o5
40008aa4:	8d 29 20 08 	sll  %g4, 8, %g6
40008aa8:	88 13 00 01 	or  %o4, %g1, %g4
40008aac:	83 29 60 08 	sll  %g5, 8, %g1
40008ab0:	8a 13 40 06 	or  %o5, %g6, %g5
40008ab4:	c4 3a 20 2d 	std  %g2, [ %o0 + 0x2d ]
40008ab8:	c8 3a 20 35 	std  %g4, [ %o0 + 0x35 ]
40008abc:	96 a2 e0 40 	subcc  %o3, 0x40, %o3
40008ac0:	92 02 60 40 	add  %o1, 0x40, %o1
40008ac4:	12 bf ff be 	bne  400089bc <__GI_memcpy+0xb18>
40008ac8:	90 02 20 40 	add  %o0, 0x40, %o0
40008acc:	96 8a a0 30 	andcc  %o2, 0x30, %o3
40008ad0:	22 80 00 17 	be,a   40008b2c <__GI_memcpy+0xc88>
40008ad4:	85 30 60 10 	srl  %g1, 0x10, %g2
40008ad8:	c4 1a 60 00 	ldd  [ %o1 ], %g2
40008adc:	c8 1a 60 08 	ldd  [ %o1 + 8 ], %g4
40008ae0:	99 30 a0 18 	srl  %g2, 0x18, %o4
40008ae4:	9b 30 e0 18 	srl  %g3, 0x18, %o5
40008ae8:	8d 28 a0 08 	sll  %g2, 8, %g6
40008aec:	84 13 00 01 	or  %o4, %g1, %g2
40008af0:	83 28 e0 08 	sll  %g3, 8, %g1
40008af4:	86 13 40 06 	or  %o5, %g6, %g3
40008af8:	99 31 20 18 	srl  %g4, 0x18, %o4
40008afc:	9b 31 60 18 	srl  %g5, 0x18, %o5
40008b00:	8d 29 20 08 	sll  %g4, 8, %g6
40008b04:	88 13 00 01 	or  %o4, %g1, %g4
40008b08:	83 29 60 08 	sll  %g5, 8, %g1
40008b0c:	8a 13 40 06 	or  %o5, %g6, %g5
40008b10:	c4 3a 3f fd 	std  %g2, [ %o0 + -3 ]
40008b14:	c8 3a 20 05 	std  %g4, [ %o0 + 5 ]
40008b18:	96 a2 e0 10 	subcc  %o3, 0x10, %o3
40008b1c:	92 02 60 10 	add  %o1, 0x10, %o1
40008b20:	12 bf ff ee 	bne  40008ad8 <__GI_memcpy+0xc34>
40008b24:	90 02 20 10 	add  %o0, 0x10, %o0
40008b28:	85 30 60 10 	srl  %g1, 0x10, %g2
40008b2c:	c4 32 3f fd 	sth  %g2, [ %o0 + -3 ]
40008b30:	89 30 60 08 	srl  %g1, 8, %g4
40008b34:	10 80 00 be 	b  40008e2c <__GI_memcpy+0xf88>
40008b38:	c8 2a 3f ff 	stb  %g4, [ %o0 + -1 ]
40008b3c:	c4 1a 60 00 	ldd  [ %o1 ], %g2
40008b40:	c8 1a 60 08 	ldd  [ %o1 + 8 ], %g4
40008b44:	99 30 a0 08 	srl  %g2, 8, %o4
40008b48:	9b 30 e0 08 	srl  %g3, 8, %o5
40008b4c:	8d 28 a0 18 	sll  %g2, 0x18, %g6
40008b50:	84 13 00 01 	or  %o4, %g1, %g2
40008b54:	83 28 e0 18 	sll  %g3, 0x18, %g1
40008b58:	86 13 40 06 	or  %o5, %g6, %g3
40008b5c:	99 31 20 08 	srl  %g4, 8, %o4
40008b60:	9b 31 60 08 	srl  %g5, 8, %o5
40008b64:	8d 29 20 18 	sll  %g4, 0x18, %g6
40008b68:	88 13 00 01 	or  %o4, %g1, %g4
40008b6c:	83 29 60 18 	sll  %g5, 0x18, %g1
40008b70:	8a 13 40 06 	or  %o5, %g6, %g5
40008b74:	c4 3a 20 03 	std  %g2, [ %o0 + 3 ]
40008b78:	c8 3a 20 0b 	std  %g4, [ %o0 + 0xb ]
40008b7c:	c4 1a 60 10 	ldd  [ %o1 + 0x10 ], %g2
40008b80:	c8 1a 60 18 	ldd  [ %o1 + 0x18 ], %g4
40008b84:	99 30 a0 08 	srl  %g2, 8, %o4
40008b88:	9b 30 e0 08 	srl  %g3, 8, %o5
40008b8c:	8d 28 a0 18 	sll  %g2, 0x18, %g6
40008b90:	84 13 00 01 	or  %o4, %g1, %g2
40008b94:	83 28 e0 18 	sll  %g3, 0x18, %g1
40008b98:	86 13 40 06 	or  %o5, %g6, %g3
40008b9c:	99 31 20 08 	srl  %g4, 8, %o4
40008ba0:	9b 31 60 08 	srl  %g5, 8, %o5
40008ba4:	8d 29 20 18 	sll  %g4, 0x18, %g6
40008ba8:	88 13 00 01 	or  %o4, %g1, %g4
40008bac:	83 29 60 18 	sll  %g5, 0x18, %g1
40008bb0:	8a 13 40 06 	or  %o5, %g6, %g5
40008bb4:	c4 3a 20 13 	std  %g2, [ %o0 + 0x13 ]
40008bb8:	c8 3a 20 1b 	std  %g4, [ %o0 + 0x1b ]
40008bbc:	c4 1a 60 20 	ldd  [ %o1 + 0x20 ], %g2
40008bc0:	c8 1a 60 28 	ldd  [ %o1 + 0x28 ], %g4
40008bc4:	99 30 a0 08 	srl  %g2, 8, %o4
40008bc8:	9b 30 e0 08 	srl  %g3, 8, %o5
40008bcc:	8d 28 a0 18 	sll  %g2, 0x18, %g6
40008bd0:	84 13 00 01 	or  %o4, %g1, %g2
40008bd4:	83 28 e0 18 	sll  %g3, 0x18, %g1
40008bd8:	86 13 40 06 	or  %o5, %g6, %g3
40008bdc:	99 31 20 08 	srl  %g4, 8, %o4
40008be0:	9b 31 60 08 	srl  %g5, 8, %o5
40008be4:	8d 29 20 18 	sll  %g4, 0x18, %g6
40008be8:	88 13 00 01 	or  %o4, %g1, %g4
40008bec:	83 29 60 18 	sll  %g5, 0x18, %g1
40008bf0:	8a 13 40 06 	or  %o5, %g6, %g5
40008bf4:	c4 3a 20 23 	std  %g2, [ %o0 + 0x23 ]
40008bf8:	c8 3a 20 2b 	std  %g4, [ %o0 + 0x2b ]
40008bfc:	c4 1a 60 30 	ldd  [ %o1 + 0x30 ], %g2
40008c00:	c8 1a 60 38 	ldd  [ %o1 + 0x38 ], %g4
40008c04:	99 30 a0 08 	srl  %g2, 8, %o4
40008c08:	9b 30 e0 08 	srl  %g3, 8, %o5
40008c0c:	8d 28 a0 18 	sll  %g2, 0x18, %g6
40008c10:	84 13 00 01 	or  %o4, %g1, %g2
40008c14:	83 28 e0 18 	sll  %g3, 0x18, %g1
40008c18:	86 13 40 06 	or  %o5, %g6, %g3
40008c1c:	99 31 20 08 	srl  %g4, 8, %o4
40008c20:	9b 31 60 08 	srl  %g5, 8, %o5
40008c24:	8d 29 20 18 	sll  %g4, 0x18, %g6
40008c28:	88 13 00 01 	or  %o4, %g1, %g4
40008c2c:	83 29 60 18 	sll  %g5, 0x18, %g1
40008c30:	8a 13 40 06 	or  %o5, %g6, %g5
40008c34:	c4 3a 20 33 	std  %g2, [ %o0 + 0x33 ]
40008c38:	c8 3a 20 3b 	std  %g4, [ %o0 + 0x3b ]
40008c3c:	96 a2 e0 40 	subcc  %o3, 0x40, %o3
40008c40:	92 02 60 40 	add  %o1, 0x40, %o1
40008c44:	12 bf ff be 	bne  40008b3c <__GI_memcpy+0xc98>
40008c48:	90 02 20 40 	add  %o0, 0x40, %o0
40008c4c:	96 8a a0 30 	andcc  %o2, 0x30, %o3
40008c50:	22 80 00 17 	be,a   40008cac <__GI_memcpy+0xe08>
40008c54:	85 30 60 18 	srl  %g1, 0x18, %g2
40008c58:	c4 1a 60 00 	ldd  [ %o1 ], %g2
40008c5c:	c8 1a 60 08 	ldd  [ %o1 + 8 ], %g4
40008c60:	99 30 a0 08 	srl  %g2, 8, %o4
40008c64:	9b 30 e0 08 	srl  %g3, 8, %o5
40008c68:	8d 28 a0 18 	sll  %g2, 0x18, %g6
40008c6c:	84 13 00 01 	or  %o4, %g1, %g2
40008c70:	83 28 e0 18 	sll  %g3, 0x18, %g1
40008c74:	86 13 40 06 	or  %o5, %g6, %g3
40008c78:	99 31 20 08 	srl  %g4, 8, %o4
40008c7c:	9b 31 60 08 	srl  %g5, 8, %o5
40008c80:	8d 29 20 18 	sll  %g4, 0x18, %g6
40008c84:	88 13 00 01 	or  %o4, %g1, %g4
40008c88:	83 29 60 18 	sll  %g5, 0x18, %g1
40008c8c:	8a 13 40 06 	or  %o5, %g6, %g5
40008c90:	c4 3a 20 03 	std  %g2, [ %o0 + 3 ]
40008c94:	c8 3a 20 0b 	std  %g4, [ %o0 + 0xb ]
40008c98:	96 a2 e0 10 	subcc  %o3, 0x10, %o3
40008c9c:	92 02 60 10 	add  %o1, 0x10, %o1
40008ca0:	12 bf ff ee 	bne  40008c58 <__GI_memcpy+0xdb4>
40008ca4:	90 02 20 10 	add  %o0, 0x10, %o0
40008ca8:	85 30 60 18 	srl  %g1, 0x18, %g2
40008cac:	c4 2a 20 03 	stb  %g2, [ %o0 + 3 ]
40008cb0:	10 80 00 5f 	b  40008e2c <__GI_memcpy+0xf88>
40008cb4:	90 02 20 04 	add  %o0, 4, %o0
40008cb8:	c4 1a 60 00 	ldd  [ %o1 ], %g2
40008cbc:	c8 1a 60 08 	ldd  [ %o1 + 8 ], %g4
40008cc0:	99 30 a0 10 	srl  %g2, 0x10, %o4
40008cc4:	9b 30 e0 10 	srl  %g3, 0x10, %o5
40008cc8:	8d 28 a0 10 	sll  %g2, 0x10, %g6
40008ccc:	84 13 00 01 	or  %o4, %g1, %g2
40008cd0:	83 28 e0 10 	sll  %g3, 0x10, %g1
40008cd4:	86 13 40 06 	or  %o5, %g6, %g3
40008cd8:	99 31 20 10 	srl  %g4, 0x10, %o4
40008cdc:	9b 31 60 10 	srl  %g5, 0x10, %o5
40008ce0:	8d 29 20 10 	sll  %g4, 0x10, %g6
40008ce4:	88 13 00 01 	or  %o4, %g1, %g4
40008ce8:	83 29 60 10 	sll  %g5, 0x10, %g1
40008cec:	8a 13 40 06 	or  %o5, %g6, %g5
40008cf0:	c4 3a 3f fe 	std  %g2, [ %o0 + -2 ]
40008cf4:	c8 3a 20 06 	std  %g4, [ %o0 + 6 ]
40008cf8:	c4 1a 60 10 	ldd  [ %o1 + 0x10 ], %g2
40008cfc:	c8 1a 60 18 	ldd  [ %o1 + 0x18 ], %g4
40008d00:	99 30 a0 10 	srl  %g2, 0x10, %o4
40008d04:	9b 30 e0 10 	srl  %g3, 0x10, %o5
40008d08:	8d 28 a0 10 	sll  %g2, 0x10, %g6
40008d0c:	84 13 00 01 	or  %o4, %g1, %g2
40008d10:	83 28 e0 10 	sll  %g3, 0x10, %g1
40008d14:	86 13 40 06 	or  %o5, %g6, %g3
40008d18:	99 31 20 10 	srl  %g4, 0x10, %o4
40008d1c:	9b 31 60 10 	srl  %g5, 0x10, %o5
40008d20:	8d 29 20 10 	sll  %g4, 0x10, %g6
40008d24:	88 13 00 01 	or  %o4, %g1, %g4
40008d28:	83 29 60 10 	sll  %g5, 0x10, %g1
40008d2c:	8a 13 40 06 	or  %o5, %g6, %g5
40008d30:	c4 3a 20 0e 	std  %g2, [ %o0 + 0xe ]
40008d34:	c8 3a 20 16 	std  %g4, [ %o0 + 0x16 ]
40008d38:	c4 1a 60 20 	ldd  [ %o1 + 0x20 ], %g2
40008d3c:	c8 1a 60 28 	ldd  [ %o1 + 0x28 ], %g4
40008d40:	99 30 a0 10 	srl  %g2, 0x10, %o4
40008d44:	9b 30 e0 10 	srl  %g3, 0x10, %o5
40008d48:	8d 28 a0 10 	sll  %g2, 0x10, %g6
40008d4c:	84 13 00 01 	or  %o4, %g1, %g2
40008d50:	83 28 e0 10 	sll  %g3, 0x10, %g1
40008d54:	86 13 40 06 	or  %o5, %g6, %g3
40008d58:	99 31 20 10 	srl  %g4, 0x10, %o4
40008d5c:	9b 31 60 10 	srl  %g5, 0x10, %o5
40008d60:	8d 29 20 10 	sll  %g4, 0x10, %g6
40008d64:	88 13 00 01 	or  %o4, %g1, %g4
40008d68:	83 29 60 10 	sll  %g5, 0x10, %g1
40008d6c:	8a 13 40 06 	or  %o5, %g6, %g5
40008d70:	c4 3a 20 1e 	std  %g2, [ %o0 + 0x1e ]
40008d74:	c8 3a 20 26 	std  %g4, [ %o0 + 0x26 ]
40008d78:	c4 1a 60 30 	ldd  [ %o1 + 0x30 ], %g2
40008d7c:	c8 1a 60 38 	ldd  [ %o1 + 0x38 ], %g4
40008d80:	99 30 a0 10 	srl  %g2, 0x10, %o4
40008d84:	9b 30 e0 10 	srl  %g3, 0x10, %o5
40008d88:	8d 28 a0 10 	sll  %g2, 0x10, %g6
40008d8c:	84 13 00 01 	or  %o4, %g1, %g2
40008d90:	83 28 e0 10 	sll  %g3, 0x10, %g1
40008d94:	86 13 40 06 	or  %o5, %g6, %g3
40008d98:	99 31 20 10 	srl  %g4, 0x10, %o4
40008d9c:	9b 31 60 10 	srl  %g5, 0x10, %o5
40008da0:	8d 29 20 10 	sll  %g4, 0x10, %g6
40008da4:	88 13 00 01 	or  %o4, %g1, %g4
40008da8:	83 29 60 10 	sll  %g5, 0x10, %g1
40008dac:	8a 13 40 06 	or  %o5, %g6, %g5
40008db0:	c4 3a 20 2e 	std  %g2, [ %o0 + 0x2e ]
40008db4:	c8 3a 20 36 	std  %g4, [ %o0 + 0x36 ]
40008db8:	96 a2 e0 40 	subcc  %o3, 0x40, %o3
40008dbc:	92 02 60 40 	add  %o1, 0x40, %o1
40008dc0:	12 bf ff be 	bne  40008cb8 <__GI_memcpy+0xe14>
40008dc4:	90 02 20 40 	add  %o0, 0x40, %o0
40008dc8:	96 8a a0 30 	andcc  %o2, 0x30, %o3
40008dcc:	22 80 00 17 	be,a   40008e28 <__GI_memcpy+0xf84>
40008dd0:	85 30 60 10 	srl  %g1, 0x10, %g2
40008dd4:	c4 1a 60 00 	ldd  [ %o1 ], %g2
40008dd8:	c8 1a 60 08 	ldd  [ %o1 + 8 ], %g4
40008ddc:	99 30 a0 10 	srl  %g2, 0x10, %o4
40008de0:	9b 30 e0 10 	srl  %g3, 0x10, %o5
40008de4:	8d 28 a0 10 	sll  %g2, 0x10, %g6
40008de8:	84 13 00 01 	or  %o4, %g1, %g2
40008dec:	83 28 e0 10 	sll  %g3, 0x10, %g1
40008df0:	86 13 40 06 	or  %o5, %g6, %g3
40008df4:	99 31 20 10 	srl  %g4, 0x10, %o4
40008df8:	9b 31 60 10 	srl  %g5, 0x10, %o5
40008dfc:	8d 29 20 10 	sll  %g4, 0x10, %g6
40008e00:	88 13 00 01 	or  %o4, %g1, %g4
40008e04:	83 29 60 10 	sll  %g5, 0x10, %g1
40008e08:	8a 13 40 06 	or  %o5, %g6, %g5
40008e0c:	c4 3a 3f fe 	std  %g2, [ %o0 + -2 ]
40008e10:	c8 3a 20 06 	std  %g4, [ %o0 + 6 ]
40008e14:	96 a2 e0 10 	subcc  %o3, 0x10, %o3
40008e18:	92 02 60 10 	add  %o1, 0x10, %o1
40008e1c:	12 bf ff ee 	bne  40008dd4 <__GI_memcpy+0xf30>
40008e20:	90 02 20 10 	add  %o0, 0x10, %o0
40008e24:	85 30 60 10 	srl  %g1, 0x10, %g2
40008e28:	c4 32 3f fe 	sth  %g2, [ %o0 + -2 ]
40008e2c:	96 0a a0 0e 	and  %o2, 0xe, %o3
40008e30:	84 10 00 0f 	mov  %o7, %g2
40008e34:	99 2a e0 03 	sll  %o3, 3, %o4
40008e38:	90 02 00 0b 	add  %o0, %o3, %o0
40008e3c:	40 00 00 33 	call  40008f08 <__GI_memcpy+0x1064>
40008e40:	92 02 40 0b 	add  %o1, %o3, %o1
40008e44:	9e 10 00 02 	mov  %g2, %o7
40008e48:	81 c3 60 84 	jmp  %o5 + 0x84
40008e4c:	80 8a a0 01 	btst  1, %o2
40008e50:	c4 0a 7f f2 	ldub  [ %o1 + -14 ], %g2
40008e54:	c6 0a 7f f3 	ldub  [ %o1 + -13 ], %g3
40008e58:	c4 2a 3f f2 	stb  %g2, [ %o0 + -14 ]
40008e5c:	c6 2a 3f f3 	stb  %g3, [ %o0 + -13 ]
40008e60:	c4 0a 7f f4 	ldub  [ %o1 + -12 ], %g2
40008e64:	c6 0a 7f f5 	ldub  [ %o1 + -11 ], %g3
40008e68:	c4 2a 3f f4 	stb  %g2, [ %o0 + -12 ]
40008e6c:	c6 2a 3f f5 	stb  %g3, [ %o0 + -11 ]
40008e70:	c4 0a 7f f6 	ldub  [ %o1 + -10 ], %g2
40008e74:	c6 0a 7f f7 	ldub  [ %o1 + -9 ], %g3
40008e78:	c4 2a 3f f6 	stb  %g2, [ %o0 + -10 ]
40008e7c:	c6 2a 3f f7 	stb  %g3, [ %o0 + -9 ]
40008e80:	c4 0a 7f f8 	ldub  [ %o1 + -8 ], %g2
40008e84:	c6 0a 7f f9 	ldub  [ %o1 + -7 ], %g3
40008e88:	c4 2a 3f f8 	stb  %g2, [ %o0 + -8 ]
40008e8c:	c6 2a 3f f9 	stb  %g3, [ %o0 + -7 ]
40008e90:	c4 0a 7f fa 	ldub  [ %o1 + -6 ], %g2
40008e94:	c6 0a 7f fb 	ldub  [ %o1 + -5 ], %g3
40008e98:	c4 2a 3f fa 	stb  %g2, [ %o0 + -6 ]
40008e9c:	c6 2a 3f fb 	stb  %g3, [ %o0 + -5 ]
40008ea0:	c4 0a 7f fc 	ldub  [ %o1 + -4 ], %g2
40008ea4:	c6 0a 7f fd 	ldub  [ %o1 + -3 ], %g3
40008ea8:	c4 2a 3f fc 	stb  %g2, [ %o0 + -4 ]
40008eac:	c6 2a 3f fd 	stb  %g3, [ %o0 + -3 ]
40008eb0:	c4 0a 7f fe 	ldub  [ %o1 + -2 ], %g2
40008eb4:	c6 0a 7f ff 	ldub  [ %o1 + -1 ], %g3
40008eb8:	c4 2a 3f fe 	stb  %g2, [ %o0 + -2 ]
40008ebc:	c6 2a 3f ff 	stb  %g3, [ %o0 + -1 ]
40008ec0:	02 80 00 04 	be  40008ed0 <__GI_memcpy+0x102c>
40008ec4:	01 00 00 00 	nop 
40008ec8:	c4 0a 40 00 	ldub  [ %o1 ], %g2
40008ecc:	c4 2a 00 00 	stb  %g2, [ %o0 ]
40008ed0:	81 c3 e0 08 	retl 
40008ed4:	d0 03 a0 40 	ld  [ %sp + 0x40 ], %o0
40008ed8:	12 bf ff d5 	bne  40008e2c <__GI_memcpy+0xf88>
40008edc:	80 8a a0 08 	btst  8, %o2
40008ee0:	02 80 00 08 	be  40008f00 <__GI_memcpy+0x105c>
40008ee4:	80 8a a0 04 	btst  4, %o2
40008ee8:	c4 02 60 00 	ld  [ %o1 ], %g2
40008eec:	c6 02 60 04 	ld  [ %o1 + 4 ], %g3
40008ef0:	92 02 60 08 	add  %o1, 8, %o1
40008ef4:	c4 22 20 00 	st  %g2, [ %o0 ]
40008ef8:	c6 22 20 04 	st  %g3, [ %o0 + 4 ]
40008efc:	90 02 20 08 	add  %o0, 8, %o0
40008f00:	10 bf fc 6d 	b  400080b4 <__GI_memcpy+0x210>
40008f04:	82 10 00 0a 	mov  %o2, %g1
40008f08:	81 c3 e0 08 	retl 
40008f0c:	9a 23 c0 0c 	sub  %o7, %o4, %o5
40008f10:	81 c3 e0 08 	retl 
40008f14:	9a 23 c0 06 	sub  %o7, %g6, %o5

40008f18 <__fixdfdi>:
40008f18:	9d e3 bf 98 	save  %sp, -104, %sp
40008f1c:	f0 3f bf f8 	std  %i0, [ %fp + -8 ]
40008f20:	2f 00 00 2d 	sethi  %hi(0xb400), %l7
40008f24:	40 00 18 37 	call  4000f000 <__sparc_get_pc_thunk.l7>
40008f28:	ae 05 e3 7c 	add  %l7, 0x37c, %l7	! b77c <__DYNAMIC+0xb77c>
40008f2c:	d1 1f bf f8 	ldd  [ %fp + -8 ], %f8
40008f30:	03 00 00 01 	sethi  %hi(0x400), %g1
40008f34:	82 18 7f 00 	xor  %g1, -256, %g1
40008f38:	82 05 c0 01 	add  %l7, %g1, %g1
40008f3c:	d5 18 40 00 	ldd  [ %g1 ], %f10
40008f40:	81 aa 0a ca 	fcmped  %f8, %f10
40008f44:	01 00 00 00 	nop 
40008f48:	09 80 00 04 	fbl  40008f58 <__fixdfdi+0x40>
40008f4c:	95 a0 00 a8 	fnegs  %f8, %f10
40008f50:	40 00 00 0b 	call  40008f7c <__fixunsdfdi>
40008f54:	81 e8 00 00 	restore 
40008f58:	97 a0 00 29 	fmovs  %f9, %f11
40008f5c:	d5 3f bf f8 	std  %f10, [ %fp + -8 ]
40008f60:	40 00 00 07 	call  40008f7c <__fixunsdfdi>
40008f64:	d0 1f bf f8 	ldd  [ %fp + -8 ], %o0
40008f68:	92 a0 00 09 	subcc  %g0, %o1, %o1
40008f6c:	90 60 00 08 	subx  %g0, %o0, %o0
40008f70:	b2 10 00 09 	mov  %o1, %i1
40008f74:	81 c7 e0 08 	ret 
40008f78:	91 e8 00 08 	restore  %g0, %o0, %o0

40008f7c <__fixunsdfdi>:
40008f7c:	9d e3 bf 90 	save  %sp, -112, %sp
40008f80:	2f 00 00 2d 	sethi  %hi(0xb400), %l7
40008f84:	40 00 18 1f 	call  4000f000 <__sparc_get_pc_thunk.l7>
40008f88:	ae 05 e3 1c 	add  %l7, 0x31c, %l7	! b71c <__DYNAMIC+0xb71c>
40008f8c:	f0 3f bf f8 	std  %i0, [ %fp + -8 ]
40008f90:	03 00 00 00 	sethi  %hi(0), %g1
40008f94:	82 18 7f b0 	xor  %g1, -80, %g1
40008f98:	82 05 c0 01 	add  %l7, %g1, %g1
40008f9c:	d9 1f bf f8 	ldd  [ %fp + -8 ], %f12
40008fa0:	d5 18 40 00 	ldd  [ %g1 ], %f10
40008fa4:	95 a3 09 4a 	fmuld  %f12, %f10, %f10
40008fa8:	03 00 00 00 	sethi  %hi(0), %g1
40008fac:	82 18 7f b8 	xor  %g1, -72, %g1
40008fb0:	82 05 c0 01 	add  %l7, %g1, %g1
40008fb4:	d1 18 40 00 	ldd  [ %g1 ], %f8
40008fb8:	81 aa 8a c8 	fcmped  %f10, %f8
40008fbc:	01 00 00 00 	nop 
40008fc0:	37 80 00 06 	fbge,a   40008fd8 <__fixunsdfdi+0x5c>
40008fc4:	95 a2 88 c8 	fsubd  %f10, %f8, %f10
40008fc8:	91 a0 1a 4a 	fdtoi  %f10, %f8
40008fcc:	d1 27 bf f4 	st  %f8, [ %fp + -12 ]
40008fd0:	10 80 00 07 	b  40008fec <__fixunsdfdi+0x70>
40008fd4:	c2 07 bf f4 	ld  [ %fp + -12 ], %g1
40008fd8:	05 20 00 00 	sethi  %hi(0x80000000), %g2
40008fdc:	91 a0 1a 4a 	fdtoi  %f10, %f8
40008fe0:	d1 27 bf f4 	st  %f8, [ %fp + -12 ]
40008fe4:	c2 07 bf f4 	ld  [ %fp + -12 ], %g1
40008fe8:	82 18 40 02 	xor  %g1, %g2, %g1
40008fec:	c2 27 bf f4 	st  %g1, [ %fp + -12 ]
40008ff0:	80 a0 60 00 	cmp  %g1, 0
40008ff4:	d1 07 bf f4 	ld  [ %fp + -12 ], %f8
40008ff8:	16 80 00 07 	bge  40009014 <__fixunsdfdi+0x98>
40008ffc:	95 a0 19 08 	fitod  %f8, %f10
40009000:	05 00 00 00 	sethi  %hi(0), %g2
40009004:	84 18 bf c0 	xor  %g2, -64, %g2
40009008:	84 05 c0 02 	add  %l7, %g2, %g2
4000900c:	dd 18 80 00 	ldd  [ %g2 ], %f14
40009010:	95 a2 88 4e 	faddd  %f10, %f14, %f10
40009014:	05 00 00 00 	sethi  %hi(0), %g2
40009018:	84 18 bf c0 	xor  %g2, -64, %g2
4000901c:	84 05 c0 02 	add  %l7, %g2, %g2
40009020:	d1 18 80 00 	ldd  [ %g2 ], %f8
40009024:	05 00 00 00 	sethi  %hi(0), %g2
40009028:	91 a2 89 48 	fmuld  %f10, %f8, %f8
4000902c:	84 18 bf b8 	xor  %g2, -72, %g2
40009030:	91 a3 08 c8 	fsubd  %f12, %f8, %f8
40009034:	84 05 c0 02 	add  %l7, %g2, %g2
40009038:	d9 18 80 00 	ldd  [ %g2 ], %f12
4000903c:	81 aa 0a cc 	fcmped  %f8, %f12
40009040:	01 00 00 00 	nop 
40009044:	37 80 00 06 	fbge,a   4000905c <__fixunsdfdi+0xe0>
40009048:	99 a2 08 cc 	fsubd  %f8, %f12, %f12
4000904c:	95 a0 1a 48 	fdtoi  %f8, %f10
40009050:	d5 27 bf f4 	st  %f10, [ %fp + -12 ]
40009054:	10 80 00 07 	b  40009070 <__fixunsdfdi+0xf4>
40009058:	f8 07 bf f4 	ld  [ %fp + -12 ], %i4
4000905c:	05 20 00 00 	sethi  %hi(0x80000000), %g2
40009060:	91 a0 1a 4c 	fdtoi  %f12, %f8
40009064:	d1 27 bf f4 	st  %f8, [ %fp + -12 ]
40009068:	f8 07 bf f4 	ld  [ %fp + -12 ], %i4
4000906c:	b8 1f 00 02 	xor  %i4, %g2, %i4
40009070:	ba 10 00 1c 	mov  %i4, %i5
40009074:	86 10 20 00 	clr  %g3
40009078:	b8 10 20 00 	clr  %i4
4000907c:	86 17 40 03 	or  %i5, %g3, %g3
40009080:	84 17 00 01 	or  %i4, %g1, %g2
40009084:	b2 10 00 03 	mov  %g3, %i1
40009088:	81 c7 e0 08 	ret 
4000908c:	91 e8 00 02 	restore  %g0, %g2, %o0

40009090 <__floatdidf>:
40009090:	9d e3 bf 98 	save  %sp, -104, %sp
40009094:	f0 27 bf fc 	st  %i0, [ %fp + -4 ]
40009098:	d1 07 bf fc 	ld  [ %fp + -4 ], %f8
4000909c:	f2 27 bf fc 	st  %i1, [ %fp + -4 ]
400090a0:	2f 00 00 2d 	sethi  %hi(0xb400), %l7
400090a4:	40 00 17 d7 	call  4000f000 <__sparc_get_pc_thunk.l7>
400090a8:	ae 05 e1 fc 	add  %l7, 0x1fc, %l7	! b5fc <__DYNAMIC+0xb5fc>
400090ac:	81 a0 19 08 	fitod  %f8, %f0
400090b0:	03 00 00 00 	sethi  %hi(0), %g1
400090b4:	d9 07 bf fc 	ld  [ %fp + -4 ], %f12
400090b8:	82 18 7f c0 	xor  %g1, -64, %g1
400090bc:	82 05 c0 01 	add  %l7, %g1, %g1
400090c0:	91 a0 19 0c 	fitod  %f12, %f8
400090c4:	d5 18 40 00 	ldd  [ %g1 ], %f10
400090c8:	80 a6 60 00 	cmp  %i1, 0
400090cc:	16 80 00 03 	bge  400090d8 <__floatdidf+0x48>
400090d0:	81 a0 09 4a 	fmuld  %f0, %f10, %f0
400090d4:	91 a2 08 4a 	faddd  %f8, %f10, %f8
400090d8:	81 a0 08 48 	faddd  %f0, %f8, %f0
400090dc:	81 c7 e0 08 	ret 
400090e0:	81 e8 00 00 	restore 

400090e4 <__divdi3>:
400090e4:	9d e3 bf a0 	save  %sp, -96, %sp
400090e8:	2f 00 00 2d 	sethi  %hi(0xb400), %l7
400090ec:	40 00 17 c5 	call  4000f000 <__sparc_get_pc_thunk.l7>
400090f0:	ae 05 e1 b4 	add  %l7, 0x1b4, %l7	! b5b4 <__DYNAMIC+0xb5b4>
400090f4:	ba 10 00 18 	mov  %i0, %i5
400090f8:	b8 10 00 19 	mov  %i1, %i4
400090fc:	82 10 00 1a 	mov  %i2, %g1
40009100:	84 10 00 1b 	mov  %i3, %g2
40009104:	80 a6 20 00 	cmp  %i0, 0
40009108:	16 80 00 07 	bge  40009124 <__divdi3+0x40>
4000910c:	a0 10 20 00 	clr  %l0
40009110:	b2 a0 00 19 	subcc  %g0, %i1, %i1
40009114:	a0 10 3f ff 	mov  -1, %l0
40009118:	b0 60 00 18 	subx  %g0, %i0, %i0
4000911c:	b8 10 00 19 	mov  %i1, %i4
40009120:	ba 10 00 18 	mov  %i0, %i5
40009124:	80 a0 60 00 	cmp  %g1, 0
40009128:	16 80 00 08 	bge  40009148 <__divdi3+0x64>
4000912c:	01 00 00 00 	nop 
40009130:	b6 a0 00 1b 	subcc  %g0, %i3, %i3
40009134:	a0 38 00 10 	xnor  %g0, %l0, %l0
40009138:	b4 60 00 1a 	subx  %g0, %i2, %i2
4000913c:	84 10 00 1b 	mov  %i3, %g2
40009140:	82 10 00 1a 	mov  %i2, %g1
40009144:	80 a0 60 00 	cmp  %g1, 0
40009148:	12 80 00 50 	bne  40009288 <__divdi3+0x1a4>
4000914c:	90 10 00 02 	mov  %g2, %o0
40009150:	80 a0 80 1d 	cmp  %g2, %i5
40009154:	08 80 00 1a 	bleu  400091bc <__divdi3+0xd8>
40009158:	80 a0 a0 00 	cmp  %g2, 0
4000915c:	88 10 00 1c 	mov  %i4, %g4
40009160:	82 10 20 20 	mov  0x20, %g1
40009164:	80 a7 40 02 	cmp  %i5, %g2
40009168:	0a 80 00 0c 	bcs  40009198 <__divdi3+0xb4>
4000916c:	88 c1 00 04 	addxcc  %g4, %g4, %g4
40009170:	ba 27 40 02 	sub  %i5, %g2, %i5
40009174:	ba 47 40 1d 	addx  %i5, %i5, %i5
40009178:	82 a0 60 01 	deccc  %g1
4000917c:	12 bf ff fb 	bne  40009168 <__divdi3+0x84>
40009180:	80 a7 40 02 	cmp  %i5, %g2
40009184:	0a 80 00 0b 	bcs  400091b0 <__divdi3+0xcc>
40009188:	88 c1 00 04 	addxcc  %g4, %g4, %g4
4000918c:	10 80 00 09 	b  400091b0 <__divdi3+0xcc>
40009190:	ba 27 40 02 	sub  %i5, %g2, %i5
40009194:	ba 27 40 02 	sub  %i5, %g2, %i5
40009198:	ba c7 40 1d 	addxcc  %i5, %i5, %i5
4000919c:	1a bf ff f8 	bcc  4000917c <__divdi3+0x98>
400091a0:	82 a0 60 01 	deccc  %g1
400091a4:	12 bf ff fc 	bne  40009194 <__divdi3+0xb0>
400091a8:	88 81 00 04 	addcc  %g4, %g4, %g4
400091ac:	ba 27 40 02 	sub  %i5, %g2, %i5
400091b0:	88 39 20 00 	xnor  %g4, 0, %g4
400091b4:	10 80 00 ab 	b  40009460 <__divdi3+0x37c>
400091b8:	ba 10 20 00 	clr  %i5
400091bc:	32 80 00 06 	bne,a   400091d4 <__divdi3+0xf0>
400091c0:	84 10 20 00 	clr  %g2
400091c4:	90 10 20 01 	mov  1, %o0
400091c8:	40 00 03 29 	call  40009e6c <.udiv>
400091cc:	92 10 20 00 	clr  %o1
400091d0:	84 10 20 00 	clr  %g2
400091d4:	88 10 00 1c 	mov  %i4, %g4
400091d8:	82 10 20 20 	mov  0x20, %g1
400091dc:	80 a0 80 08 	cmp  %g2, %o0
400091e0:	0a 80 00 0c 	bcs  40009210 <__divdi3+0x12c>
400091e4:	ba c7 40 1d 	addxcc  %i5, %i5, %i5
400091e8:	84 20 80 08 	sub  %g2, %o0, %g2
400091ec:	84 40 80 02 	addx  %g2, %g2, %g2
400091f0:	82 a0 60 01 	deccc  %g1
400091f4:	12 bf ff fb 	bne  400091e0 <__divdi3+0xfc>
400091f8:	80 a0 80 08 	cmp  %g2, %o0
400091fc:	0a 80 00 0b 	bcs  40009228 <__divdi3+0x144>
40009200:	ba c7 40 1d 	addxcc  %i5, %i5, %i5
40009204:	10 80 00 09 	b  40009228 <__divdi3+0x144>
40009208:	84 20 80 08 	sub  %g2, %o0, %g2
4000920c:	84 20 80 08 	sub  %g2, %o0, %g2
40009210:	84 c0 80 02 	addxcc  %g2, %g2, %g2
40009214:	1a bf ff f8 	bcc  400091f4 <__divdi3+0x110>
40009218:	82 a0 60 01 	deccc  %g1
4000921c:	12 bf ff fc 	bne  4000920c <__divdi3+0x128>
40009220:	ba 87 40 1d 	addcc  %i5, %i5, %i5
40009224:	84 20 80 08 	sub  %g2, %o0, %g2
40009228:	ba 3f 60 00 	xnor  %i5, 0, %i5
4000922c:	82 10 20 20 	mov  0x20, %g1
40009230:	80 a0 80 08 	cmp  %g2, %o0
40009234:	0a 80 00 0c 	bcs  40009264 <__divdi3+0x180>
40009238:	88 c1 00 04 	addxcc  %g4, %g4, %g4
4000923c:	84 20 80 08 	sub  %g2, %o0, %g2
40009240:	84 40 80 02 	addx  %g2, %g2, %g2
40009244:	82 a0 60 01 	deccc  %g1
40009248:	12 bf ff fb 	bne  40009234 <__divdi3+0x150>
4000924c:	80 a0 80 08 	cmp  %g2, %o0
40009250:	0a 80 00 0b 	bcs  4000927c <__divdi3+0x198>
40009254:	88 c1 00 04 	addxcc  %g4, %g4, %g4
40009258:	10 80 00 09 	b  4000927c <__divdi3+0x198>
4000925c:	84 20 80 08 	sub  %g2, %o0, %g2
40009260:	84 20 80 08 	sub  %g2, %o0, %g2
40009264:	84 c0 80 02 	addxcc  %g2, %g2, %g2
40009268:	1a bf ff f8 	bcc  40009248 <__divdi3+0x164>
4000926c:	82 a0 60 01 	deccc  %g1
40009270:	12 bf ff fc 	bne  40009260 <__divdi3+0x17c>
40009274:	88 81 00 04 	addcc  %g4, %g4, %g4
40009278:	84 20 80 08 	sub  %g2, %o0, %g2
4000927c:	88 39 20 00 	xnor  %g4, 0, %g4
40009280:	10 80 00 79 	b  40009464 <__divdi3+0x380>
40009284:	84 10 00 1d 	mov  %i5, %g2
40009288:	80 a0 40 1d 	cmp  %g1, %i5
4000928c:	38 80 00 72 	bgu,a   40009454 <__divdi3+0x370>
40009290:	ba 10 20 00 	clr  %i5
40009294:	07 00 00 3f 	sethi  %hi(0xfc00), %g3
40009298:	86 10 e3 ff 	or  %g3, 0x3ff, %g3	! ffff <__DYNAMIC+0xffff>
4000929c:	80 a0 40 03 	cmp  %g1, %g3
400092a0:	38 80 00 07 	bgu,a   400092bc <__divdi3+0x1d8>
400092a4:	07 00 3f ff 	sethi  %hi(0xfffc00), %g3
400092a8:	80 a0 60 ff 	cmp  %g1, 0xff
400092ac:	18 80 00 09 	bgu  400092d0 <__divdi3+0x1ec>
400092b0:	86 10 20 08 	mov  8, %g3
400092b4:	10 80 00 07 	b  400092d0 <__divdi3+0x1ec>
400092b8:	86 10 20 00 	clr  %g3
400092bc:	86 10 e3 ff 	or  %g3, 0x3ff, %g3
400092c0:	80 a0 c0 01 	cmp  %g3, %g1
400092c4:	86 60 20 00 	subx  %g0, 0, %g3
400092c8:	86 08 e0 08 	and  %g3, 8, %g3
400092cc:	86 00 e0 10 	add  %g3, 0x10, %g3
400092d0:	b7 30 40 03 	srl  %g1, %g3, %i3
400092d4:	09 00 00 01 	sethi  %hi(0x400), %g4
400092d8:	b4 10 20 20 	mov  0x20, %i2
400092dc:	88 19 3d f0 	xor  %g4, -528, %g4
400092e0:	88 05 c0 04 	add  %l7, %g4, %g4
400092e4:	c8 09 00 1b 	ldub  [ %g4 + %i3 ], %g4
400092e8:	86 01 00 03 	add  %g4, %g3, %g3
400092ec:	b4 a6 80 03 	subcc  %i2, %g3, %i2
400092f0:	32 80 00 0a 	bne,a   40009318 <__divdi3+0x234>
400092f4:	83 28 40 1a 	sll  %g1, %i2, %g1
400092f8:	80 a7 00 02 	cmp  %i4, %g2
400092fc:	3a 80 00 05 	bcc,a   40009310 <__divdi3+0x22c>
40009300:	ba 10 20 00 	clr  %i5
40009304:	80 a0 40 1d 	cmp  %g1, %i5
40009308:	1a 80 00 53 	bcc  40009454 <__divdi3+0x370>
4000930c:	ba 10 20 00 	clr  %i5
40009310:	10 80 00 54 	b  40009460 <__divdi3+0x37c>
40009314:	88 10 20 01 	mov  1, %g4
40009318:	89 30 80 03 	srl  %g2, %g3, %g4
4000931c:	88 10 40 04 	or  %g1, %g4, %g4
40009320:	b7 37 40 03 	srl  %i5, %g3, %i3
40009324:	85 28 80 1a 	sll  %g2, %i2, %g2
40009328:	87 37 00 03 	srl  %i4, %g3, %g3
4000932c:	bb 2f 40 1a 	sll  %i5, %i2, %i5
40009330:	ba 17 40 03 	or  %i5, %g3, %i5
40009334:	82 10 20 20 	mov  0x20, %g1
40009338:	80 a6 c0 04 	cmp  %i3, %g4
4000933c:	0a 80 00 0c 	bcs  4000936c <__divdi3+0x288>
40009340:	ba c7 40 1d 	addxcc  %i5, %i5, %i5
40009344:	b6 26 c0 04 	sub  %i3, %g4, %i3
40009348:	b6 46 c0 1b 	addx  %i3, %i3, %i3
4000934c:	82 a0 60 01 	deccc  %g1
40009350:	12 bf ff fb 	bne  4000933c <__divdi3+0x258>
40009354:	80 a6 c0 04 	cmp  %i3, %g4
40009358:	0a 80 00 0b 	bcs  40009384 <__divdi3+0x2a0>
4000935c:	ba c7 40 1d 	addxcc  %i5, %i5, %i5
40009360:	10 80 00 09 	b  40009384 <__divdi3+0x2a0>
40009364:	b6 26 c0 04 	sub  %i3, %g4, %i3
40009368:	b6 26 c0 04 	sub  %i3, %g4, %i3
4000936c:	b6 c6 c0 1b 	addxcc  %i3, %i3, %i3
40009370:	1a bf ff f8 	bcc  40009350 <__divdi3+0x26c>
40009374:	82 a0 60 01 	deccc  %g1
40009378:	12 bf ff fc 	bne  40009368 <__divdi3+0x284>
4000937c:	ba 87 40 1d 	addcc  %i5, %i5, %i5
40009380:	b6 26 c0 04 	sub  %i3, %g4, %i3
40009384:	ba 3f 60 00 	xnor  %i5, 0, %i5
40009388:	81 80 00 1d 	mov  %i5, %y
4000938c:	9b 38 a0 1f 	sra  %g2, 0x1f, %o5
40009390:	9a 0f 40 0d 	and  %i5, %o5, %o5
40009394:	82 88 20 00 	andcc  %g0, 0, %g1
40009398:	83 20 40 02 	mulscc  %g1, %g2, %g1
4000939c:	83 20 40 02 	mulscc  %g1, %g2, %g1
400093a0:	83 20 40 02 	mulscc  %g1, %g2, %g1
400093a4:	83 20 40 02 	mulscc  %g1, %g2, %g1
400093a8:	83 20 40 02 	mulscc  %g1, %g2, %g1
400093ac:	83 20 40 02 	mulscc  %g1, %g2, %g1
400093b0:	83 20 40 02 	mulscc  %g1, %g2, %g1
400093b4:	83 20 40 02 	mulscc  %g1, %g2, %g1
400093b8:	83 20 40 02 	mulscc  %g1, %g2, %g1
400093bc:	83 20 40 02 	mulscc  %g1, %g2, %g1
400093c0:	83 20 40 02 	mulscc  %g1, %g2, %g1
400093c4:	83 20 40 02 	mulscc  %g1, %g2, %g1
400093c8:	83 20 40 02 	mulscc  %g1, %g2, %g1
400093cc:	83 20 40 02 	mulscc  %g1, %g2, %g1
400093d0:	83 20 40 02 	mulscc  %g1, %g2, %g1
400093d4:	83 20 40 02 	mulscc  %g1, %g2, %g1
400093d8:	83 20 40 02 	mulscc  %g1, %g2, %g1
400093dc:	83 20 40 02 	mulscc  %g1, %g2, %g1
400093e0:	83 20 40 02 	mulscc  %g1, %g2, %g1
400093e4:	83 20 40 02 	mulscc  %g1, %g2, %g1
400093e8:	83 20 40 02 	mulscc  %g1, %g2, %g1
400093ec:	83 20 40 02 	mulscc  %g1, %g2, %g1
400093f0:	83 20 40 02 	mulscc  %g1, %g2, %g1
400093f4:	83 20 40 02 	mulscc  %g1, %g2, %g1
400093f8:	83 20 40 02 	mulscc  %g1, %g2, %g1
400093fc:	83 20 40 02 	mulscc  %g1, %g2, %g1
40009400:	83 20 40 02 	mulscc  %g1, %g2, %g1
40009404:	83 20 40 02 	mulscc  %g1, %g2, %g1
40009408:	83 20 40 02 	mulscc  %g1, %g2, %g1
4000940c:	83 20 40 02 	mulscc  %g1, %g2, %g1
40009410:	83 20 40 02 	mulscc  %g1, %g2, %g1
40009414:	83 20 40 02 	mulscc  %g1, %g2, %g1
40009418:	83 20 60 00 	mulscc  %g1, 0, %g1
4000941c:	84 00 40 0d 	add  %g1, %o5, %g2
40009420:	87 40 00 00 	rd  %y, %g3
40009424:	80 a0 80 1b 	cmp  %g2, %i3
40009428:	18 80 00 09 	bgu  4000944c <__divdi3+0x368>
4000942c:	88 10 00 1d 	mov  %i5, %g4
40009430:	b9 2f 00 1a 	sll  %i4, %i2, %i4
40009434:	80 a7 00 03 	cmp  %i4, %g3
40009438:	3a 80 00 0a 	bcc,a   40009460 <__divdi3+0x37c>
4000943c:	ba 10 20 00 	clr  %i5
40009440:	80 a0 80 1b 	cmp  %g2, %i3
40009444:	32 80 00 07 	bne,a   40009460 <__divdi3+0x37c>
40009448:	ba 10 20 00 	clr  %i5
4000944c:	10 80 00 04 	b  4000945c <__divdi3+0x378>
40009450:	88 07 7f ff 	add  %i5, -1, %g4
40009454:	10 80 00 03 	b  40009460 <__divdi3+0x37c>
40009458:	88 10 20 00 	clr  %g4
4000945c:	ba 10 20 00 	clr  %i5
40009460:	84 10 00 1d 	mov  %i5, %g2
40009464:	80 a4 20 00 	cmp  %l0, 0
40009468:	02 80 00 04 	be  40009478 <__divdi3+0x394>
4000946c:	86 10 00 04 	mov  %g4, %g3
40009470:	86 a0 00 04 	subcc  %g0, %g4, %g3
40009474:	84 60 00 1d 	subx  %g0, %i5, %g2
40009478:	b0 10 00 02 	mov  %g2, %i0
4000947c:	b2 10 00 03 	mov  %g3, %i1
40009480:	81 c7 e0 08 	ret 
40009484:	81 e8 00 00 	restore 

40009488 <__moddi3>:
40009488:	9d e3 bf a0 	save  %sp, -96, %sp
4000948c:	2f 00 00 2c 	sethi  %hi(0xb000), %l7
40009490:	40 00 16 dc 	call  4000f000 <__sparc_get_pc_thunk.l7>
40009494:	ae 05 e2 10 	add  %l7, 0x210, %l7	! b210 <__DYNAMIC+0xb210>
40009498:	ba 10 00 18 	mov  %i0, %i5
4000949c:	b8 10 00 19 	mov  %i1, %i4
400094a0:	82 10 00 1a 	mov  %i2, %g1
400094a4:	84 10 00 1b 	mov  %i3, %g2
400094a8:	80 a6 20 00 	cmp  %i0, 0
400094ac:	16 80 00 07 	bge  400094c8 <__moddi3+0x40>
400094b0:	a0 10 20 00 	clr  %l0
400094b4:	b2 a0 00 19 	subcc  %g0, %i1, %i1
400094b8:	a0 10 3f ff 	mov  -1, %l0
400094bc:	b0 60 00 18 	subx  %g0, %i0, %i0
400094c0:	b8 10 00 19 	mov  %i1, %i4
400094c4:	ba 10 00 18 	mov  %i0, %i5
400094c8:	80 a0 60 00 	cmp  %g1, 0
400094cc:	16 80 00 07 	bge  400094e8 <__moddi3+0x60>
400094d0:	90 10 00 02 	mov  %g2, %o0
400094d4:	b6 a0 00 1b 	subcc  %g0, %i3, %i3
400094d8:	b4 60 00 1a 	subx  %g0, %i2, %i2
400094dc:	84 10 00 1b 	mov  %i3, %g2
400094e0:	82 10 00 1a 	mov  %i2, %g1
400094e4:	90 10 00 02 	mov  %g2, %o0
400094e8:	b4 10 00 1c 	mov  %i4, %i2
400094ec:	80 a0 60 00 	cmp  %g1, 0
400094f0:	12 80 00 50 	bne  40009630 <__moddi3+0x1a8>
400094f4:	b2 10 00 1d 	mov  %i5, %i1
400094f8:	80 a0 80 1d 	cmp  %g2, %i5
400094fc:	08 80 00 19 	bleu  40009560 <__moddi3+0xd8>
40009500:	80 a0 a0 00 	cmp  %g2, 0
40009504:	82 10 20 20 	mov  0x20, %g1
40009508:	80 a7 40 02 	cmp  %i5, %g2
4000950c:	0a 80 00 0c 	bcs  4000953c <__moddi3+0xb4>
40009510:	b8 c7 00 1c 	addxcc  %i4, %i4, %i4
40009514:	ba 27 40 02 	sub  %i5, %g2, %i5
40009518:	ba 47 40 1d 	addx  %i5, %i5, %i5
4000951c:	82 a0 60 01 	deccc  %g1
40009520:	12 bf ff fb 	bne  4000950c <__moddi3+0x84>
40009524:	80 a7 40 02 	cmp  %i5, %g2
40009528:	0a 80 00 0b 	bcs  40009554 <__moddi3+0xcc>
4000952c:	b8 c7 00 1c 	addxcc  %i4, %i4, %i4
40009530:	10 80 00 09 	b  40009554 <__moddi3+0xcc>
40009534:	ba 27 40 02 	sub  %i5, %g2, %i5
40009538:	ba 27 40 02 	sub  %i5, %g2, %i5
4000953c:	ba c7 40 1d 	addxcc  %i5, %i5, %i5
40009540:	1a bf ff f8 	bcc  40009520 <__moddi3+0x98>
40009544:	82 a0 60 01 	deccc  %g1
40009548:	12 bf ff fc 	bne  40009538 <__moddi3+0xb0>
4000954c:	b8 87 00 1c 	addcc  %i4, %i4, %i4
40009550:	ba 27 40 02 	sub  %i5, %g2, %i5
40009554:	b8 3f 20 00 	xnor  %i4, 0, %i4
40009558:	10 80 00 34 	b  40009628 <__moddi3+0x1a0>
4000955c:	84 10 20 00 	clr  %g2
40009560:	32 80 00 06 	bne,a   40009578 <__moddi3+0xf0>
40009564:	84 10 20 00 	clr  %g2
40009568:	90 10 20 01 	mov  1, %o0
4000956c:	40 00 02 40 	call  40009e6c <.udiv>
40009570:	92 10 20 00 	clr  %o1
40009574:	84 10 20 00 	clr  %g2
40009578:	82 10 20 20 	mov  0x20, %g1
4000957c:	80 a0 80 08 	cmp  %g2, %o0
40009580:	0a 80 00 0c 	bcs  400095b0 <__moddi3+0x128>
40009584:	ba c7 40 1d 	addxcc  %i5, %i5, %i5
40009588:	84 20 80 08 	sub  %g2, %o0, %g2
4000958c:	84 40 80 02 	addx  %g2, %g2, %g2
40009590:	82 a0 60 01 	deccc  %g1
40009594:	12 bf ff fb 	bne  40009580 <__moddi3+0xf8>
40009598:	80 a0 80 08 	cmp  %g2, %o0
4000959c:	0a 80 00 0b 	bcs  400095c8 <__moddi3+0x140>
400095a0:	ba c7 40 1d 	addxcc  %i5, %i5, %i5
400095a4:	10 80 00 09 	b  400095c8 <__moddi3+0x140>
400095a8:	84 20 80 08 	sub  %g2, %o0, %g2
400095ac:	84 20 80 08 	sub  %g2, %o0, %g2
400095b0:	84 c0 80 02 	addxcc  %g2, %g2, %g2
400095b4:	1a bf ff f8 	bcc  40009594 <__moddi3+0x10c>
400095b8:	82 a0 60 01 	deccc  %g1
400095bc:	12 bf ff fc 	bne  400095ac <__moddi3+0x124>
400095c0:	ba 87 40 1d 	addcc  %i5, %i5, %i5
400095c4:	84 20 80 08 	sub  %g2, %o0, %g2
400095c8:	ba 3f 60 00 	xnor  %i5, 0, %i5
400095cc:	ba 10 00 02 	mov  %g2, %i5
400095d0:	82 10 20 20 	mov  0x20, %g1
400095d4:	80 a7 40 08 	cmp  %i5, %o0
400095d8:	0a 80 00 0c 	bcs  40009608 <__moddi3+0x180>
400095dc:	b8 c7 00 1c 	addxcc  %i4, %i4, %i4
400095e0:	ba 27 40 08 	sub  %i5, %o0, %i5
400095e4:	ba 47 40 1d 	addx  %i5, %i5, %i5
400095e8:	82 a0 60 01 	deccc  %g1
400095ec:	12 bf ff fb 	bne  400095d8 <__moddi3+0x150>
400095f0:	80 a7 40 08 	cmp  %i5, %o0
400095f4:	0a 80 00 0b 	bcs  40009620 <__moddi3+0x198>
400095f8:	b8 c7 00 1c 	addxcc  %i4, %i4, %i4
400095fc:	10 80 00 09 	b  40009620 <__moddi3+0x198>
40009600:	ba 27 40 08 	sub  %i5, %o0, %i5
40009604:	ba 27 40 08 	sub  %i5, %o0, %i5
40009608:	ba c7 40 1d 	addxcc  %i5, %i5, %i5
4000960c:	1a bf ff f8 	bcc  400095ec <__moddi3+0x164>
40009610:	82 a0 60 01 	deccc  %g1
40009614:	12 bf ff fc 	bne  40009604 <__moddi3+0x17c>
40009618:	b8 87 00 1c 	addcc  %i4, %i4, %i4
4000961c:	ba 27 40 08 	sub  %i5, %o0, %i5
40009620:	b8 3f 20 00 	xnor  %i4, 0, %i4
40009624:	84 10 20 00 	clr  %g2
40009628:	10 80 00 7f 	b  40009824 <__moddi3+0x39c>
4000962c:	86 10 00 1d 	mov  %i5, %g3
40009630:	80 a0 40 1d 	cmp  %g1, %i5
40009634:	28 80 00 05 	bleu,a   40009648 <__moddi3+0x1c0>
40009638:	07 00 00 3f 	sethi  %hi(0xfc00), %g3
4000963c:	84 10 00 1d 	mov  %i5, %g2
40009640:	10 80 00 79 	b  40009824 <__moddi3+0x39c>
40009644:	86 10 00 1c 	mov  %i4, %g3
40009648:	86 10 e3 ff 	or  %g3, 0x3ff, %g3
4000964c:	80 a0 40 03 	cmp  %g1, %g3
40009650:	18 80 00 07 	bgu  4000966c <__moddi3+0x1e4>
40009654:	07 00 3f ff 	sethi  %hi(0xfffc00), %g3
40009658:	80 a0 60 ff 	cmp  %g1, 0xff
4000965c:	18 80 00 09 	bgu  40009680 <__moddi3+0x1f8>
40009660:	b6 10 20 08 	mov  8, %i3
40009664:	10 80 00 07 	b  40009680 <__moddi3+0x1f8>
40009668:	b6 10 20 00 	clr  %i3
4000966c:	86 10 e3 ff 	or  %g3, 0x3ff, %g3
40009670:	80 a0 c0 01 	cmp  %g3, %g1
40009674:	b6 60 20 00 	subx  %g0, 0, %i3
40009678:	b6 0e e0 08 	and  %i3, 8, %i3
4000967c:	b6 06 e0 10 	add  %i3, 0x10, %i3
40009680:	89 30 40 1b 	srl  %g1, %i3, %g4
40009684:	07 00 00 01 	sethi  %hi(0x400), %g3
40009688:	86 18 fd f0 	xor  %g3, -528, %g3
4000968c:	86 05 c0 03 	add  %l7, %g3, %g3
40009690:	c6 08 c0 04 	ldub  [ %g3 + %g4 ], %g3
40009694:	88 10 20 20 	mov  0x20, %g4
40009698:	b6 00 c0 1b 	add  %g3, %i3, %i3
4000969c:	88 a1 00 1b 	subcc  %g4, %i3, %g4
400096a0:	32 80 00 0c 	bne,a   400096d0 <__moddi3+0x248>
400096a4:	83 28 40 04 	sll  %g1, %g4, %g1
400096a8:	80 a7 00 02 	cmp  %i4, %g2
400096ac:	1a 80 00 04 	bcc  400096bc <__moddi3+0x234>
400096b0:	80 a0 40 1d 	cmp  %g1, %i5
400096b4:	3a 80 00 05 	bcc,a   400096c8 <__moddi3+0x240>
400096b8:	84 10 00 19 	mov  %i1, %g2
400096bc:	b4 a7 00 02 	subcc  %i4, %g2, %i2
400096c0:	b2 67 40 01 	subx  %i5, %g1, %i1
400096c4:	84 10 00 19 	mov  %i1, %g2
400096c8:	10 80 00 57 	b  40009824 <__moddi3+0x39c>
400096cc:	86 10 00 1a 	mov  %i2, %g3
400096d0:	87 30 80 1b 	srl  %g2, %i3, %g3
400096d4:	b4 10 40 03 	or  %g1, %g3, %i2
400096d8:	83 37 00 1b 	srl  %i4, %i3, %g1
400096dc:	87 37 40 1b 	srl  %i5, %i3, %g3
400096e0:	85 28 80 04 	sll  %g2, %g4, %g2
400096e4:	bb 2f 40 04 	sll  %i5, %g4, %i5
400096e8:	b9 2f 00 04 	sll  %i4, %g4, %i4
400096ec:	ba 17 40 01 	or  %i5, %g1, %i5
400096f0:	82 10 20 20 	mov  0x20, %g1
400096f4:	80 a0 c0 1a 	cmp  %g3, %i2
400096f8:	0a 80 00 0c 	bcs  40009728 <__moddi3+0x2a0>
400096fc:	ba c7 40 1d 	addxcc  %i5, %i5, %i5
40009700:	86 20 c0 1a 	sub  %g3, %i2, %g3
40009704:	86 40 c0 03 	addx  %g3, %g3, %g3
40009708:	82 a0 60 01 	deccc  %g1
4000970c:	12 bf ff fb 	bne  400096f8 <__moddi3+0x270>
40009710:	80 a0 c0 1a 	cmp  %g3, %i2
40009714:	0a 80 00 0b 	bcs  40009740 <__moddi3+0x2b8>
40009718:	ba c7 40 1d 	addxcc  %i5, %i5, %i5
4000971c:	10 80 00 09 	b  40009740 <__moddi3+0x2b8>
40009720:	86 20 c0 1a 	sub  %g3, %i2, %g3
40009724:	86 20 c0 1a 	sub  %g3, %i2, %g3
40009728:	86 c0 c0 03 	addxcc  %g3, %g3, %g3
4000972c:	1a bf ff f8 	bcc  4000970c <__moddi3+0x284>
40009730:	82 a0 60 01 	deccc  %g1
40009734:	12 bf ff fc 	bne  40009724 <__moddi3+0x29c>
40009738:	ba 87 40 1d 	addcc  %i5, %i5, %i5
4000973c:	86 20 c0 1a 	sub  %g3, %i2, %g3
40009740:	ba 3f 60 00 	xnor  %i5, 0, %i5
40009744:	81 80 00 1d 	mov  %i5, %y
40009748:	9b 38 a0 1f 	sra  %g2, 0x1f, %o5
4000974c:	9a 0f 40 0d 	and  %i5, %o5, %o5
40009750:	82 88 20 00 	andcc  %g0, 0, %g1
40009754:	83 20 40 02 	mulscc  %g1, %g2, %g1
40009758:	83 20 40 02 	mulscc  %g1, %g2, %g1
4000975c:	83 20 40 02 	mulscc  %g1, %g2, %g1
40009760:	83 20 40 02 	mulscc  %g1, %g2, %g1
40009764:	83 20 40 02 	mulscc  %g1, %g2, %g1
40009768:	83 20 40 02 	mulscc  %g1, %g2, %g1
4000976c:	83 20 40 02 	mulscc  %g1, %g2, %g1
40009770:	83 20 40 02 	mulscc  %g1, %g2, %g1
40009774:	83 20 40 02 	mulscc  %g1, %g2, %g1
40009778:	83 20 40 02 	mulscc  %g1, %g2, %g1
4000977c:	83 20 40 02 	mulscc  %g1, %g2, %g1
40009780:	83 20 40 02 	mulscc  %g1, %g2, %g1
40009784:	83 20 40 02 	mulscc  %g1, %g2, %g1
40009788:	83 20 40 02 	mulscc  %g1, %g2, %g1
4000978c:	83 20 40 02 	mulscc  %g1, %g2, %g1
40009790:	83 20 40 02 	mulscc  %g1, %g2, %g1
40009794:	83 20 40 02 	mulscc  %g1, %g2, %g1
40009798:	83 20 40 02 	mulscc  %g1, %g2, %g1
4000979c:	83 20 40 02 	mulscc  %g1, %g2, %g1
400097a0:	83 20 40 02 	mulscc  %g1, %g2, %g1
400097a4:	83 20 40 02 	mulscc  %g1, %g2, %g1
400097a8:	83 20 40 02 	mulscc  %g1, %g2, %g1
400097ac:	83 20 40 02 	mulscc  %g1, %g2, %g1
400097b0:	83 20 40 02 	mulscc  %g1, %g2, %g1
400097b4:	83 20 40 02 	mulscc  %g1, %g2, %g1
400097b8:	83 20 40 02 	mulscc  %g1, %g2, %g1
400097bc:	83 20 40 02 	mulscc  %g1, %g2, %g1
400097c0:	83 20 40 02 	mulscc  %g1, %g2, %g1
400097c4:	83 20 40 02 	mulscc  %g1, %g2, %g1
400097c8:	83 20 40 02 	mulscc  %g1, %g2, %g1
400097cc:	83 20 40 02 	mulscc  %g1, %g2, %g1
400097d0:	83 20 40 02 	mulscc  %g1, %g2, %g1
400097d4:	83 20 60 00 	mulscc  %g1, 0, %g1
400097d8:	ba 00 40 0d 	add  %g1, %o5, %i5
400097dc:	b3 40 00 00 	rd  %y, %i1
400097e0:	82 10 00 1d 	mov  %i5, %g1
400097e4:	80 a7 40 03 	cmp  %i5, %g3
400097e8:	18 80 00 07 	bgu  40009804 <__moddi3+0x37c>
400097ec:	b0 10 00 19 	mov  %i1, %i0
400097f0:	80 a7 00 19 	cmp  %i4, %i1
400097f4:	1a 80 00 06 	bcc  4000980c <__moddi3+0x384>
400097f8:	80 a7 40 03 	cmp  %i5, %g3
400097fc:	12 80 00 04 	bne  4000980c <__moddi3+0x384>
40009800:	01 00 00 00 	nop 
40009804:	b0 a6 40 02 	subcc  %i1, %g2, %i0
40009808:	82 67 40 1a 	subx  %i5, %i2, %g1
4000980c:	84 a7 00 18 	subcc  %i4, %i0, %g2
40009810:	b8 60 c0 01 	subx  %g3, %g1, %i4
40009814:	83 30 80 04 	srl  %g2, %g4, %g1
40009818:	b7 2f 00 1b 	sll  %i4, %i3, %i3
4000981c:	85 37 00 04 	srl  %i4, %g4, %g2
40009820:	86 10 40 1b 	or  %g1, %i3, %g3
40009824:	80 a4 20 00 	cmp  %l0, 0
40009828:	02 80 00 04 	be  40009838 <__moddi3+0x3b0>
4000982c:	01 00 00 00 	nop 
40009830:	86 a0 00 03 	subcc  %g0, %g3, %g3
40009834:	84 60 00 02 	subx  %g0, %g2, %g2
40009838:	b0 10 00 02 	mov  %g2, %i0
4000983c:	b2 10 00 03 	mov  %g3, %i1
40009840:	81 c7 e0 08 	ret 
40009844:	81 e8 00 00 	restore 

40009848 <__udivdi3>:
40009848:	9d e3 bf a0 	save  %sp, -96, %sp
4000984c:	2f 00 00 2b 	sethi  %hi(0xac00), %l7
40009850:	40 00 15 ec 	call  4000f000 <__sparc_get_pc_thunk.l7>
40009854:	ae 05 e2 50 	add  %l7, 0x250, %l7	! ae50 <__DYNAMIC+0xae50>
40009858:	80 a6 a0 00 	cmp  %i2, 0
4000985c:	12 80 00 50 	bne  4000999c <__udivdi3+0x154>
40009860:	84 10 00 1b 	mov  %i3, %g2
40009864:	80 a6 c0 18 	cmp  %i3, %i0
40009868:	08 80 00 1a 	bleu  400098d0 <__udivdi3+0x88>
4000986c:	80 a6 e0 00 	cmp  %i3, 0
40009870:	84 10 00 19 	mov  %i1, %g2
40009874:	82 10 20 20 	mov  0x20, %g1
40009878:	80 a6 00 1b 	cmp  %i0, %i3
4000987c:	0a 80 00 0c 	bcs  400098ac <__udivdi3+0x64>
40009880:	84 c0 80 02 	addxcc  %g2, %g2, %g2
40009884:	b0 26 00 1b 	sub  %i0, %i3, %i0
40009888:	b0 46 00 18 	addx  %i0, %i0, %i0
4000988c:	82 a0 60 01 	deccc  %g1
40009890:	12 bf ff fb 	bne  4000987c <__udivdi3+0x34>
40009894:	80 a6 00 1b 	cmp  %i0, %i3
40009898:	0a 80 00 0b 	bcs  400098c4 <__udivdi3+0x7c>
4000989c:	84 c0 80 02 	addxcc  %g2, %g2, %g2
400098a0:	10 80 00 09 	b  400098c4 <__udivdi3+0x7c>
400098a4:	b0 26 00 1b 	sub  %i0, %i3, %i0
400098a8:	b0 26 00 1b 	sub  %i0, %i3, %i0
400098ac:	b0 c6 00 18 	addxcc  %i0, %i0, %i0
400098b0:	1a bf ff f8 	bcc  40009890 <__udivdi3+0x48>
400098b4:	82 a0 60 01 	deccc  %g1
400098b8:	12 bf ff fc 	bne  400098a8 <__udivdi3+0x60>
400098bc:	84 80 80 02 	addcc  %g2, %g2, %g2
400098c0:	b0 26 00 1b 	sub  %i0, %i3, %i0
400098c4:	84 38 a0 00 	xnor  %g2, 0, %g2
400098c8:	10 80 00 aa 	b  40009b70 <__udivdi3+0x328>
400098cc:	b0 10 20 00 	clr  %i0
400098d0:	12 80 00 05 	bne  400098e4 <__udivdi3+0x9c>
400098d4:	90 10 20 01 	mov  1, %o0
400098d8:	40 00 01 65 	call  40009e6c <.udiv>
400098dc:	92 10 20 00 	clr  %o1
400098e0:	b6 10 00 08 	mov  %o0, %i3
400098e4:	84 10 20 00 	clr  %g2
400098e8:	82 10 20 20 	mov  0x20, %g1
400098ec:	80 a0 80 1b 	cmp  %g2, %i3
400098f0:	0a 80 00 0c 	bcs  40009920 <__udivdi3+0xd8>
400098f4:	b0 c6 00 18 	addxcc  %i0, %i0, %i0
400098f8:	84 20 80 1b 	sub  %g2, %i3, %g2
400098fc:	84 40 80 02 	addx  %g2, %g2, %g2
40009900:	82 a0 60 01 	deccc  %g1
40009904:	12 bf ff fb 	bne  400098f0 <__udivdi3+0xa8>
40009908:	80 a0 80 1b 	cmp  %g2, %i3
4000990c:	0a 80 00 0b 	bcs  40009938 <__udivdi3+0xf0>
40009910:	b0 c6 00 18 	addxcc  %i0, %i0, %i0
40009914:	10 80 00 09 	b  40009938 <__udivdi3+0xf0>
40009918:	84 20 80 1b 	sub  %g2, %i3, %g2
4000991c:	84 20 80 1b 	sub  %g2, %i3, %g2
40009920:	84 c0 80 02 	addxcc  %g2, %g2, %g2
40009924:	1a bf ff f8 	bcc  40009904 <__udivdi3+0xbc>
40009928:	82 a0 60 01 	deccc  %g1
4000992c:	12 bf ff fc 	bne  4000991c <__udivdi3+0xd4>
40009930:	b0 86 00 18 	addcc  %i0, %i0, %i0
40009934:	84 20 80 1b 	sub  %g2, %i3, %g2
40009938:	b0 3e 20 00 	xnor  %i0, 0, %i0
4000993c:	86 10 00 02 	mov  %g2, %g3
40009940:	84 10 00 19 	mov  %i1, %g2
40009944:	82 10 20 20 	mov  0x20, %g1
40009948:	80 a0 c0 1b 	cmp  %g3, %i3
4000994c:	0a 80 00 0c 	bcs  4000997c <__udivdi3+0x134>
40009950:	84 c0 80 02 	addxcc  %g2, %g2, %g2
40009954:	86 20 c0 1b 	sub  %g3, %i3, %g3
40009958:	86 40 c0 03 	addx  %g3, %g3, %g3
4000995c:	82 a0 60 01 	deccc  %g1
40009960:	12 bf ff fb 	bne  4000994c <__udivdi3+0x104>
40009964:	80 a0 c0 1b 	cmp  %g3, %i3
40009968:	0a 80 00 0b 	bcs  40009994 <__udivdi3+0x14c>
4000996c:	84 c0 80 02 	addxcc  %g2, %g2, %g2
40009970:	10 80 00 09 	b  40009994 <__udivdi3+0x14c>
40009974:	86 20 c0 1b 	sub  %g3, %i3, %g3
40009978:	86 20 c0 1b 	sub  %g3, %i3, %g3
4000997c:	86 c0 c0 03 	addxcc  %g3, %g3, %g3
40009980:	1a bf ff f8 	bcc  40009960 <__udivdi3+0x118>
40009984:	82 a0 60 01 	deccc  %g1
40009988:	12 bf ff fc 	bne  40009978 <__udivdi3+0x130>
4000998c:	84 80 80 02 	addcc  %g2, %g2, %g2
40009990:	86 20 c0 1b 	sub  %g3, %i3, %g3
40009994:	84 38 a0 00 	xnor  %g2, 0, %g2
40009998:	30 80 00 76 	b,a   40009b70 <__udivdi3+0x328>
4000999c:	80 a6 80 18 	cmp  %i2, %i0
400099a0:	18 80 00 70 	bgu  40009b60 <__udivdi3+0x318>
400099a4:	03 00 00 3f 	sethi  %hi(0xfc00), %g1
400099a8:	82 10 63 ff 	or  %g1, 0x3ff, %g1	! ffff <__DYNAMIC+0xffff>
400099ac:	80 a6 80 01 	cmp  %i2, %g1
400099b0:	38 80 00 07 	bgu,a   400099cc <__udivdi3+0x184>
400099b4:	03 00 3f ff 	sethi  %hi(0xfffc00), %g1
400099b8:	80 a6 a0 ff 	cmp  %i2, 0xff
400099bc:	18 80 00 09 	bgu  400099e0 <__udivdi3+0x198>
400099c0:	82 10 20 08 	mov  8, %g1
400099c4:	10 80 00 07 	b  400099e0 <__udivdi3+0x198>
400099c8:	82 10 20 00 	clr  %g1
400099cc:	82 10 63 ff 	or  %g1, 0x3ff, %g1
400099d0:	80 a0 40 1a 	cmp  %g1, %i2
400099d4:	82 60 20 00 	subx  %g0, 0, %g1
400099d8:	82 08 60 08 	and  %g1, 8, %g1
400099dc:	82 00 60 10 	add  %g1, 0x10, %g1
400099e0:	89 36 80 01 	srl  %i2, %g1, %g4
400099e4:	07 00 00 01 	sethi  %hi(0x400), %g3
400099e8:	86 18 fd f0 	xor  %g3, -528, %g3
400099ec:	86 05 c0 03 	add  %l7, %g3, %g3
400099f0:	c6 08 c0 04 	ldub  [ %g3 + %g4 ], %g3
400099f4:	88 10 20 20 	mov  0x20, %g4
400099f8:	82 00 c0 01 	add  %g3, %g1, %g1
400099fc:	88 a1 00 01 	subcc  %g4, %g1, %g4
40009a00:	32 80 00 0a 	bne,a   40009a28 <__udivdi3+0x1e0>
40009a04:	87 30 80 01 	srl  %g2, %g1, %g3
40009a08:	80 a6 40 02 	cmp  %i1, %g2
40009a0c:	3a 80 00 05 	bcc,a   40009a20 <__udivdi3+0x1d8>
40009a10:	b0 10 20 00 	clr  %i0
40009a14:	80 a6 80 18 	cmp  %i2, %i0
40009a18:	1a 80 00 53 	bcc  40009b64 <__udivdi3+0x31c>
40009a1c:	b0 10 20 00 	clr  %i0
40009a20:	10 80 00 54 	b  40009b70 <__udivdi3+0x328>
40009a24:	84 10 20 01 	mov  1, %g2
40009a28:	bb 28 80 04 	sll  %g2, %g4, %i5
40009a2c:	b5 2e 80 04 	sll  %i2, %g4, %i2
40009a30:	b4 16 80 03 	or  %i2, %g3, %i2
40009a34:	87 36 00 01 	srl  %i0, %g1, %g3
40009a38:	83 36 40 01 	srl  %i1, %g1, %g1
40009a3c:	b1 2e 00 04 	sll  %i0, %g4, %i0
40009a40:	b0 16 00 01 	or  %i0, %g1, %i0
40009a44:	82 10 20 20 	mov  0x20, %g1
40009a48:	80 a0 c0 1a 	cmp  %g3, %i2
40009a4c:	0a 80 00 0c 	bcs  40009a7c <__udivdi3+0x234>
40009a50:	b0 c6 00 18 	addxcc  %i0, %i0, %i0
40009a54:	86 20 c0 1a 	sub  %g3, %i2, %g3
40009a58:	86 40 c0 03 	addx  %g3, %g3, %g3
40009a5c:	82 a0 60 01 	deccc  %g1
40009a60:	12 bf ff fb 	bne  40009a4c <__udivdi3+0x204>
40009a64:	80 a0 c0 1a 	cmp  %g3, %i2
40009a68:	0a 80 00 0b 	bcs  40009a94 <__udivdi3+0x24c>
40009a6c:	b0 c6 00 18 	addxcc  %i0, %i0, %i0
40009a70:	10 80 00 09 	b  40009a94 <__udivdi3+0x24c>
40009a74:	86 20 c0 1a 	sub  %g3, %i2, %g3
40009a78:	86 20 c0 1a 	sub  %g3, %i2, %g3
40009a7c:	86 c0 c0 03 	addxcc  %g3, %g3, %g3
40009a80:	1a bf ff f8 	bcc  40009a60 <__udivdi3+0x218>
40009a84:	82 a0 60 01 	deccc  %g1
40009a88:	12 bf ff fc 	bne  40009a78 <__udivdi3+0x230>
40009a8c:	b0 86 00 18 	addcc  %i0, %i0, %i0
40009a90:	86 20 c0 1a 	sub  %g3, %i2, %g3
40009a94:	b0 3e 20 00 	xnor  %i0, 0, %i0
40009a98:	81 80 00 18 	mov  %i0, %y
40009a9c:	9b 3f 60 1f 	sra  %i5, 0x1f, %o5
40009aa0:	9a 0e 00 0d 	and  %i0, %o5, %o5
40009aa4:	82 88 20 00 	andcc  %g0, 0, %g1
40009aa8:	83 20 40 1d 	mulscc  %g1, %i5, %g1
40009aac:	83 20 40 1d 	mulscc  %g1, %i5, %g1
40009ab0:	83 20 40 1d 	mulscc  %g1, %i5, %g1
40009ab4:	83 20 40 1d 	mulscc  %g1, %i5, %g1
40009ab8:	83 20 40 1d 	mulscc  %g1, %i5, %g1
40009abc:	83 20 40 1d 	mulscc  %g1, %i5, %g1
40009ac0:	83 20 40 1d 	mulscc  %g1, %i5, %g1
40009ac4:	83 20 40 1d 	mulscc  %g1, %i5, %g1
40009ac8:	83 20 40 1d 	mulscc  %g1, %i5, %g1
40009acc:	83 20 40 1d 	mulscc  %g1, %i5, %g1
40009ad0:	83 20 40 1d 	mulscc  %g1, %i5, %g1
40009ad4:	83 20 40 1d 	mulscc  %g1, %i5, %g1
40009ad8:	83 20 40 1d 	mulscc  %g1, %i5, %g1
40009adc:	83 20 40 1d 	mulscc  %g1, %i5, %g1
40009ae0:	83 20 40 1d 	mulscc  %g1, %i5, %g1
40009ae4:	83 20 40 1d 	mulscc  %g1, %i5, %g1
40009ae8:	83 20 40 1d 	mulscc  %g1, %i5, %g1
40009aec:	83 20 40 1d 	mulscc  %g1, %i5, %g1
40009af0:	83 20 40 1d 	mulscc  %g1, %i5, %g1
40009af4:	83 20 40 1d 	mulscc  %g1, %i5, %g1
40009af8:	83 20 40 1d 	mulscc  %g1, %i5, %g1
40009afc:	83 20 40 1d 	mulscc  %g1, %i5, %g1
40009b00:	83 20 40 1d 	mulscc  %g1, %i5, %g1
40009b04:	83 20 40 1d 	mulscc  %g1, %i5, %g1
40009b08:	83 20 40 1d 	mulscc  %g1, %i5, %g1
40009b0c:	83 20 40 1d 	mulscc  %g1, %i5, %g1
40009b10:	83 20 40 1d 	mulscc  %g1, %i5, %g1
40009b14:	83 20 40 1d 	mulscc  %g1, %i5, %g1
40009b18:	83 20 40 1d 	mulscc  %g1, %i5, %g1
40009b1c:	83 20 40 1d 	mulscc  %g1, %i5, %g1
40009b20:	83 20 40 1d 	mulscc  %g1, %i5, %g1
40009b24:	83 20 40 1d 	mulscc  %g1, %i5, %g1
40009b28:	83 20 60 00 	mulscc  %g1, 0, %g1
40009b2c:	ba 00 40 0d 	add  %g1, %o5, %i5
40009b30:	b9 40 00 00 	rd  %y, %i4
40009b34:	80 a7 40 03 	cmp  %i5, %g3
40009b38:	18 80 00 08 	bgu  40009b58 <__udivdi3+0x310>
40009b3c:	84 10 00 18 	mov  %i0, %g2
40009b40:	b3 2e 40 04 	sll  %i1, %g4, %i1
40009b44:	80 a6 40 1c 	cmp  %i1, %i4
40009b48:	1a 80 00 09 	bcc  40009b6c <__udivdi3+0x324>
40009b4c:	80 a7 40 03 	cmp  %i5, %g3
40009b50:	32 80 00 08 	bne,a   40009b70 <__udivdi3+0x328>
40009b54:	b0 10 20 00 	clr  %i0
40009b58:	10 80 00 05 	b  40009b6c <__udivdi3+0x324>
40009b5c:	84 06 3f ff 	add  %i0, -1, %g2
40009b60:	b0 10 20 00 	clr  %i0
40009b64:	10 80 00 03 	b  40009b70 <__udivdi3+0x328>
40009b68:	84 10 20 00 	clr  %g2
40009b6c:	b0 10 20 00 	clr  %i0
40009b70:	b2 10 00 02 	mov  %g2, %i1
40009b74:	81 c7 e0 08 	ret 
40009b78:	81 e8 00 00 	restore 

40009b7c <__umoddi3>:
40009b7c:	9d e3 bf a0 	save  %sp, -96, %sp
40009b80:	2f 00 00 2a 	sethi  %hi(0xa800), %l7
40009b84:	40 00 15 1f 	call  4000f000 <__sparc_get_pc_thunk.l7>
40009b88:	ae 05 e3 1c 	add  %l7, 0x31c, %l7	! ab1c <__DYNAMIC+0xab1c>
40009b8c:	b8 10 00 1b 	mov  %i3, %i4
40009b90:	84 10 00 19 	mov  %i1, %g2
40009b94:	80 a6 a0 00 	cmp  %i2, 0
40009b98:	12 80 00 39 	bne  40009c7c <__umoddi3+0x100>
40009b9c:	86 10 00 18 	mov  %i0, %g3
40009ba0:	80 a6 c0 18 	cmp  %i3, %i0
40009ba4:	18 80 00 1f 	bgu  40009c20 <__umoddi3+0xa4>
40009ba8:	84 10 00 18 	mov  %i0, %g2
40009bac:	80 a6 e0 00 	cmp  %i3, 0
40009bb0:	32 80 00 07 	bne,a   40009bcc <__umoddi3+0x50>
40009bb4:	84 10 20 00 	clr  %g2
40009bb8:	90 10 20 01 	mov  1, %o0
40009bbc:	40 00 00 ac 	call  40009e6c <.udiv>
40009bc0:	92 10 20 00 	clr  %o1
40009bc4:	b6 10 00 08 	mov  %o0, %i3
40009bc8:	84 10 20 00 	clr  %g2
40009bcc:	82 10 20 20 	mov  0x20, %g1
40009bd0:	80 a0 80 1b 	cmp  %g2, %i3
40009bd4:	0a 80 00 0c 	bcs  40009c04 <__umoddi3+0x88>
40009bd8:	b0 c6 00 18 	addxcc  %i0, %i0, %i0
40009bdc:	84 20 80 1b 	sub  %g2, %i3, %g2
40009be0:	84 40 80 02 	addx  %g2, %g2, %g2
40009be4:	82 a0 60 01 	deccc  %g1
40009be8:	12 bf ff fb 	bne  40009bd4 <__umoddi3+0x58>
40009bec:	80 a0 80 1b 	cmp  %g2, %i3
40009bf0:	0a 80 00 0b 	bcs  40009c1c <__umoddi3+0xa0>
40009bf4:	b0 c6 00 18 	addxcc  %i0, %i0, %i0
40009bf8:	10 80 00 09 	b  40009c1c <__umoddi3+0xa0>
40009bfc:	84 20 80 1b 	sub  %g2, %i3, %g2
40009c00:	84 20 80 1b 	sub  %g2, %i3, %g2
40009c04:	84 c0 80 02 	addxcc  %g2, %g2, %g2
40009c08:	1a bf ff f8 	bcc  40009be8 <__umoddi3+0x6c>
40009c0c:	82 a0 60 01 	deccc  %g1
40009c10:	12 bf ff fc 	bne  40009c00 <__umoddi3+0x84>
40009c14:	b0 86 00 18 	addcc  %i0, %i0, %i0
40009c18:	84 20 80 1b 	sub  %g2, %i3, %g2
40009c1c:	b0 3e 20 00 	xnor  %i0, 0, %i0
40009c20:	82 10 20 20 	mov  0x20, %g1
40009c24:	80 a0 80 1b 	cmp  %g2, %i3
40009c28:	0a 80 00 0c 	bcs  40009c58 <__umoddi3+0xdc>
40009c2c:	b2 c6 40 19 	addxcc  %i1, %i1, %i1
40009c30:	84 20 80 1b 	sub  %g2, %i3, %g2
40009c34:	84 40 80 02 	addx  %g2, %g2, %g2
40009c38:	82 a0 60 01 	deccc  %g1
40009c3c:	12 bf ff fb 	bne  40009c28 <__umoddi3+0xac>
40009c40:	80 a0 80 1b 	cmp  %g2, %i3
40009c44:	0a 80 00 0b 	bcs  40009c70 <__umoddi3+0xf4>
40009c48:	b2 c6 40 19 	addxcc  %i1, %i1, %i1
40009c4c:	10 80 00 09 	b  40009c70 <__umoddi3+0xf4>
40009c50:	84 20 80 1b 	sub  %g2, %i3, %g2
40009c54:	84 20 80 1b 	sub  %g2, %i3, %g2
40009c58:	84 c0 80 02 	addxcc  %g2, %g2, %g2
40009c5c:	1a bf ff f8 	bcc  40009c3c <__umoddi3+0xc0>
40009c60:	82 a0 60 01 	deccc  %g1
40009c64:	12 bf ff fc 	bne  40009c54 <__umoddi3+0xd8>
40009c68:	b2 86 40 19 	addcc  %i1, %i1, %i1
40009c6c:	84 20 80 1b 	sub  %g2, %i3, %g2
40009c70:	b2 3e 60 00 	xnor  %i1, 0, %i1
40009c74:	10 80 00 25 	b  40009d08 <__umoddi3+0x18c>
40009c78:	b0 10 20 00 	clr  %i0
40009c7c:	80 a6 80 18 	cmp  %i2, %i0
40009c80:	18 80 00 79 	bgu  40009e64 <__umoddi3+0x2e8>
40009c84:	03 00 00 3f 	sethi  %hi(0xfc00), %g1
40009c88:	82 10 63 ff 	or  %g1, 0x3ff, %g1	! ffff <__DYNAMIC+0xffff>
40009c8c:	80 a6 80 01 	cmp  %i2, %g1
40009c90:	38 80 00 07 	bgu,a   40009cac <__umoddi3+0x130>
40009c94:	03 00 3f ff 	sethi  %hi(0xfffc00), %g1
40009c98:	80 a6 a0 ff 	cmp  %i2, 0xff
40009c9c:	18 80 00 09 	bgu  40009cc0 <__umoddi3+0x144>
40009ca0:	82 10 20 08 	mov  8, %g1
40009ca4:	10 80 00 07 	b  40009cc0 <__umoddi3+0x144>
40009ca8:	82 10 20 00 	clr  %g1
40009cac:	82 10 63 ff 	or  %g1, 0x3ff, %g1
40009cb0:	80 a0 40 1a 	cmp  %g1, %i2
40009cb4:	82 60 20 00 	subx  %g0, 0, %g1
40009cb8:	82 08 60 08 	and  %g1, 8, %g1
40009cbc:	82 00 60 10 	add  %g1, 0x10, %g1
40009cc0:	89 36 80 01 	srl  %i2, %g1, %g4
40009cc4:	37 00 00 01 	sethi  %hi(0x400), %i3
40009cc8:	b6 1e fd f0 	xor  %i3, -528, %i3
40009ccc:	b6 05 c0 1b 	add  %l7, %i3, %i3
40009cd0:	fa 0e c0 04 	ldub  [ %i3 + %g4 ], %i5
40009cd4:	88 10 20 20 	mov  0x20, %g4
40009cd8:	ba 07 40 01 	add  %i5, %g1, %i5
40009cdc:	88 a1 00 1d 	subcc  %g4, %i5, %g4
40009ce0:	32 80 00 0c 	bne,a   40009d10 <__umoddi3+0x194>
40009ce4:	83 37 00 1d 	srl  %i4, %i5, %g1
40009ce8:	80 a6 40 1c 	cmp  %i1, %i4
40009cec:	1a 80 00 04 	bcc  40009cfc <__umoddi3+0x180>
40009cf0:	80 a6 80 18 	cmp  %i2, %i0
40009cf4:	3a 80 00 05 	bcc,a   40009d08 <__umoddi3+0x18c>
40009cf8:	b0 10 00 03 	mov  %g3, %i0
40009cfc:	84 a6 40 1c 	subcc  %i1, %i4, %g2
40009d00:	86 66 00 1a 	subx  %i0, %i2, %g3
40009d04:	b0 10 00 03 	mov  %g3, %i0
40009d08:	10 80 00 57 	b  40009e64 <__umoddi3+0x2e8>
40009d0c:	b2 10 00 02 	mov  %g2, %i1
40009d10:	b5 2e 80 04 	sll  %i2, %g4, %i2
40009d14:	b4 16 80 01 	or  %i2, %g1, %i2
40009d18:	83 36 40 1d 	srl  %i1, %i5, %g1
40009d1c:	87 36 00 1d 	srl  %i0, %i5, %g3
40009d20:	85 2e 00 04 	sll  %i0, %g4, %g2
40009d24:	b9 2f 00 04 	sll  %i4, %g4, %i4
40009d28:	84 10 80 01 	or  %g2, %g1, %g2
40009d2c:	b3 2e 40 04 	sll  %i1, %g4, %i1
40009d30:	82 10 20 20 	mov  0x20, %g1
40009d34:	80 a0 c0 1a 	cmp  %g3, %i2
40009d38:	0a 80 00 0c 	bcs  40009d68 <__umoddi3+0x1ec>
40009d3c:	84 c0 80 02 	addxcc  %g2, %g2, %g2
40009d40:	86 20 c0 1a 	sub  %g3, %i2, %g3
40009d44:	86 40 c0 03 	addx  %g3, %g3, %g3
40009d48:	82 a0 60 01 	deccc  %g1
40009d4c:	12 bf ff fb 	bne  40009d38 <__umoddi3+0x1bc>
40009d50:	80 a0 c0 1a 	cmp  %g3, %i2
40009d54:	0a 80 00 0b 	bcs  40009d80 <__umoddi3+0x204>
40009d58:	84 c0 80 02 	addxcc  %g2, %g2, %g2
40009d5c:	10 80 00 09 	b  40009d80 <__umoddi3+0x204>
40009d60:	86 20 c0 1a 	sub  %g3, %i2, %g3
40009d64:	86 20 c0 1a 	sub  %g3, %i2, %g3
40009d68:	86 c0 c0 03 	addxcc  %g3, %g3, %g3
40009d6c:	1a bf ff f8 	bcc  40009d4c <__umoddi3+0x1d0>
40009d70:	82 a0 60 01 	deccc  %g1
40009d74:	12 bf ff fc 	bne  40009d64 <__umoddi3+0x1e8>
40009d78:	84 80 80 02 	addcc  %g2, %g2, %g2
40009d7c:	86 20 c0 1a 	sub  %g3, %i2, %g3
40009d80:	84 38 a0 00 	xnor  %g2, 0, %g2
40009d84:	81 80 00 02 	mov  %g2, %y
40009d88:	9b 3f 20 1f 	sra  %i4, 0x1f, %o5
40009d8c:	9a 08 80 0d 	and  %g2, %o5, %o5
40009d90:	82 88 20 00 	andcc  %g0, 0, %g1
40009d94:	83 20 40 1c 	mulscc  %g1, %i4, %g1
40009d98:	83 20 40 1c 	mulscc  %g1, %i4, %g1
40009d9c:	83 20 40 1c 	mulscc  %g1, %i4, %g1
40009da0:	83 20 40 1c 	mulscc  %g1, %i4, %g1
40009da4:	83 20 40 1c 	mulscc  %g1, %i4, %g1
40009da8:	83 20 40 1c 	mulscc  %g1, %i4, %g1
40009dac:	83 20 40 1c 	mulscc  %g1, %i4, %g1
40009db0:	83 20 40 1c 	mulscc  %g1, %i4, %g1
40009db4:	83 20 40 1c 	mulscc  %g1, %i4, %g1
40009db8:	83 20 40 1c 	mulscc  %g1, %i4, %g1
40009dbc:	83 20 40 1c 	mulscc  %g1, %i4, %g1
40009dc0:	83 20 40 1c 	mulscc  %g1, %i4, %g1
40009dc4:	83 20 40 1c 	mulscc  %g1, %i4, %g1
40009dc8:	83 20 40 1c 	mulscc  %g1, %i4, %g1
40009dcc:	83 20 40 1c 	mulscc  %g1, %i4, %g1
40009dd0:	83 20 40 1c 	mulscc  %g1, %i4, %g1
40009dd4:	83 20 40 1c 	mulscc  %g1, %i4, %g1
40009dd8:	83 20 40 1c 	mulscc  %g1, %i4, %g1
40009ddc:	83 20 40 1c 	mulscc  %g1, %i4, %g1
40009de0:	83 20 40 1c 	mulscc  %g1, %i4, %g1
40009de4:	83 20 40 1c 	mulscc  %g1, %i4, %g1
40009de8:	83 20 40 1c 	mulscc  %g1, %i4, %g1
40009dec:	83 20 40 1c 	mulscc  %g1, %i4, %g1
40009df0:	83 20 40 1c 	mulscc  %g1, %i4, %g1
40009df4:	83 20 40 1c 	mulscc  %g1, %i4, %g1
40009df8:	83 20 40 1c 	mulscc  %g1, %i4, %g1
40009dfc:	83 20 40 1c 	mulscc  %g1, %i4, %g1
40009e00:	83 20 40 1c 	mulscc  %g1, %i4, %g1
40009e04:	83 20 40 1c 	mulscc  %g1, %i4, %g1
40009e08:	83 20 40 1c 	mulscc  %g1, %i4, %g1
40009e0c:	83 20 40 1c 	mulscc  %g1, %i4, %g1
40009e10:	83 20 40 1c 	mulscc  %g1, %i4, %g1
40009e14:	83 20 60 00 	mulscc  %g1, 0, %g1
40009e18:	84 00 40 0d 	add  %g1, %o5, %g2
40009e1c:	b7 40 00 00 	rd  %y, %i3
40009e20:	82 10 00 02 	mov  %g2, %g1
40009e24:	80 a0 80 03 	cmp  %g2, %g3
40009e28:	18 80 00 07 	bgu  40009e44 <__umoddi3+0x2c8>
40009e2c:	b0 10 00 1b 	mov  %i3, %i0
40009e30:	80 a6 40 1b 	cmp  %i1, %i3
40009e34:	1a 80 00 06 	bcc  40009e4c <__umoddi3+0x2d0>
40009e38:	80 a0 80 03 	cmp  %g2, %g3
40009e3c:	12 80 00 04 	bne  40009e4c <__umoddi3+0x2d0>
40009e40:	01 00 00 00 	nop 
40009e44:	b0 a6 c0 1c 	subcc  %i3, %i4, %i0
40009e48:	82 60 80 1a 	subx  %g2, %i2, %g1
40009e4c:	84 a6 40 18 	subcc  %i1, %i0, %g2
40009e50:	b0 60 c0 01 	subx  %g3, %g1, %i0
40009e54:	bb 2e 00 1d 	sll  %i0, %i5, %i5
40009e58:	b3 30 80 04 	srl  %g2, %g4, %i1
40009e5c:	b1 36 00 04 	srl  %i0, %g4, %i0
40009e60:	b2 16 40 1d 	or  %i1, %i5, %i1
40009e64:	81 c7 e0 08 	ret 
40009e68:	81 e8 00 00 	restore 

40009e6c <.udiv>:
40009e6c:	10 80 00 0b 	b  40009e98 <ready_to_divide>
40009e70:	86 10 20 00 	clr  %g3

40009e74 <.div>:
40009e74:	80 92 40 08 	orcc  %o1, %o0, %g0
40009e78:	16 80 00 08 	bge  40009e98 <ready_to_divide>
40009e7c:	86 1a 40 08 	xor  %o1, %o0, %g3
40009e80:	80 92 40 00 	tst  %o1
40009e84:	16 80 00 04 	bge  40009e94 <.div+0x20>
40009e88:	80 92 00 00 	tst  %o0
40009e8c:	16 80 00 03 	bge  40009e98 <ready_to_divide>
40009e90:	92 20 00 09 	neg  %o1
40009e94:	90 20 00 08 	neg  %o0

40009e98 <ready_to_divide>:
40009e98:	9a 92 40 00 	orcc  %o1, %g0, %o5
40009e9c:	12 80 00 05 	bne  40009eb0 <ready_to_divide+0x18>
40009ea0:	96 10 00 08 	mov  %o0, %o3
40009ea4:	91 d0 20 02 	ta  2
40009ea8:	81 c3 e0 08 	retl 
40009eac:	90 10 00 00 	mov  %g0, %o0
40009eb0:	80 a2 c0 0d 	cmp  %o3, %o5
40009eb4:	0a 80 00 95 	bcs  4000a108 <got_result>
40009eb8:	94 10 00 00 	mov  %g0, %o2
40009ebc:	03 02 00 00 	sethi  %hi(0x8000000), %g1
40009ec0:	80 a2 c0 01 	cmp  %o3, %g1
40009ec4:	0a 80 00 28 	bcs  40009f64 <not_really_big>
40009ec8:	98 10 00 00 	mov  %g0, %o4
40009ecc:	80 a3 40 01 	cmp  %o5, %g1
40009ed0:	1a 80 00 0d 	bcc  40009f04 <not_too_big>
40009ed4:	84 10 20 01 	mov  1, %g2
40009ed8:	9b 2b 60 04 	sll  %o5, 4, %o5
40009edc:	10 bf ff fc 	b  40009ecc <ready_to_divide+0x34>
40009ee0:	98 03 20 01 	inc  %o4
40009ee4:	9a 83 40 0d 	addcc  %o5, %o5, %o5
40009ee8:	1a 80 00 07 	bcc  40009f04 <not_too_big>
40009eec:	84 00 a0 01 	inc  %g2
40009ef0:	83 28 60 04 	sll  %g1, 4, %g1
40009ef4:	9b 33 60 01 	srl  %o5, 1, %o5
40009ef8:	9a 03 40 01 	add  %o5, %g1, %o5
40009efc:	10 80 00 07 	b  40009f18 <do_single_div>
40009f00:	84 20 a0 01 	dec  %g2

40009f04 <not_too_big>:
40009f04:	80 a3 40 0b 	cmp  %o5, %o3
40009f08:	0a bf ff f7 	bcs  40009ee4 <ready_to_divide+0x4c>
40009f0c:	01 00 00 00 	nop 
40009f10:	02 80 00 02 	be  40009f18 <do_single_div>
40009f14:	01 00 00 00 	nop 

40009f18 <do_single_div>:
40009f18:	84 a0 a0 01 	deccc  %g2
40009f1c:	06 80 00 76 	bl  4000a0f4 <end_regular_divide>
40009f20:	01 00 00 00 	nop 
40009f24:	96 22 c0 0d 	sub  %o3, %o5, %o3
40009f28:	94 10 20 01 	mov  1, %o2
40009f2c:	10 80 00 0a 	b  40009f54 <end_single_divloop>
40009f30:	01 00 00 00 	nop 

40009f34 <single_divloop>:
40009f34:	95 2a a0 01 	sll  %o2, 1, %o2
40009f38:	06 80 00 05 	bl  40009f4c <single_divloop+0x18>
40009f3c:	9b 33 60 01 	srl  %o5, 1, %o5
40009f40:	96 22 c0 0d 	sub  %o3, %o5, %o3
40009f44:	10 80 00 04 	b  40009f54 <end_single_divloop>
40009f48:	94 02 a0 01 	inc  %o2
40009f4c:	96 02 c0 0d 	add  %o3, %o5, %o3
40009f50:	94 22 a0 01 	dec  %o2

40009f54 <end_single_divloop>:
40009f54:	84 a0 a0 01 	deccc  %g2
40009f58:	16 bf ff f7 	bge  40009f34 <single_divloop>
40009f5c:	80 92 c0 00 	tst  %o3
40009f60:	30 80 00 65 	b,a   4000a0f4 <end_regular_divide>

40009f64 <not_really_big>:
40009f64:	9b 2b 60 04 	sll  %o5, 4, %o5
40009f68:	80 a3 40 0b 	cmp  %o5, %o3
40009f6c:	08 bf ff fe 	bleu  40009f64 <not_really_big>
40009f70:	98 83 20 01 	inccc  %o4
40009f74:	02 80 00 65 	be  4000a108 <got_result>
40009f78:	98 23 20 01 	dec  %o4
40009f7c:	80 92 c0 00 	tst  %o3

40009f80 <divloop>:
40009f80:	95 2a a0 04 	sll  %o2, 4, %o2
40009f84:	06 80 00 2f 	bl  4000a040 <L1.16>
40009f88:	9b 33 60 01 	srl  %o5, 1, %o5
40009f8c:	96 a2 c0 0d 	subcc  %o3, %o5, %o3
40009f90:	06 80 00 17 	bl  40009fec <L2.17>
40009f94:	9b 33 60 01 	srl  %o5, 1, %o5
40009f98:	96 a2 c0 0d 	subcc  %o3, %o5, %o3
40009f9c:	06 80 00 0b 	bl  40009fc8 <L3.19>
40009fa0:	9b 33 60 01 	srl  %o5, 1, %o5
40009fa4:	96 a2 c0 0d 	subcc  %o3, %o5, %o3
40009fa8:	06 80 00 05 	bl  40009fbc <L4.23>
40009fac:	9b 33 60 01 	srl  %o5, 1, %o5
40009fb0:	96 a2 c0 0d 	subcc  %o3, %o5, %o3
40009fb4:	10 80 00 50 	b  4000a0f4 <end_regular_divide>
40009fb8:	94 02 a0 0f 	add  %o2, 0xf, %o2

40009fbc <L4.23>:
40009fbc:	96 82 c0 0d 	addcc  %o3, %o5, %o3
40009fc0:	10 80 00 4d 	b  4000a0f4 <end_regular_divide>
40009fc4:	94 02 a0 0d 	add  %o2, 0xd, %o2

40009fc8 <L3.19>:
40009fc8:	96 82 c0 0d 	addcc  %o3, %o5, %o3
40009fcc:	06 80 00 05 	bl  40009fe0 <L4.21>
40009fd0:	9b 33 60 01 	srl  %o5, 1, %o5
40009fd4:	96 a2 c0 0d 	subcc  %o3, %o5, %o3
40009fd8:	10 80 00 47 	b  4000a0f4 <end_regular_divide>
40009fdc:	94 02 a0 0b 	add  %o2, 0xb, %o2

40009fe0 <L4.21>:
40009fe0:	96 82 c0 0d 	addcc  %o3, %o5, %o3
40009fe4:	10 80 00 44 	b  4000a0f4 <end_regular_divide>
40009fe8:	94 02 a0 09 	add  %o2, 9, %o2

40009fec <L2.17>:
40009fec:	96 82 c0 0d 	addcc  %o3, %o5, %o3
40009ff0:	06 80 00 0b 	bl  4000a01c <L3.17>
40009ff4:	9b 33 60 01 	srl  %o5, 1, %o5
40009ff8:	96 a2 c0 0d 	subcc  %o3, %o5, %o3
40009ffc:	06 80 00 05 	bl  4000a010 <L4.19>
4000a000:	9b 33 60 01 	srl  %o5, 1, %o5
4000a004:	96 a2 c0 0d 	subcc  %o3, %o5, %o3
4000a008:	10 80 00 3b 	b  4000a0f4 <end_regular_divide>
4000a00c:	94 02 a0 07 	add  %o2, 7, %o2

4000a010 <L4.19>:
4000a010:	96 82 c0 0d 	addcc  %o3, %o5, %o3
4000a014:	10 80 00 38 	b  4000a0f4 <end_regular_divide>
4000a018:	94 02 a0 05 	add  %o2, 5, %o2

4000a01c <L3.17>:
4000a01c:	96 82 c0 0d 	addcc  %o3, %o5, %o3
4000a020:	06 80 00 05 	bl  4000a034 <L4.17>
4000a024:	9b 33 60 01 	srl  %o5, 1, %o5
4000a028:	96 a2 c0 0d 	subcc  %o3, %o5, %o3
4000a02c:	10 80 00 32 	b  4000a0f4 <end_regular_divide>
4000a030:	94 02 a0 03 	add  %o2, 3, %o2

4000a034 <L4.17>:
4000a034:	96 82 c0 0d 	addcc  %o3, %o5, %o3
4000a038:	10 80 00 2f 	b  4000a0f4 <end_regular_divide>
4000a03c:	94 02 a0 01 	inc  %o2

4000a040 <L1.16>:
4000a040:	96 82 c0 0d 	addcc  %o3, %o5, %o3
4000a044:	06 80 00 17 	bl  4000a0a0 <L2.15>
4000a048:	9b 33 60 01 	srl  %o5, 1, %o5
4000a04c:	96 a2 c0 0d 	subcc  %o3, %o5, %o3
4000a050:	06 80 00 0b 	bl  4000a07c <L3.15>
4000a054:	9b 33 60 01 	srl  %o5, 1, %o5
4000a058:	96 a2 c0 0d 	subcc  %o3, %o5, %o3
4000a05c:	06 80 00 05 	bl  4000a070 <L4.15>
4000a060:	9b 33 60 01 	srl  %o5, 1, %o5
4000a064:	96 a2 c0 0d 	subcc  %o3, %o5, %o3
4000a068:	10 80 00 23 	b  4000a0f4 <end_regular_divide>
4000a06c:	94 02 bf ff 	add  %o2, -1, %o2

4000a070 <L4.15>:
4000a070:	96 82 c0 0d 	addcc  %o3, %o5, %o3
4000a074:	10 80 00 20 	b  4000a0f4 <end_regular_divide>
4000a078:	94 02 bf fd 	add  %o2, -3, %o2

4000a07c <L3.15>:
4000a07c:	96 82 c0 0d 	addcc  %o3, %o5, %o3
4000a080:	06 80 00 05 	bl  4000a094 <L4.13>
4000a084:	9b 33 60 01 	srl  %o5, 1, %o5
4000a088:	96 a2 c0 0d 	subcc  %o3, %o5, %o3
4000a08c:	10 80 00 1a 	b  4000a0f4 <end_regular_divide>
4000a090:	94 02 bf fb 	add  %o2, -5, %o2

4000a094 <L4.13>:
4000a094:	96 82 c0 0d 	addcc  %o3, %o5, %o3
4000a098:	10 80 00 17 	b  4000a0f4 <end_regular_divide>
4000a09c:	94 02 bf f9 	add  %o2, -7, %o2

4000a0a0 <L2.15>:
4000a0a0:	96 82 c0 0d 	addcc  %o3, %o5, %o3
4000a0a4:	06 80 00 0b 	bl  4000a0d0 <L3.13>
4000a0a8:	9b 33 60 01 	srl  %o5, 1, %o5
4000a0ac:	96 a2 c0 0d 	subcc  %o3, %o5, %o3
4000a0b0:	06 80 00 05 	bl  4000a0c4 <L4.11>
4000a0b4:	9b 33 60 01 	srl  %o5, 1, %o5
4000a0b8:	96 a2 c0 0d 	subcc  %o3, %o5, %o3
4000a0bc:	10 80 00 0e 	b  4000a0f4 <end_regular_divide>
4000a0c0:	94 02 bf f7 	add  %o2, -9, %o2

4000a0c4 <L4.11>:
4000a0c4:	96 82 c0 0d 	addcc  %o3, %o5, %o3
4000a0c8:	10 80 00 0b 	b  4000a0f4 <end_regular_divide>
4000a0cc:	94 02 bf f5 	add  %o2, -11, %o2

4000a0d0 <L3.13>:
4000a0d0:	96 82 c0 0d 	addcc  %o3, %o5, %o3
4000a0d4:	06 80 00 05 	bl  4000a0e8 <L4.9>
4000a0d8:	9b 33 60 01 	srl  %o5, 1, %o5
4000a0dc:	96 a2 c0 0d 	subcc  %o3, %o5, %o3
4000a0e0:	10 80 00 05 	b  4000a0f4 <end_regular_divide>
4000a0e4:	94 02 bf f3 	add  %o2, -13, %o2

4000a0e8 <L4.9>:
4000a0e8:	96 82 c0 0d 	addcc  %o3, %o5, %o3
4000a0ec:	10 80 00 02 	b  4000a0f4 <end_regular_divide>
4000a0f0:	94 02 bf f1 	add  %o2, -15, %o2

4000a0f4 <end_regular_divide>:
4000a0f4:	98 a3 20 01 	deccc  %o4
4000a0f8:	16 bf ff a2 	bge  40009f80 <divloop>
4000a0fc:	80 92 c0 00 	tst  %o3
4000a100:	26 80 00 02 	bl,a   4000a108 <got_result>
4000a104:	94 22 a0 01 	dec  %o2

4000a108 <got_result>:
4000a108:	80 90 c0 00 	tst  %g3
4000a10c:	26 80 00 02 	bl,a   4000a114 <got_result+0xc>
4000a110:	94 20 00 0a 	neg  %o2
4000a114:	81 c3 e0 08 	retl 
4000a118:	90 10 00 0a 	mov  %o2, %o0

4000a11c <__make_thread_control_reg__>:
4000a11c:	90 0a 20 0f 	and  %o0, 0xf, %o0
4000a120:	91 2a 20 08 	sll  %o0, 8, %o0
4000a124:	97 2a e0 10 	sll  %o3, 0x10, %o3
4000a128:	95 2a a0 0e 	sll  %o2, 0xe, %o2
4000a12c:	92 0a 60 f8 	and  %o1, 0xf8, %o1
4000a130:	92 12 60 01 	or  %o1, 1, %o1
4000a134:	92 12 40 08 	or  %o1, %o0, %o1
4000a138:	90 12 40 0b 	or  %o1, %o3, %o0
4000a13c:	81 c3 e0 08 	retl 
4000a140:	90 12 00 0a 	or  %o0, %o2, %o0

4000a144 <__make_dma_control_reg__>:
4000a144:	91 2a 20 18 	sll  %o0, 0x18, %o0
4000a148:	95 2a a0 14 	sll  %o2, 0x14, %o2
4000a14c:	99 2b 20 08 	sll  %o4, 8, %o4
4000a150:	92 0a 60 f8 	and  %o1, 0xf8, %o1
4000a154:	97 2a e0 10 	sll  %o3, 0x10, %o3
4000a158:	92 12 60 01 	or  %o1, 1, %o1
4000a15c:	03 00 00 3f 	sethi  %hi(0xfc00), %g1
4000a160:	92 12 40 08 	or  %o1, %o0, %o1
4000a164:	82 10 63 ff 	or  %g1, 0x3ff, %g1
4000a168:	92 12 40 0a 	or  %o1, %o2, %o1
4000a16c:	90 0b 00 01 	and  %o4, %g1, %o0
4000a170:	96 12 40 0b 	or  %o1, %o3, %o3
4000a174:	81 c3 e0 08 	retl 
4000a178:	90 12 c0 08 	or  %o3, %o0, %o0

4000a17c <initHpcMachineState>:
4000a17c:	82 10 20 10 	mov  0x10, %g1
4000a180:	c0 22 20 1c 	clr  [ %o0 + 0x1c ]
4000a184:	c0 22 20 20 	clr  [ %o0 + 0x20 ]
4000a188:	c0 22 20 24 	clr  [ %o0 + 0x24 ]
4000a18c:	c0 22 20 28 	clr  [ %o0 + 0x28 ]
4000a190:	c0 22 20 2c 	clr  [ %o0 + 0x2c ]
4000a194:	c0 22 20 30 	clr  [ %o0 + 0x30 ]
4000a198:	c0 22 20 34 	clr  [ %o0 + 0x34 ]
4000a19c:	c0 22 20 38 	clr  [ %o0 + 0x38 ]
4000a1a0:	c0 22 20 3c 	clr  [ %o0 + 0x3c ]
4000a1a4:	c0 22 20 40 	clr  [ %o0 + 0x40 ]
4000a1a8:	c0 22 20 44 	clr  [ %o0 + 0x44 ]
4000a1ac:	c0 22 20 48 	clr  [ %o0 + 0x48 ]
4000a1b0:	c0 22 20 4c 	clr  [ %o0 + 0x4c ]
4000a1b4:	c0 22 20 50 	clr  [ %o0 + 0x50 ]
4000a1b8:	c0 22 20 54 	clr  [ %o0 + 0x54 ]
4000a1bc:	c0 22 20 58 	clr  [ %o0 + 0x58 ]
4000a1c0:	82 80 7f ff 	addcc  %g1, -1, %g1
4000a1c4:	12 bf ff ef 	bne  4000a180 <initHpcMachineState+0x4>
4000a1c8:	90 02 20 40 	add  %o0, 0x40, %o0
4000a1cc:	81 c3 e0 08 	retl 
4000a1d0:	01 00 00 00 	nop 

4000a1d4 <__pre_increment_engine_sequence_number__>:
4000a1d4:	93 2a 60 02 	sll  %o1, 2, %o1
4000a1d8:	94 02 40 0a 	add  %o1, %o2, %o2
4000a1dc:	93 2a a0 02 	sll  %o2, 2, %o1
4000a1e0:	96 02 40 0b 	add  %o1, %o3, %o3
4000a1e4:	82 02 e0 06 	add  %o3, 6, %g1
4000a1e8:	83 28 60 02 	sll  %g1, 2, %g1
4000a1ec:	82 02 00 01 	add  %o0, %g1, %g1
4000a1f0:	d0 00 60 04 	ld  [ %g1 + 4 ], %o0
4000a1f4:	84 02 20 01 	add  %o0, 1, %g2
4000a1f8:	81 c3 e0 08 	retl 
4000a1fc:	c4 20 60 04 	st  %g2, [ %g1 + 4 ]

4000a200 <__pre_increment_dma_sequence_number__>:
4000a200:	93 2a 60 02 	sll  %o1, 2, %o1
4000a204:	94 02 40 0a 	add  %o1, %o2, %o2
4000a208:	93 2a a0 02 	sll  %o2, 2, %o1
4000a20c:	96 02 40 0b 	add  %o1, %o3, %o3
4000a210:	82 02 e0 06 	add  %o3, 6, %g1
4000a214:	83 28 60 02 	sll  %g1, 2, %g1
4000a218:	82 02 00 01 	add  %o0, %g1, %g1
4000a21c:	d0 00 60 04 	ld  [ %g1 + 4 ], %o0
4000a220:	84 02 20 01 	add  %o0, 1, %g2
4000a224:	81 c3 e0 08 	retl 
4000a228:	c4 20 60 04 	st  %g2, [ %g1 + 4 ]

4000a22c <allocateHpcMachineState>:
4000a22c:	81 c3 e0 08 	retl 
4000a230:	01 00 00 00 	nop 

4000a234 <initEngineThreadLocks>:
4000a234:	81 c3 e0 08 	retl 
4000a238:	01 00 00 00 	nop 

4000a23c <initDmaChannelLocks>:
4000a23c:	81 c3 e0 08 	retl 
4000a240:	01 00 00 00 	nop 

4000a244 <acquireEngineThreadLock>:
4000a244:	81 c3 e0 08 	retl 
4000a248:	90 10 20 00 	clr  %o0	! 0 <__DYNAMIC>

4000a24c <releaseEngineThreadLock>:
4000a24c:	81 c3 e0 08 	retl 
4000a250:	01 00 00 00 	nop 

4000a254 <acquireDmaChannelLock>:
4000a254:	81 c3 e0 08 	retl 
4000a258:	90 10 20 00 	clr  %o0	! 0 <__DYNAMIC>

4000a25c <releaseDmaChannelLock>:
4000a25c:	81 c3 e0 08 	retl 
4000a260:	01 00 00 00 	nop 

4000a264 <writeToEngineConfigRegister>:
4000a264:	9d e3 bf 98 	save  %sp, -104, %sp
4000a268:	92 10 20 00 	clr  %o1
4000a26c:	fa 23 a0 5c 	st  %i5, [ %sp + 0x5c ]
4000a270:	90 10 00 18 	mov  %i0, %o0
4000a274:	94 10 00 19 	mov  %i1, %o2
4000a278:	96 10 00 1a 	mov  %i2, %o3
4000a27c:	98 10 00 1b 	mov  %i3, %o4
4000a280:	40 00 03 33 	call  4000af4c <writeToConfigRegister>
4000a284:	9a 10 00 1c 	mov  %i4, %o5
4000a288:	81 c7 e0 08 	ret 
4000a28c:	81 e8 00 00 	restore 

4000a290 <readFromEngineConfigRegister>:
4000a290:	86 10 00 09 	mov  %o1, %g3
4000a294:	84 10 00 0a 	mov  %o2, %g2
4000a298:	82 10 00 0b 	mov  %o3, %g1
4000a29c:	9a 10 00 0c 	mov  %o4, %o5
4000a2a0:	92 10 20 00 	clr  %o1
4000a2a4:	94 10 00 03 	mov  %g3, %o2
4000a2a8:	96 10 00 02 	mov  %g2, %o3
4000a2ac:	98 10 00 01 	mov  %g1, %o4
4000a2b0:	82 13 c0 00 	mov  %o7, %g1
4000a2b4:	40 00 03 36 	call  4000af8c <readFromConfigRegister>
4000a2b8:	9e 10 40 00 	mov  %g1, %o7

4000a2bc <engineThreadStatus>:
4000a2bc:	98 10 20 00 	clr  %o4
4000a2c0:	82 13 c0 00 	mov  %o7, %g1
4000a2c4:	7f ff ff f3 	call  4000a290 <readFromEngineConfigRegister>
4000a2c8:	9e 10 40 00 	mov  %g1, %o7

4000a2cc <releaseEngineThread>:
4000a2cc:	9d e3 bf a0 	save  %sp, -96, %sp
4000a2d0:	90 10 00 18 	mov  %i0, %o0
4000a2d4:	92 10 00 19 	mov  %i1, %o1
4000a2d8:	94 10 00 1a 	mov  %i2, %o2
4000a2dc:	96 10 00 1b 	mov  %i3, %o3
4000a2e0:	7f ff ff f7 	call  4000a2bc <engineThreadStatus>
4000a2e4:	b0 10 20 00 	clr  %i0
4000a2e8:	80 8a 20 04 	btst  4, %o0
4000a2ec:	12 80 00 04 	bne  4000a2fc <releaseEngineThread+0x30>
4000a2f0:	90 0a 20 07 	and  %o0, 7, %o0
4000a2f4:	80 a0 00 08 	cmp  %g0, %o0
4000a2f8:	b0 40 20 00 	addx  %g0, 0, %i0
4000a2fc:	81 c7 e0 08 	ret 
4000a300:	81 e8 00 00 	restore 

4000a304 <acquireEngineThread>:
4000a304:	9d e3 bf a0 	save  %sp, -96, %sp
4000a308:	90 10 00 18 	mov  %i0, %o0
4000a30c:	92 10 00 19 	mov  %i1, %o1
4000a310:	94 10 00 1a 	mov  %i2, %o2
4000a314:	96 10 00 1b 	mov  %i3, %o3
4000a318:	7f ff ff e9 	call  4000a2bc <engineThreadStatus>
4000a31c:	b0 10 20 00 	clr  %i0
4000a320:	80 8a 20 04 	btst  4, %o0
4000a324:	12 80 00 04 	bne  4000a334 <acquireEngineThread+0x30>
4000a328:	90 0a 20 07 	and  %o0, 7, %o0
4000a32c:	80 a0 00 08 	cmp  %g0, %o0
4000a330:	b0 40 20 00 	addx  %g0, 0, %i0
4000a334:	81 c7 e0 08 	ret 
4000a338:	81 e8 00 00 	restore 

4000a33c <waitOnEngineThreadCompletion>:
4000a33c:	9d e3 bf a0 	save  %sp, -96, %sp
4000a340:	90 10 00 18 	mov  %i0, %o0
4000a344:	92 10 00 19 	mov  %i1, %o1
4000a348:	94 10 00 1a 	mov  %i2, %o2
4000a34c:	7f ff ff dc 	call  4000a2bc <engineThreadStatus>
4000a350:	96 10 00 1b 	mov  %i3, %o3
4000a354:	80 8a 20 04 	btst  4, %o0
4000a358:	12 80 00 04 	bne  4000a368 <waitOnEngineThreadCompletion+0x2c>
4000a35c:	80 8a 20 07 	btst  7, %o0
4000a360:	12 bf ff f9 	bne  4000a344 <waitOnEngineThreadCompletion+0x8>
4000a364:	90 10 00 18 	mov  %i0, %o0
4000a368:	81 c7 e0 08 	ret 
4000a36c:	81 e8 00 00 	restore 

4000a370 <__set_thread_interrupt_enable__>:
4000a370:	9d e3 bf a0 	save  %sp, -96, %sp
4000a374:	98 10 20 00 	clr  %o4
4000a378:	90 10 00 18 	mov  %i0, %o0
4000a37c:	92 10 00 19 	mov  %i1, %o1
4000a380:	94 10 00 1a 	mov  %i2, %o2
4000a384:	7f ff ff c3 	call  4000a290 <readFromEngineConfigRegister>
4000a388:	96 10 00 1b 	mov  %i3, %o3
4000a38c:	80 a7 20 00 	cmp  %i4, 0
4000a390:	02 80 00 03 	be  4000a39c <__set_thread_interrupt_enable__+0x2c>
4000a394:	ba 0a 3f f7 	and  %o0, -9, %i5
4000a398:	ba 12 20 08 	or  %o0, 8, %i5
4000a39c:	7f ff ff b2 	call  4000a264 <writeToEngineConfigRegister>
4000a3a0:	99 e8 20 00 	restore  %g0, 0, %o4

4000a3a4 <writeToDmaConfigRegister>:
4000a3a4:	9d e3 bf 98 	save  %sp, -104, %sp
4000a3a8:	92 10 20 01 	mov  1, %o1
4000a3ac:	fa 23 a0 5c 	st  %i5, [ %sp + 0x5c ]
4000a3b0:	90 10 00 18 	mov  %i0, %o0
4000a3b4:	94 10 00 19 	mov  %i1, %o2
4000a3b8:	96 10 00 1a 	mov  %i2, %o3
4000a3bc:	98 10 00 1b 	mov  %i3, %o4
4000a3c0:	40 00 02 e3 	call  4000af4c <writeToConfigRegister>
4000a3c4:	9a 10 00 1c 	mov  %i4, %o5
4000a3c8:	81 c7 e0 08 	ret 
4000a3cc:	81 e8 00 00 	restore 

4000a3d0 <readFromDmaConfigRegister>:
4000a3d0:	86 10 00 09 	mov  %o1, %g3
4000a3d4:	84 10 00 0a 	mov  %o2, %g2
4000a3d8:	82 10 00 0b 	mov  %o3, %g1
4000a3dc:	9a 10 00 0c 	mov  %o4, %o5
4000a3e0:	92 10 20 01 	mov  1, %o1
4000a3e4:	94 10 00 03 	mov  %g3, %o2
4000a3e8:	96 10 00 02 	mov  %g2, %o3
4000a3ec:	98 10 00 01 	mov  %g1, %o4
4000a3f0:	82 13 c0 00 	mov  %o7, %g1
4000a3f4:	40 00 02 e6 	call  4000af8c <readFromConfigRegister>
4000a3f8:	9e 10 40 00 	mov  %g1, %o7

4000a3fc <dmaChannelStatus>:
4000a3fc:	98 10 20 00 	clr  %o4
4000a400:	82 13 c0 00 	mov  %o7, %g1
4000a404:	7f ff ff f3 	call  4000a3d0 <readFromDmaConfigRegister>
4000a408:	9e 10 40 00 	mov  %g1, %o7

4000a40c <waitOnDmaChannelCompletion>:
4000a40c:	9d e3 bf a0 	save  %sp, -96, %sp
4000a410:	90 10 00 18 	mov  %i0, %o0
4000a414:	92 10 00 19 	mov  %i1, %o1
4000a418:	94 10 00 1a 	mov  %i2, %o2
4000a41c:	7f ff ff f8 	call  4000a3fc <dmaChannelStatus>
4000a420:	96 10 00 1b 	mov  %i3, %o3
4000a424:	80 8a 20 04 	btst  4, %o0
4000a428:	32 bf ff fb 	bne,a   4000a414 <waitOnDmaChannelCompletion+0x8>
4000a42c:	90 10 00 18 	mov  %i0, %o0
4000a430:	80 8a 20 07 	btst  7, %o0
4000a434:	02 bf ff f8 	be  4000a414 <waitOnDmaChannelCompletion+0x8>
4000a438:	90 10 00 18 	mov  %i0, %o0
4000a43c:	81 c7 e0 08 	ret 
4000a440:	81 e8 00 00 	restore 

4000a444 <__set_dma_interrupt_enable__>:
4000a444:	9d e3 bf a0 	save  %sp, -96, %sp
4000a448:	98 10 20 00 	clr  %o4
4000a44c:	90 10 00 18 	mov  %i0, %o0
4000a450:	92 10 00 19 	mov  %i1, %o1
4000a454:	94 10 00 1a 	mov  %i2, %o2
4000a458:	7f ff ff de 	call  4000a3d0 <readFromDmaConfigRegister>
4000a45c:	96 10 00 1b 	mov  %i3, %o3
4000a460:	80 a7 20 00 	cmp  %i4, 0
4000a464:	02 80 00 03 	be  4000a470 <__set_dma_interrupt_enable__+0x2c>
4000a468:	ba 0a 3f f7 	and  %o0, -9, %i5
4000a46c:	ba 12 20 08 	or  %o0, 8, %i5
4000a470:	7f ff ff cd 	call  4000a3a4 <writeToDmaConfigRegister>
4000a474:	99 e8 20 00 	restore  %g0, 0, %o4

4000a478 <writeInstructionToEngineInstrMemory>:
4000a478:	9d e3 bf 98 	save  %sp, -104, %sp
4000a47c:	96 10 20 00 	clr  %o3
4000a480:	90 10 00 18 	mov  %i0, %o0
4000a484:	92 10 00 19 	mov  %i1, %o1
4000a488:	7f ff ff 9f 	call  4000a304 <acquireEngineThread>
4000a48c:	94 10 00 1a 	mov  %i2, %o2
4000a490:	80 a2 20 00 	cmp  %o0, 0
4000a494:	02 80 00 04 	be  4000a4a4 <writeInstructionToEngineInstrMemory+0x2c>
4000a498:	96 10 20 00 	clr  %o3
4000a49c:	81 c7 e0 08 	ret 
4000a4a0:	91 e8 00 08 	restore  %g0, %o0, %o0
4000a4a4:	98 10 20 02 	mov  2, %o4
4000a4a8:	9a 10 00 1b 	mov  %i3, %o5
4000a4ac:	90 10 00 18 	mov  %i0, %o0
4000a4b0:	92 10 00 19 	mov  %i1, %o1
4000a4b4:	7f ff ff 6c 	call  4000a264 <writeToEngineConfigRegister>
4000a4b8:	94 10 00 1a 	mov  %i2, %o2
4000a4bc:	9a 10 00 1c 	mov  %i4, %o5
4000a4c0:	90 10 00 18 	mov  %i0, %o0
4000a4c4:	92 10 00 19 	mov  %i1, %o1
4000a4c8:	94 10 00 1a 	mov  %i2, %o2
4000a4cc:	96 10 20 00 	clr  %o3
4000a4d0:	7f ff ff 65 	call  4000a264 <writeToEngineConfigRegister>
4000a4d4:	98 10 20 03 	mov  3, %o4
4000a4d8:	92 10 00 19 	mov  %i1, %o1
4000a4dc:	94 10 00 1a 	mov  %i2, %o2
4000a4e0:	96 10 20 00 	clr  %o3
4000a4e4:	98 10 20 00 	clr  %o4
4000a4e8:	7f ff ff 6a 	call  4000a290 <readFromEngineConfigRegister>
4000a4ec:	90 10 00 18 	mov  %i0, %o0
4000a4f0:	83 2e 60 02 	sll  %i1, 2, %g1
4000a4f4:	86 0a 20 f8 	and  %o0, 0xf8, %g3
4000a4f8:	82 00 40 1a 	add  %g1, %i2, %g1
4000a4fc:	83 28 60 04 	sll  %g1, 4, %g1
4000a500:	82 06 00 01 	add  %i0, %g1, %g1
4000a504:	c4 00 60 1c 	ld  [ %g1 + 0x1c ], %g2
4000a508:	88 00 a0 01 	add  %g2, 1, %g4
4000a50c:	85 28 a0 10 	sll  %g2, 0x10, %g2
4000a510:	c8 20 60 1c 	st  %g4, [ %g1 + 0x1c ]
4000a514:	84 10 a2 01 	or  %g2, 0x201, %g2
4000a518:	84 10 80 03 	or  %g2, %g3, %g2
4000a51c:	92 10 20 00 	clr  %o1
4000a520:	90 10 00 18 	mov  %i0, %o0
4000a524:	94 10 00 19 	mov  %i1, %o2
4000a528:	96 10 00 1a 	mov  %i2, %o3
4000a52c:	98 10 20 00 	clr  %o4
4000a530:	9a 10 20 00 	clr  %o5
4000a534:	40 00 02 86 	call  4000af4c <writeToConfigRegister>
4000a538:	c4 23 a0 5c 	st  %g2, [ %sp + 0x5c ]
4000a53c:	90 10 00 18 	mov  %i0, %o0
4000a540:	92 10 00 19 	mov  %i1, %o1
4000a544:	94 10 00 1a 	mov  %i2, %o2
4000a548:	7f ff ff 61 	call  4000a2cc <releaseEngineThread>
4000a54c:	96 10 20 00 	clr  %o3
4000a550:	80 a2 20 00 	cmp  %o0, 0
4000a554:	32 bf ff fb 	bne,a   4000a540 <writeInstructionToEngineInstrMemory+0xc8>
4000a558:	90 10 00 18 	mov  %i0, %o0
4000a55c:	81 c7 e0 08 	ret 
4000a560:	91 e8 00 08 	restore  %g0, %o0, %o0

4000a564 <readInstructionFromEngineInstrMemory>:
4000a564:	9d e3 bf a0 	save  %sp, -96, %sp
4000a568:	96 10 20 00 	clr  %o3
4000a56c:	90 10 00 18 	mov  %i0, %o0
4000a570:	ba 10 00 18 	mov  %i0, %i5
4000a574:	92 10 00 19 	mov  %i1, %o1
4000a578:	7f ff ff 63 	call  4000a304 <acquireEngineThread>
4000a57c:	94 10 00 1a 	mov  %i2, %o2
4000a580:	b0 92 20 00 	orcc  %o0, 0, %i0
4000a584:	12 80 00 34 	bne  4000a654 <readInstructionFromEngineInstrMemory+0xf0>
4000a588:	92 10 00 19 	mov  %i1, %o1
4000a58c:	94 10 00 1a 	mov  %i2, %o2
4000a590:	96 10 20 00 	clr  %o3
4000a594:	98 10 20 00 	clr  %o4
4000a598:	7f ff ff 3e 	call  4000a290 <readFromEngineConfigRegister>
4000a59c:	90 10 00 1d 	mov  %i5, %o0
4000a5a0:	83 2e 60 02 	sll  %i1, 2, %g1
4000a5a4:	86 0a 20 f8 	and  %o0, 0xf8, %g3
4000a5a8:	82 00 40 1a 	add  %g1, %i2, %g1
4000a5ac:	83 28 60 04 	sll  %g1, 4, %g1
4000a5b0:	82 07 40 01 	add  %i5, %g1, %g1
4000a5b4:	c4 00 60 1c 	ld  [ %g1 + 0x1c ], %g2
4000a5b8:	88 00 a0 01 	add  %g2, 1, %g4
4000a5bc:	9a 10 00 1b 	mov  %i3, %o5
4000a5c0:	c8 20 60 1c 	st  %g4, [ %g1 + 0x1c ]
4000a5c4:	b7 28 a0 10 	sll  %g2, 0x10, %i3
4000a5c8:	96 10 20 00 	clr  %o3
4000a5cc:	98 10 20 02 	mov  2, %o4
4000a5d0:	90 10 00 1d 	mov  %i5, %o0
4000a5d4:	92 10 00 19 	mov  %i1, %o1
4000a5d8:	94 10 00 1a 	mov  %i2, %o2
4000a5dc:	b6 16 e1 01 	or  %i3, 0x101, %i3
4000a5e0:	7f ff ff 21 	call  4000a264 <writeToEngineConfigRegister>
4000a5e4:	b6 16 c0 03 	or  %i3, %g3, %i3
4000a5e8:	98 10 20 00 	clr  %o4
4000a5ec:	9a 10 00 1b 	mov  %i3, %o5
4000a5f0:	90 10 00 1d 	mov  %i5, %o0
4000a5f4:	92 10 00 19 	mov  %i1, %o1
4000a5f8:	94 10 00 1a 	mov  %i2, %o2
4000a5fc:	7f ff ff 1a 	call  4000a264 <writeToEngineConfigRegister>
4000a600:	96 10 20 00 	clr  %o3
4000a604:	90 10 00 1d 	mov  %i5, %o0
4000a608:	92 10 00 19 	mov  %i1, %o1
4000a60c:	94 10 00 1a 	mov  %i2, %o2
4000a610:	7f ff ff 4b 	call  4000a33c <waitOnEngineThreadCompletion>
4000a614:	96 10 20 00 	clr  %o3
4000a618:	90 10 00 1d 	mov  %i5, %o0
4000a61c:	92 10 00 19 	mov  %i1, %o1
4000a620:	94 10 00 1a 	mov  %i2, %o2
4000a624:	96 10 20 00 	clr  %o3
4000a628:	7f ff ff 1a 	call  4000a290 <readFromEngineConfigRegister>
4000a62c:	98 10 20 04 	mov  4, %o4
4000a630:	d0 27 00 00 	st  %o0, [ %i4 ]
4000a634:	90 10 00 1d 	mov  %i5, %o0
4000a638:	92 10 00 19 	mov  %i1, %o1
4000a63c:	94 10 00 1a 	mov  %i2, %o2
4000a640:	7f ff ff 23 	call  4000a2cc <releaseEngineThread>
4000a644:	96 10 20 00 	clr  %o3
4000a648:	80 a2 20 00 	cmp  %o0, 0
4000a64c:	12 bf ff fb 	bne  4000a638 <readInstructionFromEngineInstrMemory+0xd4>
4000a650:	90 10 00 1d 	mov  %i5, %o0
4000a654:	81 c7 e0 08 	ret 
4000a658:	81 e8 00 00 	restore 

4000a65c <resetEngineThread>:
4000a65c:	9d e3 bf a0 	save  %sp, -96, %sp
4000a660:	90 10 00 18 	mov  %i0, %o0
4000a664:	92 10 00 19 	mov  %i1, %o1
4000a668:	94 10 00 1a 	mov  %i2, %o2
4000a66c:	7f ff ff 26 	call  4000a304 <acquireEngineThread>
4000a670:	96 10 00 1b 	mov  %i3, %o3
4000a674:	80 a2 20 00 	cmp  %o0, 0
4000a678:	02 80 00 04 	be  4000a688 <resetEngineThread+0x2c>
4000a67c:	92 10 00 19 	mov  %i1, %o1
4000a680:	81 c7 e0 08 	ret 
4000a684:	91 e8 00 08 	restore  %g0, %o0, %o0
4000a688:	94 10 00 1a 	mov  %i2, %o2
4000a68c:	96 10 00 1b 	mov  %i3, %o3
4000a690:	98 10 20 00 	clr  %o4
4000a694:	7f ff fe ff 	call  4000a290 <readFromEngineConfigRegister>
4000a698:	90 10 00 18 	mov  %i0, %o0
4000a69c:	83 2e 60 02 	sll  %i1, 2, %g1
4000a6a0:	86 0a 20 f8 	and  %o0, 0xf8, %g3
4000a6a4:	82 00 40 1a 	add  %g1, %i2, %g1
4000a6a8:	83 28 60 02 	sll  %g1, 2, %g1
4000a6ac:	82 00 40 1b 	add  %g1, %i3, %g1
4000a6b0:	82 00 60 06 	add  %g1, 6, %g1
4000a6b4:	83 28 60 02 	sll  %g1, 2, %g1
4000a6b8:	82 06 00 01 	add  %i0, %g1, %g1
4000a6bc:	c4 00 60 04 	ld  [ %g1 + 4 ], %g2
4000a6c0:	88 00 a0 01 	add  %g2, 1, %g4
4000a6c4:	85 28 a0 10 	sll  %g2, 0x10, %g2
4000a6c8:	9b 2e e0 0e 	sll  %i3, 0xe, %o5
4000a6cc:	92 10 00 19 	mov  %i1, %o1
4000a6d0:	9a 13 63 01 	or  %o5, 0x301, %o5
4000a6d4:	90 10 00 18 	mov  %i0, %o0
4000a6d8:	9a 13 40 02 	or  %o5, %g2, %o5
4000a6dc:	94 10 00 1a 	mov  %i2, %o2
4000a6e0:	96 10 00 1b 	mov  %i3, %o3
4000a6e4:	98 10 20 00 	clr  %o4
4000a6e8:	c8 20 60 04 	st  %g4, [ %g1 + 4 ]
4000a6ec:	7f ff fe de 	call  4000a264 <writeToEngineConfigRegister>
4000a6f0:	9a 13 40 03 	or  %o5, %g3, %o5
4000a6f4:	90 10 00 18 	mov  %i0, %o0
4000a6f8:	92 10 00 19 	mov  %i1, %o1
4000a6fc:	94 10 00 1a 	mov  %i2, %o2
4000a700:	7f ff fe f3 	call  4000a2cc <releaseEngineThread>
4000a704:	96 10 00 1b 	mov  %i3, %o3
4000a708:	80 a2 20 00 	cmp  %o0, 0
4000a70c:	32 bf ff fb 	bne,a   4000a6f8 <resetEngineThread+0x9c>
4000a710:	90 10 00 18 	mov  %i0, %o0
4000a714:	81 c7 e0 08 	ret 
4000a718:	91 e8 00 08 	restore  %g0, %o0, %o0

4000a71c <writeThreadDataRegister>:
4000a71c:	9d e3 bf a0 	save  %sp, -96, %sp
4000a720:	e0 07 a0 5c 	ld  [ %fp + 0x5c ], %l0
4000a724:	90 10 00 18 	mov  %i0, %o0
4000a728:	92 10 00 19 	mov  %i1, %o1
4000a72c:	94 10 00 1a 	mov  %i2, %o2
4000a730:	7f ff fe f5 	call  4000a304 <acquireEngineThread>
4000a734:	96 10 00 1b 	mov  %i3, %o3
4000a738:	80 a2 20 00 	cmp  %o0, 0
4000a73c:	02 80 00 04 	be  4000a74c <writeThreadDataRegister+0x30>
4000a740:	92 10 00 19 	mov  %i1, %o1
4000a744:	81 c7 e0 08 	ret 
4000a748:	91 e8 00 08 	restore  %g0, %o0, %o0
4000a74c:	94 10 00 1a 	mov  %i2, %o2
4000a750:	96 10 00 1b 	mov  %i3, %o3
4000a754:	98 10 20 00 	clr  %o4
4000a758:	7f ff fe ce 	call  4000a290 <readFromEngineConfigRegister>
4000a75c:	90 10 00 18 	mov  %i0, %o0
4000a760:	83 2e 60 02 	sll  %i1, 2, %g1
4000a764:	86 0a 20 f8 	and  %o0, 0xf8, %g3
4000a768:	82 00 40 1a 	add  %g1, %i2, %g1
4000a76c:	83 28 60 02 	sll  %g1, 2, %g1
4000a770:	82 00 40 1b 	add  %g1, %i3, %g1
4000a774:	82 00 60 06 	add  %g1, 6, %g1
4000a778:	83 28 60 02 	sll  %g1, 2, %g1
4000a77c:	82 06 00 01 	add  %i0, %g1, %g1
4000a780:	c4 00 60 04 	ld  [ %g1 + 4 ], %g2
4000a784:	88 00 a0 01 	add  %g2, 1, %g4
4000a788:	85 28 a0 10 	sll  %g2, 0x10, %g2
4000a78c:	9a 10 00 1c 	mov  %i4, %o5
4000a790:	c8 20 60 04 	st  %g4, [ %g1 + 4 ]
4000a794:	98 10 20 02 	mov  2, %o4
4000a798:	90 10 00 18 	mov  %i0, %o0
4000a79c:	92 10 00 19 	mov  %i1, %o1
4000a7a0:	94 10 00 1a 	mov  %i2, %o2
4000a7a4:	96 10 00 1b 	mov  %i3, %o3
4000a7a8:	b9 2e e0 0e 	sll  %i3, 0xe, %i4
4000a7ac:	b8 17 26 01 	or  %i4, 0x601, %i4
4000a7b0:	b8 17 00 02 	or  %i4, %g2, %i4
4000a7b4:	7f ff fe ac 	call  4000a264 <writeToEngineConfigRegister>
4000a7b8:	b8 17 00 03 	or  %i4, %g3, %i4
4000a7bc:	90 10 00 18 	mov  %i0, %o0
4000a7c0:	92 10 00 19 	mov  %i1, %o1
4000a7c4:	94 10 00 1a 	mov  %i2, %o2
4000a7c8:	96 10 00 1b 	mov  %i3, %o3
4000a7cc:	98 10 20 06 	mov  6, %o4
4000a7d0:	7f ff fe a5 	call  4000a264 <writeToEngineConfigRegister>
4000a7d4:	9a 10 00 1d 	mov  %i5, %o5
4000a7d8:	90 10 00 18 	mov  %i0, %o0
4000a7dc:	92 10 00 19 	mov  %i1, %o1
4000a7e0:	94 10 00 1a 	mov  %i2, %o2
4000a7e4:	96 10 00 1b 	mov  %i3, %o3
4000a7e8:	98 10 20 07 	mov  7, %o4
4000a7ec:	7f ff fe 9e 	call  4000a264 <writeToEngineConfigRegister>
4000a7f0:	9a 10 00 10 	mov  %l0, %o5
4000a7f4:	90 10 00 18 	mov  %i0, %o0
4000a7f8:	92 10 00 19 	mov  %i1, %o1
4000a7fc:	94 10 00 1a 	mov  %i2, %o2
4000a800:	96 10 00 1b 	mov  %i3, %o3
4000a804:	98 10 20 00 	clr  %o4
4000a808:	7f ff fe 97 	call  4000a264 <writeToEngineConfigRegister>
4000a80c:	9a 10 00 1c 	mov  %i4, %o5
4000a810:	90 10 00 18 	mov  %i0, %o0
4000a814:	92 10 00 19 	mov  %i1, %o1
4000a818:	94 10 00 1a 	mov  %i2, %o2
4000a81c:	7f ff fe ac 	call  4000a2cc <releaseEngineThread>
4000a820:	96 10 00 1b 	mov  %i3, %o3
4000a824:	80 a2 20 00 	cmp  %o0, 0
4000a828:	32 bf ff fb 	bne,a   4000a814 <writeThreadDataRegister+0xf8>
4000a82c:	90 10 00 18 	mov  %i0, %o0
4000a830:	81 c7 e0 08 	ret 
4000a834:	91 e8 00 08 	restore  %g0, %o0, %o0

4000a838 <readThreadDataRegister>:
4000a838:	9d e3 bf a0 	save  %sp, -96, %sp
4000a83c:	90 10 00 18 	mov  %i0, %o0
4000a840:	92 10 00 19 	mov  %i1, %o1
4000a844:	94 10 00 1a 	mov  %i2, %o2
4000a848:	96 10 00 1b 	mov  %i3, %o3
4000a84c:	7f ff fe ae 	call  4000a304 <acquireEngineThread>
4000a850:	a0 10 00 1d 	mov  %i5, %l0
4000a854:	80 a2 20 00 	cmp  %o0, 0
4000a858:	02 80 00 04 	be  4000a868 <readThreadDataRegister+0x30>
4000a85c:	92 10 00 19 	mov  %i1, %o1
4000a860:	81 c7 e0 08 	ret 
4000a864:	91 e8 00 08 	restore  %g0, %o0, %o0
4000a868:	94 10 00 1a 	mov  %i2, %o2
4000a86c:	96 10 00 1b 	mov  %i3, %o3
4000a870:	98 10 20 00 	clr  %o4
4000a874:	7f ff fe 87 	call  4000a290 <readFromEngineConfigRegister>
4000a878:	90 10 00 18 	mov  %i0, %o0
4000a87c:	83 2e 60 02 	sll  %i1, 2, %g1
4000a880:	86 0a 20 f8 	and  %o0, 0xf8, %g3
4000a884:	82 00 40 1a 	add  %g1, %i2, %g1
4000a888:	83 28 60 02 	sll  %g1, 2, %g1
4000a88c:	82 00 40 1b 	add  %g1, %i3, %g1
4000a890:	82 00 60 06 	add  %g1, 6, %g1
4000a894:	83 28 60 02 	sll  %g1, 2, %g1
4000a898:	82 06 00 01 	add  %i0, %g1, %g1
4000a89c:	c4 00 60 04 	ld  [ %g1 + 4 ], %g2
4000a8a0:	88 00 a0 01 	add  %g2, 1, %g4
4000a8a4:	85 28 a0 10 	sll  %g2, 0x10, %g2
4000a8a8:	c8 20 60 04 	st  %g4, [ %g1 + 4 ]
4000a8ac:	9a 10 00 1c 	mov  %i4, %o5
4000a8b0:	98 10 20 02 	mov  2, %o4
4000a8b4:	90 10 00 18 	mov  %i0, %o0
4000a8b8:	92 10 00 19 	mov  %i1, %o1
4000a8bc:	94 10 00 1a 	mov  %i2, %o2
4000a8c0:	96 10 00 1b 	mov  %i3, %o3
4000a8c4:	bb 2e e0 0e 	sll  %i3, 0xe, %i5
4000a8c8:	ba 17 65 01 	or  %i5, 0x501, %i5
4000a8cc:	ba 17 40 02 	or  %i5, %g2, %i5
4000a8d0:	7f ff fe 65 	call  4000a264 <writeToEngineConfigRegister>
4000a8d4:	ba 17 40 03 	or  %i5, %g3, %i5
4000a8d8:	9a 10 00 1d 	mov  %i5, %o5
4000a8dc:	98 10 20 00 	clr  %o4
4000a8e0:	90 10 00 18 	mov  %i0, %o0
4000a8e4:	92 10 00 19 	mov  %i1, %o1
4000a8e8:	94 10 00 1a 	mov  %i2, %o2
4000a8ec:	7f ff fe 5e 	call  4000a264 <writeToEngineConfigRegister>
4000a8f0:	96 10 00 1b 	mov  %i3, %o3
4000a8f4:	90 10 00 18 	mov  %i0, %o0
4000a8f8:	92 10 00 19 	mov  %i1, %o1
4000a8fc:	94 10 00 1a 	mov  %i2, %o2
4000a900:	7f ff fe 8f 	call  4000a33c <waitOnEngineThreadCompletion>
4000a904:	96 10 00 1b 	mov  %i3, %o3
4000a908:	92 10 00 19 	mov  %i1, %o1
4000a90c:	94 10 00 1a 	mov  %i2, %o2
4000a910:	96 10 00 1b 	mov  %i3, %o3
4000a914:	98 10 20 07 	mov  7, %o4
4000a918:	7f ff fe 5e 	call  4000a290 <readFromEngineConfigRegister>
4000a91c:	90 10 00 18 	mov  %i0, %o0
4000a920:	92 10 00 19 	mov  %i1, %o1
4000a924:	b8 10 00 08 	mov  %o0, %i4
4000a928:	94 10 00 1a 	mov  %i2, %o2
4000a92c:	90 10 00 18 	mov  %i0, %o0
4000a930:	96 10 00 1b 	mov  %i3, %o3
4000a934:	7f ff fe 57 	call  4000a290 <readFromEngineConfigRegister>
4000a938:	98 10 20 06 	mov  6, %o4
4000a93c:	ba 10 00 1c 	mov  %i4, %i5
4000a940:	86 10 20 00 	clr  %g3
4000a944:	b8 10 20 00 	clr  %i4
4000a948:	86 10 c0 1d 	or  %g3, %i5, %g3
4000a94c:	84 12 00 1c 	or  %o0, %i4, %g2
4000a950:	c4 3c 00 00 	std  %g2, [ %l0 ]
4000a954:	90 10 00 18 	mov  %i0, %o0
4000a958:	92 10 00 19 	mov  %i1, %o1
4000a95c:	94 10 00 1a 	mov  %i2, %o2
4000a960:	7f ff fe 5b 	call  4000a2cc <releaseEngineThread>
4000a964:	96 10 00 1b 	mov  %i3, %o3
4000a968:	80 a2 20 00 	cmp  %o0, 0
4000a96c:	32 bf ff fb 	bne,a   4000a958 <readThreadDataRegister+0x120>
4000a970:	90 10 00 18 	mov  %i0, %o0
4000a974:	81 c7 e0 08 	ret 
4000a978:	91 e8 00 08 	restore  %g0, %o0, %o0

4000a97c <runEngineThread>:
4000a97c:	9d e3 bf a0 	save  %sp, -96, %sp
4000a980:	90 10 00 18 	mov  %i0, %o0
4000a984:	ba 10 00 18 	mov  %i0, %i5
4000a988:	92 10 00 19 	mov  %i1, %o1
4000a98c:	94 10 00 1a 	mov  %i2, %o2
4000a990:	7f ff fe 5d 	call  4000a304 <acquireEngineThread>
4000a994:	96 10 00 1b 	mov  %i3, %o3
4000a998:	b0 92 20 00 	orcc  %o0, 0, %i0
4000a99c:	12 80 00 2a 	bne  4000aa44 <runEngineThread+0xc8>
4000a9a0:	92 10 00 19 	mov  %i1, %o1
4000a9a4:	94 10 00 1a 	mov  %i2, %o2
4000a9a8:	96 10 00 1b 	mov  %i3, %o3
4000a9ac:	98 10 20 00 	clr  %o4
4000a9b0:	7f ff fe 38 	call  4000a290 <readFromEngineConfigRegister>
4000a9b4:	90 10 00 1d 	mov  %i5, %o0
4000a9b8:	83 2e 60 02 	sll  %i1, 2, %g1
4000a9bc:	86 0a 20 f8 	and  %o0, 0xf8, %g3
4000a9c0:	82 00 40 1a 	add  %g1, %i2, %g1
4000a9c4:	83 28 60 02 	sll  %g1, 2, %g1
4000a9c8:	82 00 40 1b 	add  %g1, %i3, %g1
4000a9cc:	82 00 60 06 	add  %g1, 6, %g1
4000a9d0:	83 28 60 02 	sll  %g1, 2, %g1
4000a9d4:	82 07 40 01 	add  %i5, %g1, %g1
4000a9d8:	c4 00 60 04 	ld  [ %g1 + 4 ], %g2
4000a9dc:	88 00 a0 01 	add  %g2, 1, %g4
4000a9e0:	85 28 a0 10 	sll  %g2, 0x10, %g2
4000a9e4:	9a 10 00 1c 	mov  %i4, %o5
4000a9e8:	90 10 00 1d 	mov  %i5, %o0
4000a9ec:	92 10 00 19 	mov  %i1, %o1
4000a9f0:	94 10 00 1a 	mov  %i2, %o2
4000a9f4:	96 10 00 1b 	mov  %i3, %o3
4000a9f8:	c8 20 60 04 	st  %g4, [ %g1 + 4 ]
4000a9fc:	98 10 20 01 	mov  1, %o4
4000aa00:	b9 2e e0 0e 	sll  %i3, 0xe, %i4
4000aa04:	b8 17 24 01 	or  %i4, 0x401, %i4
4000aa08:	b8 17 00 02 	or  %i4, %g2, %i4
4000aa0c:	7f ff fe 16 	call  4000a264 <writeToEngineConfigRegister>
4000aa10:	b8 17 00 03 	or  %i4, %g3, %i4
4000aa14:	90 10 00 1d 	mov  %i5, %o0
4000aa18:	92 10 00 19 	mov  %i1, %o1
4000aa1c:	94 10 00 1a 	mov  %i2, %o2
4000aa20:	96 10 00 1b 	mov  %i3, %o3
4000aa24:	98 10 20 00 	clr  %o4
4000aa28:	7f ff fe 0f 	call  4000a264 <writeToEngineConfigRegister>
4000aa2c:	9a 10 00 1c 	mov  %i4, %o5
4000aa30:	90 10 00 1d 	mov  %i5, %o0
4000aa34:	92 10 00 19 	mov  %i1, %o1
4000aa38:	94 10 00 1a 	mov  %i2, %o2
4000aa3c:	7f ff fe 40 	call  4000a33c <waitOnEngineThreadCompletion>
4000aa40:	96 10 00 1b 	mov  %i3, %o3
4000aa44:	81 c7 e0 08 	ret 
4000aa48:	81 e8 00 00 	restore 

4000aa4c <completeEngineThread>:
4000aa4c:	9d e3 bf a0 	save  %sp, -96, %sp
4000aa50:	90 10 00 18 	mov  %i0, %o0
4000aa54:	92 10 00 19 	mov  %i1, %o1
4000aa58:	94 10 00 1a 	mov  %i2, %o2
4000aa5c:	7f ff fe 2a 	call  4000a304 <acquireEngineThread>
4000aa60:	96 10 00 1b 	mov  %i3, %o3
4000aa64:	a0 92 20 00 	orcc  %o0, 0, %l0
4000aa68:	12 80 00 30 	bne  4000ab28 <completeEngineThread+0xdc>
4000aa6c:	92 10 00 19 	mov  %i1, %o1
4000aa70:	94 10 00 1a 	mov  %i2, %o2
4000aa74:	96 10 00 1b 	mov  %i3, %o3
4000aa78:	98 10 20 00 	clr  %o4
4000aa7c:	7f ff fe 05 	call  4000a290 <readFromEngineConfigRegister>
4000aa80:	90 10 00 18 	mov  %i0, %o0
4000aa84:	83 2e 60 02 	sll  %i1, 2, %g1
4000aa88:	90 0a 20 f8 	and  %o0, 0xf8, %o0
4000aa8c:	82 00 40 1a 	add  %g1, %i2, %g1
4000aa90:	83 28 60 02 	sll  %g1, 2, %g1
4000aa94:	82 00 40 1b 	add  %g1, %i3, %g1
4000aa98:	82 00 60 06 	add  %g1, 6, %g1
4000aa9c:	83 28 60 02 	sll  %g1, 2, %g1
4000aaa0:	82 06 00 01 	add  %i0, %g1, %g1
4000aaa4:	c4 00 60 04 	ld  [ %g1 + 4 ], %g2
4000aaa8:	87 28 a0 10 	sll  %g2, 0x10, %g3
4000aaac:	84 00 a0 01 	inc  %g2
4000aab0:	98 10 20 00 	clr  %o4
4000aab4:	c4 20 60 04 	st  %g2, [ %g1 + 4 ]
4000aab8:	92 10 00 19 	mov  %i1, %o1
4000aabc:	94 10 00 1a 	mov  %i2, %o2
4000aac0:	96 10 00 1b 	mov  %i3, %o3
4000aac4:	9b 2e e0 0e 	sll  %i3, 0xe, %o5
4000aac8:	9a 13 67 01 	or  %o5, 0x701, %o5
4000aacc:	9a 13 40 03 	or  %o5, %g3, %o5
4000aad0:	9a 13 40 08 	or  %o5, %o0, %o5
4000aad4:	7f ff fd e4 	call  4000a264 <writeToEngineConfigRegister>
4000aad8:	90 10 00 18 	mov  %i0, %o0
4000aadc:	90 10 00 18 	mov  %i0, %o0
4000aae0:	92 10 00 19 	mov  %i1, %o1
4000aae4:	94 10 00 1a 	mov  %i2, %o2
4000aae8:	7f ff fe 15 	call  4000a33c <waitOnEngineThreadCompletion>
4000aaec:	96 10 00 1b 	mov  %i3, %o3
4000aaf0:	92 10 00 19 	mov  %i1, %o1
4000aaf4:	94 10 00 1a 	mov  %i2, %o2
4000aaf8:	96 10 00 1b 	mov  %i3, %o3
4000aafc:	98 10 20 05 	mov  5, %o4
4000ab00:	7f ff fd e4 	call  4000a290 <readFromEngineConfigRegister>
4000ab04:	90 10 00 18 	mov  %i0, %o0
4000ab08:	92 10 00 19 	mov  %i1, %o1
4000ab0c:	d0 27 00 00 	st  %o0, [ %i4 ]
4000ab10:	94 10 00 1a 	mov  %i2, %o2
4000ab14:	90 10 00 18 	mov  %i0, %o0
4000ab18:	96 10 00 1b 	mov  %i3, %o3
4000ab1c:	7f ff fd dd 	call  4000a290 <readFromEngineConfigRegister>
4000ab20:	98 10 20 06 	mov  6, %o4
4000ab24:	d0 27 40 00 	st  %o0, [ %i5 ]
4000ab28:	81 c7 e0 08 	ret 
4000ab2c:	91 e8 00 10 	restore  %g0, %l0, %o0

4000ab30 <checkIfThreadHasCompleted>:
4000ab30:	9d e3 bf a0 	save  %sp, -96, %sp
4000ab34:	90 10 00 18 	mov  %i0, %o0
4000ab38:	92 10 00 19 	mov  %i1, %o1
4000ab3c:	94 10 00 1a 	mov  %i2, %o2
4000ab40:	96 10 00 1b 	mov  %i3, %o3
4000ab44:	98 10 00 1c 	mov  %i4, %o4
4000ab48:	9a 10 00 1d 	mov  %i5, %o5
4000ab4c:	7f ff ff c0 	call  4000aa4c <completeEngineThread>
4000ab50:	b0 10 20 01 	mov  1, %i0
4000ab54:	80 a2 20 00 	cmp  %o0, 0
4000ab58:	12 80 00 05 	bne  4000ab6c <checkIfThreadHasCompleted+0x3c>
4000ab5c:	01 00 00 00 	nop 
4000ab60:	f0 07 00 00 	ld  [ %i4 ], %i0
4000ab64:	b0 38 00 18 	xnor  %g0, %i0, %i0
4000ab68:	b1 36 20 1f 	srl  %i0, 0x1f, %i0
4000ab6c:	81 c7 e0 08 	ret 
4000ab70:	81 e8 00 00 	restore 

4000ab74 <acquireDmaChannel>:
4000ab74:	9d e3 bf a0 	save  %sp, -96, %sp
4000ab78:	90 10 00 18 	mov  %i0, %o0
4000ab7c:	92 10 00 19 	mov  %i1, %o1
4000ab80:	94 10 00 1a 	mov  %i2, %o2
4000ab84:	96 10 00 1b 	mov  %i3, %o3
4000ab88:	7f ff fe 1d 	call  4000a3fc <dmaChannelStatus>
4000ab8c:	b0 10 20 00 	clr  %i0
4000ab90:	80 8a 20 04 	btst  4, %o0
4000ab94:	12 80 00 04 	bne  4000aba4 <acquireDmaChannel+0x30>
4000ab98:	90 0a 20 07 	and  %o0, 7, %o0
4000ab9c:	80 a0 00 08 	cmp  %g0, %o0
4000aba0:	b0 40 20 00 	addx  %g0, 0, %i0
4000aba4:	81 c7 e0 08 	ret 
4000aba8:	81 e8 00 00 	restore 

4000abac <releaseDmaChannel>:
4000abac:	9d e3 bf a0 	save  %sp, -96, %sp
4000abb0:	90 10 00 18 	mov  %i0, %o0
4000abb4:	92 10 00 19 	mov  %i1, %o1
4000abb8:	94 10 00 1a 	mov  %i2, %o2
4000abbc:	96 10 00 1b 	mov  %i3, %o3
4000abc0:	7f ff fe 0f 	call  4000a3fc <dmaChannelStatus>
4000abc4:	b0 10 20 00 	clr  %i0
4000abc8:	80 8a 20 04 	btst  4, %o0
4000abcc:	12 80 00 04 	bne  4000abdc <releaseDmaChannel+0x30>
4000abd0:	90 0a 20 07 	and  %o0, 7, %o0
4000abd4:	80 a0 00 08 	cmp  %g0, %o0
4000abd8:	b0 40 20 00 	addx  %g0, 0, %i0
4000abdc:	81 c7 e0 08 	ret 
4000abe0:	81 e8 00 00 	restore 

4000abe4 <scheduleDmaTaskOnEngine>:
4000abe4:	9d e3 bf a0 	save  %sp, -96, %sp
4000abe8:	ea 07 a0 5c 	ld  [ %fp + 0x5c ], %l5
4000abec:	e6 07 a0 60 	ld  [ %fp + 0x60 ], %l3
4000abf0:	e4 07 a0 64 	ld  [ %fp + 0x64 ], %l2
4000abf4:	e0 07 a0 68 	ld  [ %fp + 0x68 ], %l0
4000abf8:	e2 07 a0 70 	ld  [ %fp + 0x70 ], %l1
4000abfc:	90 10 00 18 	mov  %i0, %o0
4000ac00:	92 10 00 19 	mov  %i1, %o1
4000ac04:	94 10 00 1a 	mov  %i2, %o2
4000ac08:	7f ff ff db 	call  4000ab74 <acquireDmaChannel>
4000ac0c:	96 10 00 1b 	mov  %i3, %o3
4000ac10:	a8 92 20 00 	orcc  %o0, 0, %l4
4000ac14:	12 80 00 55 	bne  4000ad68 <scheduleDmaTaskOnEngine+0x184>
4000ac18:	80 a0 00 1c 	cmp  %g0, %i4
4000ac1c:	03 00 40 00 	sethi  %hi(0x1000000), %g1
4000ac20:	b8 40 3f ff 	addx  %g0, -1, %i4
4000ac24:	92 10 00 19 	mov  %i1, %o1
4000ac28:	b8 0f 00 01 	and  %i4, %g1, %i4
4000ac2c:	94 10 00 1a 	mov  %i2, %o2
4000ac30:	b8 07 00 01 	add  %i4, %g1, %i4
4000ac34:	96 10 00 1b 	mov  %i3, %o3
4000ac38:	98 10 20 00 	clr  %o4
4000ac3c:	7f ff fd e5 	call  4000a3d0 <readFromDmaConfigRegister>
4000ac40:	90 10 00 18 	mov  %i0, %o0
4000ac44:	86 0f 60 0f 	and  %i5, 0xf, %g3
4000ac48:	83 2e 60 02 	sll  %i1, 2, %g1
4000ac4c:	82 00 40 1a 	add  %g1, %i2, %g1
4000ac50:	83 28 60 02 	sll  %g1, 2, %g1
4000ac54:	82 00 40 1b 	add  %g1, %i3, %g1
4000ac58:	82 00 60 06 	add  %g1, 6, %g1
4000ac5c:	83 28 60 02 	sll  %g1, 2, %g1
4000ac60:	82 06 00 01 	add  %i0, %g1, %g1
4000ac64:	9e 0a 20 f8 	and  %o0, 0xf8, %o7
4000ac68:	c8 00 60 04 	ld  [ %g1 + 4 ], %g4
4000ac6c:	97 28 e0 14 	sll  %g3, 0x14, %o3
4000ac70:	ba 01 20 01 	add  %g4, 1, %i5
4000ac74:	86 0c e0 0f 	and  %l3, 0xf, %g3
4000ac78:	fa 20 60 04 	st  %i5, [ %g1 + 4 ]
4000ac7c:	85 28 e0 10 	sll  %g3, 0x10, %g2
4000ac80:	89 29 20 08 	sll  %g4, 8, %g4
4000ac84:	15 00 00 3f 	sethi  %hi(0xfc00), %o2
4000ac88:	94 12 a3 ff 	or  %o2, 0x3ff, %o2	! ffff <__DYNAMIC+0xffff>
4000ac8c:	88 09 00 0a 	and  %g4, %o2, %g4
4000ac90:	88 11 20 01 	or  %g4, 1, %g4
4000ac94:	88 11 00 0b 	or  %g4, %o3, %g4
4000ac98:	82 11 00 02 	or  %g4, %g2, %g1
4000ac9c:	98 10 20 01 	mov  1, %o4
4000aca0:	b8 10 40 1c 	or  %g1, %i4, %i4
4000aca4:	9a 10 00 15 	mov  %l5, %o5
4000aca8:	b8 17 00 0f 	or  %i4, %o7, %i4
4000acac:	90 10 00 18 	mov  %i0, %o0
4000acb0:	92 10 00 19 	mov  %i1, %o1
4000acb4:	94 10 00 1a 	mov  %i2, %o2
4000acb8:	7f ff fd bb 	call  4000a3a4 <writeToDmaConfigRegister>
4000acbc:	96 10 00 1b 	mov  %i3, %o3
4000acc0:	90 10 00 18 	mov  %i0, %o0
4000acc4:	92 10 00 19 	mov  %i1, %o1
4000acc8:	94 10 00 1a 	mov  %i2, %o2
4000accc:	96 10 00 1b 	mov  %i3, %o3
4000acd0:	98 10 20 02 	mov  2, %o4
4000acd4:	7f ff fd b4 	call  4000a3a4 <writeToDmaConfigRegister>
4000acd8:	9a 10 00 12 	mov  %l2, %o5
4000acdc:	90 10 00 18 	mov  %i0, %o0
4000ace0:	92 10 00 19 	mov  %i1, %o1
4000ace4:	94 10 00 1a 	mov  %i2, %o2
4000ace8:	96 10 00 1b 	mov  %i3, %o3
4000acec:	98 10 20 03 	mov  3, %o4
4000acf0:	7f ff fd ad 	call  4000a3a4 <writeToDmaConfigRegister>
4000acf4:	9a 5c 40 10 	smul  %l1, %l0, %o5
4000acf8:	90 10 00 18 	mov  %i0, %o0
4000acfc:	92 10 00 19 	mov  %i1, %o1
4000ad00:	94 10 00 1a 	mov  %i2, %o2
4000ad04:	96 10 00 1b 	mov  %i3, %o3
4000ad08:	98 10 20 04 	mov  4, %o4
4000ad0c:	7f ff fd a6 	call  4000a3a4 <writeToDmaConfigRegister>
4000ad10:	9a 10 00 11 	mov  %l1, %o5
4000ad14:	90 10 00 18 	mov  %i0, %o0
4000ad18:	92 10 00 19 	mov  %i1, %o1
4000ad1c:	94 10 00 1a 	mov  %i2, %o2
4000ad20:	96 10 00 1b 	mov  %i3, %o3
4000ad24:	98 10 20 05 	mov  5, %o4
4000ad28:	7f ff fd 9f 	call  4000a3a4 <writeToDmaConfigRegister>
4000ad2c:	da 07 a0 6c 	ld  [ %fp + 0x6c ], %o5
4000ad30:	90 10 00 18 	mov  %i0, %o0
4000ad34:	92 10 00 19 	mov  %i1, %o1
4000ad38:	94 10 00 1a 	mov  %i2, %o2
4000ad3c:	96 10 00 1b 	mov  %i3, %o3
4000ad40:	98 10 20 06 	mov  6, %o4
4000ad44:	7f ff fd 98 	call  4000a3a4 <writeToDmaConfigRegister>
4000ad48:	9a 10 00 10 	mov  %l0, %o5
4000ad4c:	90 10 00 18 	mov  %i0, %o0
4000ad50:	92 10 00 19 	mov  %i1, %o1
4000ad54:	94 10 00 1a 	mov  %i2, %o2
4000ad58:	96 10 00 1b 	mov  %i3, %o3
4000ad5c:	98 10 20 00 	clr  %o4
4000ad60:	7f ff fd 91 	call  4000a3a4 <writeToDmaConfigRegister>
4000ad64:	9a 10 00 1c 	mov  %i4, %o5
4000ad68:	81 c7 e0 08 	ret 
4000ad6c:	91 e8 00 14 	restore  %g0, %l4, %o0

4000ad70 <readDmaChannelTaskStatus>:
4000ad70:	9d e3 bf a0 	save  %sp, -96, %sp
4000ad74:	98 10 20 00 	clr  %o4
4000ad78:	90 10 00 18 	mov  %i0, %o0
4000ad7c:	92 10 00 19 	mov  %i1, %o1
4000ad80:	94 10 00 1a 	mov  %i2, %o2
4000ad84:	7f ff fd 93 	call  4000a3d0 <readFromDmaConfigRegister>
4000ad88:	96 10 00 1b 	mov  %i3, %o3
4000ad8c:	80 a7 20 00 	cmp  %i4, 0
4000ad90:	32 80 00 02 	bne,a   4000ad98 <readDmaChannelTaskStatus+0x28>
4000ad94:	d0 27 00 00 	st  %o0, [ %i4 ]
4000ad98:	b0 0a 20 0f 	and  %o0, 0xf, %i0
4000ad9c:	81 c7 e0 08 	ret 
4000ada0:	81 e8 00 00 	restore 

4000ada4 <closeDmaChannelTask>:
4000ada4:	81 c3 e0 08 	retl 
4000ada8:	01 00 00 00 	nop 

4000adac <enableThreadCommandDaemon>:
4000adac:	9d e3 bf a0 	save  %sp, -96, %sp
4000adb0:	90 10 00 18 	mov  %i0, %o0
4000adb4:	92 10 00 19 	mov  %i1, %o1
4000adb8:	94 10 00 1a 	mov  %i2, %o2
4000adbc:	96 10 00 1b 	mov  %i3, %o3
4000adc0:	7f ff fd 34 	call  4000a290 <readFromEngineConfigRegister>
4000adc4:	98 10 20 00 	clr  %o4
4000adc8:	80 8a 20 80 	btst  0x80, %o0
4000adcc:	22 bf ff fa 	be,a   4000adb4 <enableThreadCommandDaemon+0x8>
4000add0:	90 10 00 18 	mov  %i0, %o0
4000add4:	ba 12 20 10 	or  %o0, 0x10, %i5
4000add8:	7f ff fd 23 	call  4000a264 <writeToEngineConfigRegister>
4000addc:	99 e8 20 00 	restore  %g0, 0, %o4

4000ade0 <enableDmaCommandDaemon>:
4000ade0:	81 c3 e0 08 	retl 
4000ade4:	01 00 00 00 	nop 

4000ade8 <decodeRetireMessage>:
4000ade8:	83 32 20 1c 	srl  %o0, 0x1c, %g1
4000adec:	c2 2a 40 00 	stb  %g1, [ %o1 ]
4000adf0:	83 32 20 1a 	srl  %o0, 0x1a, %g1
4000adf4:	82 08 60 01 	and  %g1, 1, %g1
4000adf8:	c2 2a 80 00 	stb  %g1, [ %o2 ]
4000adfc:	83 32 20 18 	srl  %o0, 0x18, %g1
4000ae00:	82 08 60 03 	and  %g1, 3, %g1
4000ae04:	c2 2a c0 00 	stb  %g1, [ %o3 ]
4000ae08:	83 32 20 10 	srl  %o0, 0x10, %g1
4000ae0c:	c2 2b 00 00 	stb  %g1, [ %o4 ]
4000ae10:	81 c3 e0 08 	retl 
4000ae14:	d0 33 40 00 	sth  %o0, [ %o5 ]

4000ae18 <readGlobalTickTimer>:
4000ae18:	9d e3 bf 98 	save  %sp, -104, %sp
4000ae1c:	b8 10 20 00 	clr  %i4
4000ae20:	90 10 00 18 	mov  %i0, %o0
4000ae24:	92 10 00 19 	mov  %i1, %o1
4000ae28:	94 10 00 1a 	mov  %i2, %o2
4000ae2c:	96 10 00 1b 	mov  %i3, %o3
4000ae30:	7f ff fd 35 	call  4000a304 <acquireEngineThread>
4000ae34:	ba 10 20 00 	clr  %i5
4000ae38:	80 a2 20 00 	cmp  %o0, 0
4000ae3c:	02 80 00 05 	be  4000ae50 <readGlobalTickTimer+0x38>
4000ae40:	92 10 00 19 	mov  %i1, %o1
4000ae44:	b0 10 00 1c 	mov  %i4, %i0
4000ae48:	81 c7 e0 08 	ret 
4000ae4c:	93 e8 00 1d 	restore  %g0, %i5, %o1
4000ae50:	94 10 00 1a 	mov  %i2, %o2
4000ae54:	96 10 00 1b 	mov  %i3, %o3
4000ae58:	98 10 20 00 	clr  %o4
4000ae5c:	7f ff fd 0d 	call  4000a290 <readFromEngineConfigRegister>
4000ae60:	90 10 00 18 	mov  %i0, %o0
4000ae64:	83 2e 60 02 	sll  %i1, 2, %g1
4000ae68:	86 0a 20 f8 	and  %o0, 0xf8, %g3
4000ae6c:	89 2e e0 0e 	sll  %i3, 0xe, %g4
4000ae70:	82 00 40 1a 	add  %g1, %i2, %g1
4000ae74:	88 11 2a 01 	or  %g4, 0xa01, %g4
4000ae78:	83 28 60 02 	sll  %g1, 2, %g1
4000ae7c:	82 00 40 1b 	add  %g1, %i3, %g1
4000ae80:	82 00 60 06 	add  %g1, 6, %g1
4000ae84:	83 28 60 02 	sll  %g1, 2, %g1
4000ae88:	82 06 00 01 	add  %i0, %g1, %g1
4000ae8c:	c4 00 60 04 	ld  [ %g1 + 4 ], %g2
4000ae90:	ba 00 a0 01 	add  %g2, 1, %i5
4000ae94:	85 28 a0 10 	sll  %g2, 0x10, %g2
4000ae98:	fa 20 60 04 	st  %i5, [ %g1 + 4 ]
4000ae9c:	84 11 00 02 	or  %g4, %g2, %g2
4000aea0:	84 10 80 03 	or  %g2, %g3, %g2
4000aea4:	9a 10 20 00 	clr  %o5
4000aea8:	c4 23 a0 5c 	st  %g2, [ %sp + 0x5c ]
4000aeac:	98 10 00 1b 	mov  %i3, %o4
4000aeb0:	90 10 00 18 	mov  %i0, %o0
4000aeb4:	92 10 20 00 	clr  %o1
4000aeb8:	94 10 00 19 	mov  %i1, %o2
4000aebc:	40 00 00 24 	call  4000af4c <writeToConfigRegister>
4000aec0:	96 10 00 1a 	mov  %i2, %o3
4000aec4:	90 10 00 18 	mov  %i0, %o0
4000aec8:	92 10 00 19 	mov  %i1, %o1
4000aecc:	94 10 00 1a 	mov  %i2, %o2
4000aed0:	7f ff fd 1b 	call  4000a33c <waitOnEngineThreadCompletion>
4000aed4:	96 10 00 1b 	mov  %i3, %o3
4000aed8:	92 10 00 19 	mov  %i1, %o1
4000aedc:	94 10 00 1a 	mov  %i2, %o2
4000aee0:	96 10 00 1b 	mov  %i3, %o3
4000aee4:	98 10 20 03 	mov  3, %o4
4000aee8:	7f ff fc ea 	call  4000a290 <readFromEngineConfigRegister>
4000aeec:	90 10 00 18 	mov  %i0, %o0
4000aef0:	92 10 00 19 	mov  %i1, %o1
4000aef4:	a0 10 00 08 	mov  %o0, %l0
4000aef8:	94 10 00 1a 	mov  %i2, %o2
4000aefc:	90 10 00 18 	mov  %i0, %o0
4000af00:	96 10 00 1b 	mov  %i3, %o3
4000af04:	7f ff fc e3 	call  4000a290 <readFromEngineConfigRegister>
4000af08:	98 10 20 04 	mov  4, %o4
4000af0c:	86 10 20 00 	clr  %g3
4000af10:	92 10 00 08 	mov  %o0, %o1
4000af14:	90 10 20 00 	clr  %o0
4000af18:	ba 10 c0 09 	or  %g3, %o1, %i5
4000af1c:	b8 14 00 08 	or  %l0, %o0, %i4
4000af20:	90 10 00 18 	mov  %i0, %o0
4000af24:	92 10 00 19 	mov  %i1, %o1
4000af28:	94 10 00 1a 	mov  %i2, %o2
4000af2c:	7f ff fc e8 	call  4000a2cc <releaseEngineThread>
4000af30:	96 10 00 1b 	mov  %i3, %o3
4000af34:	80 a2 20 00 	cmp  %o0, 0
4000af38:	32 bf ff fb 	bne,a   4000af24 <readGlobalTickTimer+0x10c>
4000af3c:	90 10 00 18 	mov  %i0, %o0
4000af40:	b0 10 00 1c 	mov  %i4, %i0
4000af44:	81 c7 e0 08 	ret 
4000af48:	93 e8 00 1d 	restore  %g0, %i5, %o1

4000af4c <writeToConfigRegister>:
4000af4c:	95 2a a0 09 	sll  %o2, 9, %o2
4000af50:	97 2a e0 07 	sll  %o3, 7, %o3
4000af54:	80 a2 60 00 	cmp  %o1, 0
4000af58:	02 80 00 03 	be  4000af64 <writeToConfigRegister+0x18>
4000af5c:	03 3f ff 80 	sethi  %hi(0xfffe0000), %g1
4000af60:	03 3f ff 88 	sethi  %hi(0xfffe2000), %g1
4000af64:	94 02 80 01 	add  %o2, %g1, %o2
4000af68:	99 2b 20 05 	sll  %o4, 5, %o4
4000af6c:	96 02 80 0b 	add  %o2, %o3, %o3
4000af70:	9b 2b 60 02 	sll  %o5, 2, %o5
4000af74:	98 02 c0 0c 	add  %o3, %o4, %o4
4000af78:	9a 0b 60 1f 	and  %o5, 0x1f, %o5
4000af7c:	c2 03 a0 5c 	ld  [ %sp + 0x5c ], %g1
4000af80:	9a 03 00 0d 	add  %o4, %o5, %o5
4000af84:	81 c3 e0 08 	retl 
4000af88:	c2 23 40 00 	st  %g1, [ %o5 ]

4000af8c <readFromConfigRegister>:
4000af8c:	95 2a a0 09 	sll  %o2, 9, %o2
4000af90:	97 2a e0 07 	sll  %o3, 7, %o3
4000af94:	80 a2 60 00 	cmp  %o1, 0
4000af98:	02 80 00 03 	be  4000afa4 <readFromConfigRegister+0x18>
4000af9c:	03 3f ff 80 	sethi  %hi(0xfffe0000), %g1
4000afa0:	03 3f ff 88 	sethi  %hi(0xfffe2000), %g1
4000afa4:	94 02 80 01 	add  %o2, %g1, %o2
4000afa8:	99 2b 20 05 	sll  %o4, 5, %o4
4000afac:	96 02 80 0b 	add  %o2, %o3, %o3
4000afb0:	9b 2b 60 02 	sll  %o5, 2, %o5
4000afb4:	98 02 c0 0c 	add  %o3, %o4, %o4
4000afb8:	9a 0b 60 1f 	and  %o5, 0x1f, %o5
4000afbc:	9a 03 00 0d 	add  %o4, %o5, %o5
4000afc0:	81 c3 e0 08 	retl 
4000afc4:	d0 03 40 00 	ld  [ %o5 ], %o0

4000afc8 <writeDwordToDataMem>:
4000afc8:	92 02 60 40 	add  %o1, 0x40, %o1
4000afcc:	93 2a 60 02 	sll  %o1, 2, %o1
4000afd0:	da 23 a0 58 	st  %o5, [ %sp + 0x58 ]
4000afd4:	99 2b 20 03 	sll  %o4, 3, %o4
4000afd8:	94 02 40 0a 	add  %o1, %o2, %o2
4000afdc:	03 00 00 3f 	sethi  %hi(0xfc00), %g1
4000afe0:	93 2a a0 10 	sll  %o2, 0x10, %o1
4000afe4:	82 10 63 ff 	or  %g1, 0x3ff, %g1
4000afe8:	c4 1b a0 58 	ldd  [ %sp + 0x58 ], %g2
4000afec:	98 0b 00 01 	and  %o4, %g1, %o4
4000aff0:	81 c3 e0 08 	retl 
4000aff4:	c4 3b 00 09 	std  %g2, [ %o4 + %o1 ]

4000aff8 <readDwordFromDataMem>:
4000aff8:	92 02 60 40 	add  %o1, 0x40, %o1
4000affc:	03 00 00 3f 	sethi  %hi(0xfc00), %g1
4000b000:	93 2a 60 02 	sll  %o1, 2, %o1
4000b004:	82 10 63 ff 	or  %g1, 0x3ff, %g1
4000b008:	94 02 40 0a 	add  %o1, %o2, %o2
4000b00c:	99 2b 20 03 	sll  %o4, 3, %o4
4000b010:	95 2a a0 10 	sll  %o2, 0x10, %o2
4000b014:	98 0b 00 01 	and  %o4, %g1, %o4
4000b018:	82 03 00 0a 	add  %o4, %o2, %g1
4000b01c:	d0 03 00 0a 	ld  [ %o4 + %o2 ], %o0
4000b020:	81 c3 e0 08 	retl 
4000b024:	d2 00 60 04 	ld  [ %g1 + 4 ], %o1

4000b028 <generic_vectored_isr>:
4000b028:	a9 50 00 00 	rd  %wim, %l4
4000b02c:	a9 35 00 10 	srl  %l4, %l0, %l4
4000b030:	80 a5 20 01 	cmp  %l4, 1
4000b034:	12 80 00 13 	bne  4000b080 <continue_with_valid_T>
4000b038:	01 00 00 00 	nop 

4000b03c <handle_invalid_T>:
4000b03c:	a7 50 00 00 	rd  %wim, %l3
4000b040:	a9 2c e0 07 	sll  %l3, 7, %l4
4000b044:	a7 34 e0 01 	srl  %l3, 1, %l3
4000b048:	a6 14 c0 14 	or  %l3, %l4, %l3
4000b04c:	a6 0c e0 ff 	and  %l3, 0xff, %l3
4000b050:	81 90 00 00 	mov  %g0, %wim
4000b054:	81 e0 00 00 	save 
4000b058:	e0 3b a0 00 	std  %l0, [ %sp ]
4000b05c:	e4 3b a0 08 	std  %l2, [ %sp + 8 ]
4000b060:	e8 3b a0 10 	std  %l4, [ %sp + 0x10 ]
4000b064:	ec 3b a0 18 	std  %l6, [ %sp + 0x18 ]
4000b068:	f0 3b a0 20 	std  %i0, [ %sp + 0x20 ]
4000b06c:	f4 3b a0 28 	std  %i2, [ %sp + 0x28 ]
4000b070:	f8 3b a0 30 	std  %i4, [ %sp + 0x30 ]
4000b074:	fc 3b a0 38 	std  %fp, [ %sp + 0x38 ]
4000b078:	81 e8 00 00 	restore 
4000b07c:	81 90 00 13 	mov  %l3, %wim

4000b080 <continue_with_valid_T>:
4000b080:	9c 27 a0 60 	sub  %fp, 0x60, %sp
4000b084:	e0 23 80 00 	st  %l0, [ %sp ]
4000b088:	c2 23 a0 04 	st  %g1, [ %sp + 4 ]
4000b08c:	c4 3b a0 08 	std  %g2, [ %sp + 8 ]
4000b090:	c8 3b a0 10 	std  %g4, [ %sp + 0x10 ]
4000b094:	cc 3b a0 18 	std  %g6, [ %sp + 0x18 ]
4000b098:	e2 23 a0 20 	st  %l1, [ %sp + 0x20 ]
4000b09c:	e4 23 a0 24 	st  %l2, [ %sp + 0x24 ]
4000b0a0:	af 40 00 00 	rd  %y, %l7
4000b0a4:	ee 23 a0 28 	st  %l7, [ %sp + 0x28 ]
4000b0a8:	9c 23 a0 60 	sub  %sp, 0x60, %sp
4000b0ac:	91 58 00 00 	rd  %tbr, %o0
4000b0b0:	a7 32 20 04 	srl  %o0, 4, %l3
4000b0b4:	a6 0c e0 0f 	and  %l3, 0xf, %l3
4000b0b8:	a6 a4 e0 0f 	subcc  %l3, 0xf, %l3
4000b0bc:	02 80 00 05 	be  4000b0d0 <continue_after_enabling_traps_or_nmi>
4000b0c0:	01 00 00 00 	nop 
4000b0c4:	ae 14 20 20 	or  %l0, 0x20, %l7
4000b0c8:	ae 15 ef 00 	or  %l7, 0xf00, %l7
4000b0cc:	81 88 00 17 	mov  %l7, %psr

4000b0d0 <continue_after_enabling_traps_or_nmi>:
4000b0d0:	7f ff ed 5a 	call  40006638 <ajit_generic_interrupt_handler>
4000b0d4:	01 00 00 00 	nop 

4000b0d8 <prepare_window_for_rett>:
4000b0d8:	81 e8 00 00 	restore 
4000b0dc:	81 e0 00 00 	save 

4000b0e0 <recover_and_leave>:
4000b0e0:	9c 03 a0 60 	add  %sp, 0x60, %sp
4000b0e4:	ee 03 80 00 	ld  [ %sp ], %l7
4000b0e8:	81 88 00 17 	mov  %l7, %psr
4000b0ec:	c2 03 a0 04 	ld  [ %sp + 4 ], %g1
4000b0f0:	c4 1b a0 08 	ldd  [ %sp + 8 ], %g2
4000b0f4:	c8 1b a0 10 	ldd  [ %sp + 0x10 ], %g4
4000b0f8:	cc 1b a0 18 	ldd  [ %sp + 0x18 ], %g6
4000b0fc:	e2 03 a0 20 	ld  [ %sp + 0x20 ], %l1
4000b100:	e4 03 a0 24 	ld  [ %sp + 0x24 ], %l2
4000b104:	ee 03 a0 28 	ld  [ %sp + 0x28 ], %l7
4000b108:	81 80 00 17 	mov  %l7, %y

4000b10c <jmpl_and_return>:
4000b10c:	81 c4 40 00 	jmp  %l1
4000b110:	81 cc 80 00 	rett  %l2
4000b114:	01 00 00 00 	nop 

4000b118 <generic_vectored_sw_trap>:
4000b118:	a9 50 00 00 	rd  %wim, %l4
4000b11c:	a9 35 00 10 	srl  %l4, %l0, %l4
4000b120:	80 a5 20 01 	cmp  %l4, 1
4000b124:	12 80 00 13 	bne  4000b170 <continue_with_valid_T>
4000b128:	01 00 00 00 	nop 

4000b12c <handle_invalid_T>:
4000b12c:	a7 50 00 00 	rd  %wim, %l3
4000b130:	a9 2c e0 07 	sll  %l3, 7, %l4
4000b134:	a7 34 e0 01 	srl  %l3, 1, %l3
4000b138:	a6 14 c0 14 	or  %l3, %l4, %l3
4000b13c:	a6 0c e0 ff 	and  %l3, 0xff, %l3
4000b140:	81 90 00 00 	mov  %g0, %wim
4000b144:	81 e0 00 00 	save 
4000b148:	e0 3b a0 00 	std  %l0, [ %sp ]
4000b14c:	e4 3b a0 08 	std  %l2, [ %sp + 8 ]
4000b150:	e8 3b a0 10 	std  %l4, [ %sp + 0x10 ]
4000b154:	ec 3b a0 18 	std  %l6, [ %sp + 0x18 ]
4000b158:	f0 3b a0 20 	std  %i0, [ %sp + 0x20 ]
4000b15c:	f4 3b a0 28 	std  %i2, [ %sp + 0x28 ]
4000b160:	f8 3b a0 30 	std  %i4, [ %sp + 0x30 ]
4000b164:	fc 3b a0 38 	std  %fp, [ %sp + 0x38 ]
4000b168:	81 e8 00 00 	restore 
4000b16c:	81 90 00 13 	mov  %l3, %wim

4000b170 <continue_with_valid_T>:
4000b170:	9c 27 a0 60 	sub  %fp, 0x60, %sp
4000b174:	e0 23 80 00 	st  %l0, [ %sp ]
4000b178:	c2 23 a0 04 	st  %g1, [ %sp + 4 ]
4000b17c:	c4 3b a0 08 	std  %g2, [ %sp + 8 ]
4000b180:	c8 3b a0 10 	std  %g4, [ %sp + 0x10 ]
4000b184:	cc 3b a0 18 	std  %g6, [ %sp + 0x18 ]
4000b188:	e2 23 a0 20 	st  %l1, [ %sp + 0x20 ]
4000b18c:	e4 23 a0 24 	st  %l2, [ %sp + 0x24 ]
4000b190:	af 40 00 00 	rd  %y, %l7
4000b194:	ee 23 a0 28 	st  %l7, [ %sp + 0x28 ]
4000b198:	9c 23 a0 60 	sub  %sp, 0x60, %sp
4000b19c:	ae 14 20 20 	or  %l0, 0x20, %l7
4000b1a0:	ae 15 ef 00 	or  %l7, 0xf00, %l7
4000b1a4:	81 88 00 17 	mov  %l7, %psr
4000b1a8:	91 58 00 00 	rd  %tbr, %o0
4000b1ac:	81 e8 00 00 	restore 
4000b1b0:	90 10 00 18 	mov  %i0, %o0
4000b1b4:	92 10 00 19 	mov  %i1, %o1
4000b1b8:	94 10 00 1a 	mov  %i2, %o2
4000b1bc:	81 e0 00 00 	save 
4000b1c0:	92 10 00 18 	mov  %i0, %o1
4000b1c4:	94 10 00 19 	mov  %i1, %o2
4000b1c8:	96 10 00 1a 	mov  %i2, %o3
4000b1cc:	7f ff ec a9 	call  40006470 <ajit_generic_sw_trap_handler>
4000b1d0:	01 00 00 00 	nop 
4000b1d4:	81 e8 00 00 	restore 
4000b1d8:	81 e0 00 00 	save 

4000b1dc <recover_and_leave>:
4000b1dc:	9c 03 a0 60 	add  %sp, 0x60, %sp
4000b1e0:	ee 03 80 00 	ld  [ %sp ], %l7
4000b1e4:	81 88 00 17 	mov  %l7, %psr
4000b1e8:	c2 03 a0 04 	ld  [ %sp + 4 ], %g1
4000b1ec:	c4 1b a0 08 	ldd  [ %sp + 8 ], %g2
4000b1f0:	c8 1b a0 10 	ldd  [ %sp + 0x10 ], %g4
4000b1f4:	cc 1b a0 18 	ldd  [ %sp + 0x18 ], %g6
4000b1f8:	e2 03 a0 20 	ld  [ %sp + 0x20 ], %l1
4000b1fc:	e4 03 a0 24 	ld  [ %sp + 0x24 ], %l2
4000b200:	ee 03 a0 28 	ld  [ %sp + 0x28 ], %l7
4000b204:	81 80 00 17 	mov  %l7, %y

4000b208 <jmpl_and_return>:
4000b208:	81 c4 80 00 	jmp  %l2
4000b20c:	81 cc a0 04 	rett  %l2 + 4
4000b210:	01 00 00 00 	nop 
4000b214:	00 00 00 00 	unimp  0

4000b218 <generic_read_asr>:
4000b218:	81 e8 00 00 	restore 
4000b21c:	80 a2 20 1f 	cmp  %o0, 0x1f
4000b220:	02 80 00 62 	be  4000b3a8 <read_31>
4000b224:	01 00 00 00 	nop 
4000b228:	80 a2 20 1e 	cmp  %o0, 0x1e
4000b22c:	02 80 00 62 	be  4000b3b4 <read_30>
4000b230:	01 00 00 00 	nop 
4000b234:	80 a2 20 1d 	cmp  %o0, 0x1d
4000b238:	02 80 00 62 	be  4000b3c0 <read_29>
4000b23c:	01 00 00 00 	nop 
4000b240:	80 a2 20 1c 	cmp  %o0, 0x1c
4000b244:	02 80 00 62 	be  4000b3cc <read_28>
4000b248:	01 00 00 00 	nop 
4000b24c:	80 a2 20 1b 	cmp  %o0, 0x1b
4000b250:	02 80 00 62 	be  4000b3d8 <read_27>
4000b254:	01 00 00 00 	nop 
4000b258:	80 a2 20 1a 	cmp  %o0, 0x1a
4000b25c:	02 80 00 62 	be  4000b3e4 <read_26>
4000b260:	01 00 00 00 	nop 
4000b264:	80 a2 20 19 	cmp  %o0, 0x19
4000b268:	02 80 00 62 	be  4000b3f0 <read_25>
4000b26c:	01 00 00 00 	nop 
4000b270:	80 a2 20 18 	cmp  %o0, 0x18
4000b274:	02 80 00 62 	be  4000b3fc <read_24>
4000b278:	01 00 00 00 	nop 
4000b27c:	80 a2 20 17 	cmp  %o0, 0x17
4000b280:	02 80 00 62 	be  4000b408 <read_23>
4000b284:	01 00 00 00 	nop 
4000b288:	80 a2 20 16 	cmp  %o0, 0x16
4000b28c:	02 80 00 62 	be  4000b414 <read_22>
4000b290:	01 00 00 00 	nop 
4000b294:	80 a2 20 15 	cmp  %o0, 0x15
4000b298:	02 80 00 62 	be  4000b420 <read_21>
4000b29c:	01 00 00 00 	nop 
4000b2a0:	80 a2 20 14 	cmp  %o0, 0x14
4000b2a4:	02 80 00 62 	be  4000b42c <read_20>
4000b2a8:	01 00 00 00 	nop 
4000b2ac:	80 a2 20 13 	cmp  %o0, 0x13
4000b2b0:	02 80 00 62 	be  4000b438 <read_19>
4000b2b4:	01 00 00 00 	nop 
4000b2b8:	80 a2 20 12 	cmp  %o0, 0x12
4000b2bc:	02 80 00 62 	be  4000b444 <read_18>
4000b2c0:	01 00 00 00 	nop 
4000b2c4:	80 a2 20 11 	cmp  %o0, 0x11
4000b2c8:	02 80 00 62 	be  4000b450 <read_17>
4000b2cc:	01 00 00 00 	nop 
4000b2d0:	80 a2 20 10 	cmp  %o0, 0x10
4000b2d4:	02 80 00 62 	be  4000b45c <read_16>
4000b2d8:	01 00 00 00 	nop 
4000b2dc:	80 a2 20 0f 	cmp  %o0, 0xf
4000b2e0:	02 80 00 62 	be  4000b468 <read_15>
4000b2e4:	01 00 00 00 	nop 
4000b2e8:	80 a2 20 0e 	cmp  %o0, 0xe
4000b2ec:	02 80 00 62 	be  4000b474 <read_14>
4000b2f0:	01 00 00 00 	nop 
4000b2f4:	80 a2 20 0d 	cmp  %o0, 0xd
4000b2f8:	02 80 00 62 	be  4000b480 <read_13>
4000b2fc:	01 00 00 00 	nop 
4000b300:	80 a2 20 0c 	cmp  %o0, 0xc
4000b304:	02 80 00 62 	be  4000b48c <read_12>
4000b308:	01 00 00 00 	nop 
4000b30c:	80 a2 20 0b 	cmp  %o0, 0xb
4000b310:	02 80 00 62 	be  4000b498 <read_11>
4000b314:	01 00 00 00 	nop 
4000b318:	80 a2 20 0a 	cmp  %o0, 0xa
4000b31c:	02 80 00 62 	be  4000b4a4 <read_10>
4000b320:	01 00 00 00 	nop 
4000b324:	80 a2 20 09 	cmp  %o0, 9
4000b328:	02 80 00 62 	be  4000b4b0 <read_9>
4000b32c:	01 00 00 00 	nop 
4000b330:	80 a2 20 08 	cmp  %o0, 8
4000b334:	02 80 00 62 	be  4000b4bc <read_8>
4000b338:	01 00 00 00 	nop 
4000b33c:	80 a2 20 07 	cmp  %o0, 7
4000b340:	02 80 00 62 	be  4000b4c8 <read_7>
4000b344:	01 00 00 00 	nop 
4000b348:	80 a2 20 06 	cmp  %o0, 6
4000b34c:	02 80 00 62 	be  4000b4d4 <read_6>
4000b350:	01 00 00 00 	nop 
4000b354:	80 a2 20 05 	cmp  %o0, 5
4000b358:	02 80 00 62 	be  4000b4e0 <read_5>
4000b35c:	01 00 00 00 	nop 
4000b360:	80 a2 20 04 	cmp  %o0, 4
4000b364:	02 80 00 62 	be  4000b4ec <read_4>
4000b368:	01 00 00 00 	nop 
4000b36c:	80 a2 20 03 	cmp  %o0, 3
4000b370:	02 80 00 62 	be  4000b4f8 <read_3>
4000b374:	01 00 00 00 	nop 
4000b378:	80 a2 20 02 	cmp  %o0, 2
4000b37c:	02 80 00 62 	be  4000b504 <read_2>
4000b380:	01 00 00 00 	nop 
4000b384:	80 a2 20 01 	cmp  %o0, 1
4000b388:	02 80 00 62 	be  4000b510 <read_1>
4000b38c:	01 00 00 00 	nop 
4000b390:	80 a2 20 00 	cmp  %o0, 0
4000b394:	02 80 00 62 	be  4000b51c <read_0>
4000b398:	01 00 00 00 	nop 
4000b39c:	90 10 00 00 	mov  %g0, %o0
4000b3a0:	10 80 00 62 	b  4000b528 <ret_block>
4000b3a4:	01 00 00 00 	nop 

4000b3a8 <read_31>:
4000b3a8:	91 47 c0 00 	rd  %asr31, %o0
4000b3ac:	10 80 00 5f 	b  4000b528 <ret_block>
4000b3b0:	01 00 00 00 	nop 

4000b3b4 <read_30>:
4000b3b4:	91 47 80 00 	rd  %asr30, %o0
4000b3b8:	10 80 00 5c 	b  4000b528 <ret_block>
4000b3bc:	01 00 00 00 	nop 

4000b3c0 <read_29>:
4000b3c0:	91 47 40 00 	rd  %asr29, %o0
4000b3c4:	10 80 00 59 	b  4000b528 <ret_block>
4000b3c8:	01 00 00 00 	nop 

4000b3cc <read_28>:
4000b3cc:	91 47 00 00 	rd  %asr28, %o0
4000b3d0:	10 80 00 56 	b  4000b528 <ret_block>
4000b3d4:	01 00 00 00 	nop 

4000b3d8 <read_27>:
4000b3d8:	91 46 c0 00 	rd  %asr27, %o0
4000b3dc:	10 80 00 53 	b  4000b528 <ret_block>
4000b3e0:	01 00 00 00 	nop 

4000b3e4 <read_26>:
4000b3e4:	91 46 80 00 	rd  %asr26, %o0
4000b3e8:	10 80 00 50 	b  4000b528 <ret_block>
4000b3ec:	01 00 00 00 	nop 

4000b3f0 <read_25>:
4000b3f0:	91 46 40 00 	rd  %asr25, %o0
4000b3f4:	10 80 00 4d 	b  4000b528 <ret_block>
4000b3f8:	01 00 00 00 	nop 

4000b3fc <read_24>:
4000b3fc:	91 46 00 00 	rd  %asr24, %o0
4000b400:	10 80 00 4a 	b  4000b528 <ret_block>
4000b404:	01 00 00 00 	nop 

4000b408 <read_23>:
4000b408:	91 45 c0 00 	rd  %asr23, %o0
4000b40c:	10 80 00 47 	b  4000b528 <ret_block>
4000b410:	01 00 00 00 	nop 

4000b414 <read_22>:
4000b414:	91 45 80 00 	rd  %asr22, %o0
4000b418:	10 80 00 44 	b  4000b528 <ret_block>
4000b41c:	01 00 00 00 	nop 

4000b420 <read_21>:
4000b420:	91 45 40 00 	rd  %asr21, %o0
4000b424:	10 80 00 41 	b  4000b528 <ret_block>
4000b428:	01 00 00 00 	nop 

4000b42c <read_20>:
4000b42c:	91 45 00 00 	rd  %asr20, %o0
4000b430:	10 80 00 3e 	b  4000b528 <ret_block>
4000b434:	01 00 00 00 	nop 

4000b438 <read_19>:
4000b438:	91 44 c0 00 	rd  %asr19, %o0
4000b43c:	10 80 00 3b 	b  4000b528 <ret_block>
4000b440:	01 00 00 00 	nop 

4000b444 <read_18>:
4000b444:	91 44 80 00 	rd  %asr18, %o0
4000b448:	10 80 00 38 	b  4000b528 <ret_block>
4000b44c:	01 00 00 00 	nop 

4000b450 <read_17>:
4000b450:	91 44 40 00 	rd  %asr17, %o0
4000b454:	10 80 00 35 	b  4000b528 <ret_block>
4000b458:	01 00 00 00 	nop 

4000b45c <read_16>:
4000b45c:	91 44 00 00 	rd  %asr16, %o0
4000b460:	10 80 00 32 	b  4000b528 <ret_block>
4000b464:	01 00 00 00 	nop 

4000b468 <read_15>:
4000b468:	91 43 c0 00 	rd  %asr15, %o0
4000b46c:	10 80 00 2f 	b  4000b528 <ret_block>
4000b470:	01 00 00 00 	nop 

4000b474 <read_14>:
4000b474:	91 43 80 00 	rd  %asr14, %o0
4000b478:	10 80 00 2c 	b  4000b528 <ret_block>
4000b47c:	01 00 00 00 	nop 

4000b480 <read_13>:
4000b480:	91 43 40 00 	rd  %asr13, %o0
4000b484:	10 80 00 29 	b  4000b528 <ret_block>
4000b488:	01 00 00 00 	nop 

4000b48c <read_12>:
4000b48c:	91 43 00 00 	rd  %asr12, %o0
4000b490:	10 80 00 26 	b  4000b528 <ret_block>
4000b494:	01 00 00 00 	nop 

4000b498 <read_11>:
4000b498:	91 42 c0 00 	rd  %asr11, %o0
4000b49c:	10 80 00 23 	b  4000b528 <ret_block>
4000b4a0:	01 00 00 00 	nop 

4000b4a4 <read_10>:
4000b4a4:	91 42 80 00 	rd  %asr10, %o0
4000b4a8:	10 80 00 20 	b  4000b528 <ret_block>
4000b4ac:	01 00 00 00 	nop 

4000b4b0 <read_9>:
4000b4b0:	91 42 40 00 	rd  %asr9, %o0
4000b4b4:	10 80 00 1d 	b  4000b528 <ret_block>
4000b4b8:	01 00 00 00 	nop 

4000b4bc <read_8>:
4000b4bc:	91 42 00 00 	rd  %asr8, %o0
4000b4c0:	10 80 00 1a 	b  4000b528 <ret_block>
4000b4c4:	01 00 00 00 	nop 

4000b4c8 <read_7>:
4000b4c8:	91 41 c0 00 	rd  %asr7, %o0
4000b4cc:	10 80 00 17 	b  4000b528 <ret_block>
4000b4d0:	01 00 00 00 	nop 

4000b4d4 <read_6>:
4000b4d4:	91 41 80 00 	rd  %asr6, %o0
4000b4d8:	10 80 00 14 	b  4000b528 <ret_block>
4000b4dc:	01 00 00 00 	nop 

4000b4e0 <read_5>:
4000b4e0:	91 41 40 00 	rd  %asr5, %o0
4000b4e4:	10 80 00 11 	b  4000b528 <ret_block>
4000b4e8:	01 00 00 00 	nop 

4000b4ec <read_4>:
4000b4ec:	91 41 00 00 	rd  %asr4, %o0
4000b4f0:	10 80 00 0e 	b  4000b528 <ret_block>
4000b4f4:	01 00 00 00 	nop 

4000b4f8 <read_3>:
4000b4f8:	91 40 c0 00 	rd  %asr3, %o0
4000b4fc:	10 80 00 0b 	b  4000b528 <ret_block>
4000b500:	01 00 00 00 	nop 

4000b504 <read_2>:
4000b504:	91 40 80 00 	rd  %asr2, %o0
4000b508:	10 80 00 08 	b  4000b528 <ret_block>
4000b50c:	01 00 00 00 	nop 

4000b510 <read_1>:
4000b510:	91 40 40 00 	rd  %asr1, %o0
4000b514:	10 80 00 05 	b  4000b528 <ret_block>
4000b518:	01 00 00 00 	nop 

4000b51c <read_0>:
4000b51c:	91 40 00 00 	rd  %y, %o0
4000b520:	10 80 00 02 	b  4000b528 <ret_block>
4000b524:	01 00 00 00 	nop 

4000b528 <ret_block>:
4000b528:	81 e0 00 00 	save 
4000b52c:	81 c4 80 00 	jmp  %l2
4000b530:	81 cc a0 04 	rett  %l2 + 4
4000b534:	01 00 00 00 	nop 

4000b538 <ajit_sys_read_asr>:
4000b538:	91 d0 20 10 	ta  0x10
4000b53c:	01 00 00 00 	nop 
4000b540:	81 c3 e0 08 	retl 
4000b544:	01 00 00 00 	nop 

4000b548 <ajit_sys_go_to_supervisor_mode>:
4000b548:	91 d0 20 11 	ta  0x11
4000b54c:	01 00 00 00 	nop 
4000b550:	81 c3 e0 08 	retl 
4000b554:	01 00 00 00 	nop 

4000b558 <generic_sys_go_to_supervisor>:
4000b558:	ab 48 00 00 	rd  %psr, %l5
4000b55c:	b1 2e 20 05 	sll  %i0, 5, %i0
4000b560:	b0 16 20 80 	or  %i0, 0x80, %i0
4000b564:	aa 15 40 18 	or  %l5, %i0, %l5
4000b568:	81 88 00 15 	mov  %l5, %psr
4000b56c:	81 c4 80 00 	jmp  %l2
4000b570:	81 e8 00 00 	restore 
4000b574:	01 00 00 00 	nop 
	...

4000b800 <page_table_setup>:
4000b800:	03 10 00 30 	sethi  %hi(0x4000c000), %g1
4000b804:	82 10 60 00 	mov  %g1, %g1	! 4000c000 <PAGE_TABLE_BASE>
4000b808:	88 10 28 00 	mov  0x800, %g4
4000b80c:	88 00 40 04 	add  %g1, %g4, %g4
4000b810:	89 31 20 04 	srl  %g4, 4, %g4
4000b814:	88 11 20 01 	or  %g4, 1, %g4
4000b818:	8a 10 2c 00 	mov  0xc00, %g5
4000b81c:	86 01 40 01 	add  %g5, %g1, %g3
4000b820:	c8 20 c0 00 	st  %g4, [ %g3 ]
4000b824:	88 10 21 00 	mov  0x100, %g4
4000b828:	88 00 40 04 	add  %g1, %g4, %g4
4000b82c:	89 31 20 04 	srl  %g4, 4, %g4
4000b830:	88 11 20 01 	or  %g4, 1, %g4
4000b834:	8a 10 29 00 	mov  0x900, %g5
4000b838:	86 01 40 01 	add  %g5, %g1, %g3
4000b83c:	c8 20 c0 00 	st  %g4, [ %g3 ]
4000b840:	88 10 20 00 	clr  %g4
4000b844:	88 00 40 04 	add  %g1, %g4, %g4
4000b848:	89 31 20 04 	srl  %g4, 4, %g4
4000b84c:	88 11 20 01 	or  %g4, 1, %g4
4000b850:	8a 10 21 00 	mov  0x100, %g5
4000b854:	86 01 40 01 	add  %g5, %g1, %g3
4000b858:	c8 20 c0 00 	st  %g4, [ %g3 ]
4000b85c:	05 01 00 00 	sethi  %hi(0x4000000), %g2
4000b860:	84 10 a0 8a 	or  %g2, 0x8a, %g2	! 400008a <__DYNAMIC+0x400008a>
4000b864:	8a 10 20 00 	clr  %g5
4000b868:	86 01 40 01 	add  %g5, %g1, %g3
4000b86c:	c4 20 c0 00 	st  %g2, [ %g3 ]
4000b870:	05 01 00 00 	sethi  %hi(0x4000000), %g2
4000b874:	84 10 a1 8a 	or  %g2, 0x18a, %g2	! 400018a <__DYNAMIC+0x400018a>
4000b878:	8a 10 20 04 	mov  4, %g5
4000b87c:	86 01 40 01 	add  %g5, %g1, %g3
4000b880:	c4 20 c0 00 	st  %g2, [ %g3 ]
4000b884:	05 01 00 00 	sethi  %hi(0x4000000), %g2
4000b888:	84 10 a2 8a 	or  %g2, 0x28a, %g2	! 400028a <__DYNAMIC+0x400028a>
4000b88c:	8a 10 20 08 	mov  8, %g5
4000b890:	86 01 40 01 	add  %g5, %g1, %g3
4000b894:	c4 20 c0 00 	st  %g2, [ %g3 ]
4000b898:	05 01 00 00 	sethi  %hi(0x4000000), %g2
4000b89c:	84 10 a3 8a 	or  %g2, 0x38a, %g2	! 400038a <__DYNAMIC+0x400038a>
4000b8a0:	8a 10 20 0c 	mov  0xc, %g5
4000b8a4:	86 01 40 01 	add  %g5, %g1, %g3
4000b8a8:	c4 20 c0 00 	st  %g2, [ %g3 ]
4000b8ac:	05 01 00 01 	sethi  %hi(0x4000400), %g2
4000b8b0:	84 10 a0 8a 	or  %g2, 0x8a, %g2	! 400048a <__DYNAMIC+0x400048a>
4000b8b4:	8a 10 20 10 	mov  0x10, %g5
4000b8b8:	86 01 40 01 	add  %g5, %g1, %g3
4000b8bc:	c4 20 c0 00 	st  %g2, [ %g3 ]
4000b8c0:	05 01 00 01 	sethi  %hi(0x4000400), %g2
4000b8c4:	84 10 a1 8a 	or  %g2, 0x18a, %g2	! 400058a <__DYNAMIC+0x400058a>
4000b8c8:	8a 10 20 14 	mov  0x14, %g5
4000b8cc:	86 01 40 01 	add  %g5, %g1, %g3
4000b8d0:	c4 20 c0 00 	st  %g2, [ %g3 ]
4000b8d4:	05 01 00 01 	sethi  %hi(0x4000400), %g2
4000b8d8:	84 10 a2 8a 	or  %g2, 0x28a, %g2	! 400068a <__DYNAMIC+0x400068a>
4000b8dc:	8a 10 20 18 	mov  0x18, %g5
4000b8e0:	86 01 40 01 	add  %g5, %g1, %g3
4000b8e4:	c4 20 c0 00 	st  %g2, [ %g3 ]
4000b8e8:	05 01 00 01 	sethi  %hi(0x4000400), %g2
4000b8ec:	84 10 a3 8a 	or  %g2, 0x38a, %g2	! 400078a <__DYNAMIC+0x400078a>
4000b8f0:	8a 10 20 1c 	mov  0x1c, %g5
4000b8f4:	86 01 40 01 	add  %g5, %g1, %g3
4000b8f8:	c4 20 c0 00 	st  %g2, [ %g3 ]
4000b8fc:	05 01 00 02 	sethi  %hi(0x4000800), %g2
4000b900:	84 10 a0 8a 	or  %g2, 0x8a, %g2	! 400088a <__DYNAMIC+0x400088a>
4000b904:	8a 10 20 20 	mov  0x20, %g5
4000b908:	86 01 40 01 	add  %g5, %g1, %g3
4000b90c:	c4 20 c0 00 	st  %g2, [ %g3 ]
4000b910:	05 01 00 02 	sethi  %hi(0x4000800), %g2
4000b914:	84 10 a1 8a 	or  %g2, 0x18a, %g2	! 400098a <__DYNAMIC+0x400098a>
4000b918:	8a 10 20 24 	mov  0x24, %g5
4000b91c:	86 01 40 01 	add  %g5, %g1, %g3
4000b920:	c4 20 c0 00 	st  %g2, [ %g3 ]
4000b924:	05 01 00 02 	sethi  %hi(0x4000800), %g2
4000b928:	84 10 a2 8a 	or  %g2, 0x28a, %g2	! 4000a8a <__DYNAMIC+0x4000a8a>
4000b92c:	8a 10 20 28 	mov  0x28, %g5
4000b930:	86 01 40 01 	add  %g5, %g1, %g3
4000b934:	c4 20 c0 00 	st  %g2, [ %g3 ]
4000b938:	05 01 00 02 	sethi  %hi(0x4000800), %g2
4000b93c:	84 10 a3 8a 	or  %g2, 0x38a, %g2	! 4000b8a <__DYNAMIC+0x4000b8a>
4000b940:	8a 10 20 2c 	mov  0x2c, %g5
4000b944:	86 01 40 01 	add  %g5, %g1, %g3
4000b948:	c4 20 c0 00 	st  %g2, [ %g3 ]
4000b94c:	05 01 00 03 	sethi  %hi(0x4000c00), %g2
4000b950:	84 10 a0 8a 	or  %g2, 0x8a, %g2	! 4000c8a <__DYNAMIC+0x4000c8a>
4000b954:	8a 10 20 30 	mov  0x30, %g5
4000b958:	86 01 40 01 	add  %g5, %g1, %g3
4000b95c:	c4 20 c0 00 	st  %g2, [ %g3 ]
4000b960:	05 01 00 03 	sethi  %hi(0x4000c00), %g2
4000b964:	84 10 a1 8a 	or  %g2, 0x18a, %g2	! 4000d8a <__DYNAMIC+0x4000d8a>
4000b968:	8a 10 20 34 	mov  0x34, %g5
4000b96c:	86 01 40 01 	add  %g5, %g1, %g3
4000b970:	c4 20 c0 00 	st  %g2, [ %g3 ]
4000b974:	05 01 00 03 	sethi  %hi(0x4000c00), %g2
4000b978:	84 10 a2 8a 	or  %g2, 0x28a, %g2	! 4000e8a <__DYNAMIC+0x4000e8a>
4000b97c:	8a 10 20 38 	mov  0x38, %g5
4000b980:	86 01 40 01 	add  %g5, %g1, %g3
4000b984:	c4 20 c0 00 	st  %g2, [ %g3 ]
4000b988:	05 01 00 03 	sethi  %hi(0x4000c00), %g2
4000b98c:	84 10 a3 8a 	or  %g2, 0x38a, %g2	! 4000f8a <__DYNAMIC+0x4000f8a>
4000b990:	8a 10 20 3c 	mov  0x3c, %g5
4000b994:	86 01 40 01 	add  %g5, %g1, %g3
4000b998:	c4 20 c0 00 	st  %g2, [ %g3 ]
4000b99c:	05 01 00 04 	sethi  %hi(0x4001000), %g2
4000b9a0:	84 10 a0 8a 	or  %g2, 0x8a, %g2	! 400108a <__DYNAMIC+0x400108a>
4000b9a4:	8a 10 20 40 	mov  0x40, %g5
4000b9a8:	86 01 40 01 	add  %g5, %g1, %g3
4000b9ac:	c4 20 c0 00 	st  %g2, [ %g3 ]
4000b9b0:	05 01 00 04 	sethi  %hi(0x4001000), %g2
4000b9b4:	84 10 a1 8a 	or  %g2, 0x18a, %g2	! 400118a <__DYNAMIC+0x400118a>
4000b9b8:	8a 10 20 44 	mov  0x44, %g5
4000b9bc:	86 01 40 01 	add  %g5, %g1, %g3
4000b9c0:	c4 20 c0 00 	st  %g2, [ %g3 ]
4000b9c4:	05 01 00 04 	sethi  %hi(0x4001000), %g2
4000b9c8:	84 10 a2 8a 	or  %g2, 0x28a, %g2	! 400128a <__DYNAMIC+0x400128a>
4000b9cc:	8a 10 20 48 	mov  0x48, %g5
4000b9d0:	86 01 40 01 	add  %g5, %g1, %g3
4000b9d4:	c4 20 c0 00 	st  %g2, [ %g3 ]
4000b9d8:	05 01 00 04 	sethi  %hi(0x4001000), %g2
4000b9dc:	84 10 a3 8a 	or  %g2, 0x38a, %g2	! 400138a <__DYNAMIC+0x400138a>
4000b9e0:	8a 10 20 4c 	mov  0x4c, %g5
4000b9e4:	86 01 40 01 	add  %g5, %g1, %g3
4000b9e8:	c4 20 c0 00 	st  %g2, [ %g3 ]
4000b9ec:	05 01 00 05 	sethi  %hi(0x4001400), %g2
4000b9f0:	84 10 a0 8e 	or  %g2, 0x8e, %g2	! 400148e <__DYNAMIC+0x400148e>
4000b9f4:	8a 10 20 50 	mov  0x50, %g5
4000b9f8:	86 01 40 01 	add  %g5, %g1, %g3
4000b9fc:	c4 20 c0 00 	st  %g2, [ %g3 ]
4000ba00:	05 01 00 05 	sethi  %hi(0x4001400), %g2
4000ba04:	84 10 a1 8e 	or  %g2, 0x18e, %g2	! 400158e <__DYNAMIC+0x400158e>
4000ba08:	8a 10 20 54 	mov  0x54, %g5
4000ba0c:	86 01 40 01 	add  %g5, %g1, %g3
4000ba10:	c4 20 c0 00 	st  %g2, [ %g3 ]
4000ba14:	05 01 00 05 	sethi  %hi(0x4001400), %g2
4000ba18:	84 10 a2 8e 	or  %g2, 0x28e, %g2	! 400168e <__DYNAMIC+0x400168e>
4000ba1c:	8a 10 20 58 	mov  0x58, %g5
4000ba20:	86 01 40 01 	add  %g5, %g1, %g3
4000ba24:	c4 20 c0 00 	st  %g2, [ %g3 ]
4000ba28:	05 01 00 05 	sethi  %hi(0x4001400), %g2
4000ba2c:	84 10 a3 8e 	or  %g2, 0x38e, %g2	! 400178e <__DYNAMIC+0x400178e>
4000ba30:	8a 10 20 5c 	mov  0x5c, %g5
4000ba34:	86 01 40 01 	add  %g5, %g1, %g3
4000ba38:	c4 20 c0 00 	st  %g2, [ %g3 ]
4000ba3c:	05 01 00 06 	sethi  %hi(0x4001800), %g2
4000ba40:	84 10 a0 8e 	or  %g2, 0x8e, %g2	! 400188e <__DYNAMIC+0x400188e>
4000ba44:	8a 10 20 60 	mov  0x60, %g5
4000ba48:	86 01 40 01 	add  %g5, %g1, %g3
4000ba4c:	c4 20 c0 00 	st  %g2, [ %g3 ]
4000ba50:	05 01 00 06 	sethi  %hi(0x4001800), %g2
4000ba54:	84 10 a1 8e 	or  %g2, 0x18e, %g2	! 400198e <__DYNAMIC+0x400198e>
4000ba58:	8a 10 20 64 	mov  0x64, %g5
4000ba5c:	86 01 40 01 	add  %g5, %g1, %g3
4000ba60:	c4 20 c0 00 	st  %g2, [ %g3 ]
4000ba64:	05 01 00 06 	sethi  %hi(0x4001800), %g2
4000ba68:	84 10 a2 8e 	or  %g2, 0x28e, %g2	! 4001a8e <__DYNAMIC+0x4001a8e>
4000ba6c:	8a 10 20 68 	mov  0x68, %g5
4000ba70:	86 01 40 01 	add  %g5, %g1, %g3
4000ba74:	c4 20 c0 00 	st  %g2, [ %g3 ]
4000ba78:	05 01 00 06 	sethi  %hi(0x4001800), %g2
4000ba7c:	84 10 a3 8e 	or  %g2, 0x38e, %g2	! 4001b8e <__DYNAMIC+0x4001b8e>
4000ba80:	8a 10 20 6c 	mov  0x6c, %g5
4000ba84:	86 01 40 01 	add  %g5, %g1, %g3
4000ba88:	c4 20 c0 00 	st  %g2, [ %g3 ]
4000ba8c:	05 01 00 07 	sethi  %hi(0x4001c00), %g2
4000ba90:	84 10 a0 0e 	or  %g2, 0xe, %g2	! 4001c0e <__DYNAMIC+0x4001c0e>
4000ba94:	8a 10 20 70 	mov  0x70, %g5
4000ba98:	86 01 40 01 	add  %g5, %g1, %g3
4000ba9c:	c4 20 c0 00 	st  %g2, [ %g3 ]
4000baa0:	05 01 00 07 	sethi  %hi(0x4001c00), %g2
4000baa4:	84 10 a1 8e 	or  %g2, 0x18e, %g2	! 4001d8e <__DYNAMIC+0x4001d8e>
4000baa8:	8a 10 20 74 	mov  0x74, %g5
4000baac:	86 01 40 01 	add  %g5, %g1, %g3
4000bab0:	c4 20 c0 00 	st  %g2, [ %g3 ]
4000bab4:	05 01 00 07 	sethi  %hi(0x4001c00), %g2
4000bab8:	84 10 a2 92 	or  %g2, 0x292, %g2	! 4001e92 <__DYNAMIC+0x4001e92>
4000babc:	8a 10 20 78 	mov  0x78, %g5
4000bac0:	86 01 40 01 	add  %g5, %g1, %g3
4000bac4:	c4 20 c0 00 	st  %g2, [ %g3 ]
4000bac8:	05 01 00 07 	sethi  %hi(0x4001c00), %g2
4000bacc:	84 10 a3 8e 	or  %g2, 0x38e, %g2	! 4001f8e <__DYNAMIC+0x4001f8e>
4000bad0:	8a 10 20 7c 	mov  0x7c, %g5
4000bad4:	86 01 40 01 	add  %g5, %g1, %g3
4000bad8:	c4 20 c0 00 	st  %g2, [ %g3 ]
4000badc:	05 01 00 08 	sethi  %hi(0x4002000), %g2
4000bae0:	84 10 a0 8e 	or  %g2, 0x8e, %g2	! 400208e <__DYNAMIC+0x400208e>
4000bae4:	8a 10 20 80 	mov  0x80, %g5
4000bae8:	86 01 40 01 	add  %g5, %g1, %g3
4000baec:	c4 20 c0 00 	st  %g2, [ %g3 ]
4000baf0:	05 01 00 08 	sethi  %hi(0x4002000), %g2
4000baf4:	84 10 a1 92 	or  %g2, 0x192, %g2	! 4002192 <__DYNAMIC+0x4002192>
4000baf8:	8a 10 20 84 	mov  0x84, %g5
4000bafc:	86 01 40 01 	add  %g5, %g1, %g3
4000bb00:	c4 20 c0 00 	st  %g2, [ %g3 ]
4000bb04:	88 10 23 00 	mov  0x300, %g4
4000bb08:	88 00 40 04 	add  %g1, %g4, %g4
4000bb0c:	89 31 20 04 	srl  %g4, 4, %g4
4000bb10:	88 11 20 01 	or  %g4, 1, %g4
4000bb14:	8a 10 28 04 	mov  0x804, %g5
4000bb18:	86 01 40 01 	add  %g5, %g1, %g3
4000bb1c:	c8 20 c0 00 	st  %g4, [ %g3 ]
4000bb20:	88 10 22 00 	mov  0x200, %g4
4000bb24:	88 00 40 04 	add  %g1, %g4, %g4
4000bb28:	89 31 20 04 	srl  %g4, 4, %g4
4000bb2c:	88 11 20 01 	or  %g4, 1, %g4
4000bb30:	8a 10 23 00 	mov  0x300, %g5
4000bb34:	86 01 40 01 	add  %g5, %g1, %g3
4000bb38:	c8 20 c0 00 	st  %g4, [ %g3 ]
4000bb3c:	05 00 04 00 	sethi  %hi(0x100000), %g2
4000bb40:	84 10 a0 16 	or  %g2, 0x16, %g2	! 100016 <__DYNAMIC+0x100016>
4000bb44:	8a 10 22 00 	mov  0x200, %g5
4000bb48:	86 01 40 01 	add  %g5, %g1, %g3
4000bb4c:	c4 20 c0 00 	st  %g2, [ %g3 ]
4000bb50:	05 00 04 00 	sethi  %hi(0x100000), %g2
4000bb54:	84 10 a1 16 	or  %g2, 0x116, %g2	! 100116 <__DYNAMIC+0x100116>
4000bb58:	8a 10 22 04 	mov  0x204, %g5
4000bb5c:	86 01 40 01 	add  %g5, %g1, %g3
4000bb60:	c4 20 c0 00 	st  %g2, [ %g3 ]
4000bb64:	05 00 04 00 	sethi  %hi(0x100000), %g2
4000bb68:	84 10 a2 16 	or  %g2, 0x216, %g2	! 100216 <__DYNAMIC+0x100216>
4000bb6c:	8a 10 22 08 	mov  0x208, %g5
4000bb70:	86 01 40 01 	add  %g5, %g1, %g3
4000bb74:	c4 20 c0 00 	st  %g2, [ %g3 ]
4000bb78:	05 00 04 00 	sethi  %hi(0x100000), %g2
4000bb7c:	84 10 a3 16 	or  %g2, 0x316, %g2	! 100316 <__DYNAMIC+0x100316>
4000bb80:	8a 10 22 0c 	mov  0x20c, %g5
4000bb84:	86 01 40 01 	add  %g5, %g1, %g3
4000bb88:	c4 20 c0 00 	st  %g2, [ %g3 ]
4000bb8c:	05 00 04 01 	sethi  %hi(0x100400), %g2
4000bb90:	84 10 a0 16 	or  %g2, 0x16, %g2	! 100416 <__DYNAMIC+0x100416>
4000bb94:	8a 10 22 10 	mov  0x210, %g5
4000bb98:	86 01 40 01 	add  %g5, %g1, %g3
4000bb9c:	c4 20 c0 00 	st  %g2, [ %g3 ]
4000bba0:	05 00 04 01 	sethi  %hi(0x100400), %g2
4000bba4:	84 10 a1 16 	or  %g2, 0x116, %g2	! 100516 <__DYNAMIC+0x100516>
4000bba8:	8a 10 22 14 	mov  0x214, %g5
4000bbac:	86 01 40 01 	add  %g5, %g1, %g3
4000bbb0:	c4 20 c0 00 	st  %g2, [ %g3 ]
4000bbb4:	05 00 04 01 	sethi  %hi(0x100400), %g2
4000bbb8:	84 10 a2 16 	or  %g2, 0x216, %g2	! 100616 <__DYNAMIC+0x100616>
4000bbbc:	8a 10 22 18 	mov  0x218, %g5
4000bbc0:	86 01 40 01 	add  %g5, %g1, %g3
4000bbc4:	c4 20 c0 00 	st  %g2, [ %g3 ]
4000bbc8:	05 00 04 01 	sethi  %hi(0x100400), %g2
4000bbcc:	84 10 a3 16 	or  %g2, 0x316, %g2	! 100716 <__DYNAMIC+0x100716>
4000bbd0:	8a 10 22 1c 	mov  0x21c, %g5
4000bbd4:	86 01 40 01 	add  %g5, %g1, %g3
4000bbd8:	c4 20 c0 00 	st  %g2, [ %g3 ]
4000bbdc:	05 00 04 02 	sethi  %hi(0x100800), %g2
4000bbe0:	84 10 a0 16 	or  %g2, 0x16, %g2	! 100816 <__DYNAMIC+0x100816>
4000bbe4:	8a 10 22 20 	mov  0x220, %g5
4000bbe8:	86 01 40 01 	add  %g5, %g1, %g3
4000bbec:	c4 20 c0 00 	st  %g2, [ %g3 ]
4000bbf0:	05 00 04 02 	sethi  %hi(0x100800), %g2
4000bbf4:	84 10 a1 16 	or  %g2, 0x116, %g2	! 100916 <__DYNAMIC+0x100916>
4000bbf8:	8a 10 22 24 	mov  0x224, %g5
4000bbfc:	86 01 40 01 	add  %g5, %g1, %g3
4000bc00:	c4 20 c0 00 	st  %g2, [ %g3 ]
4000bc04:	05 00 04 02 	sethi  %hi(0x100800), %g2
4000bc08:	84 10 a2 16 	or  %g2, 0x216, %g2	! 100a16 <__DYNAMIC+0x100a16>
4000bc0c:	8a 10 22 28 	mov  0x228, %g5
4000bc10:	86 01 40 01 	add  %g5, %g1, %g3
4000bc14:	c4 20 c0 00 	st  %g2, [ %g3 ]
4000bc18:	05 00 04 02 	sethi  %hi(0x100800), %g2
4000bc1c:	84 10 a3 16 	or  %g2, 0x316, %g2	! 100b16 <__DYNAMIC+0x100b16>
4000bc20:	8a 10 22 2c 	mov  0x22c, %g5
4000bc24:	86 01 40 01 	add  %g5, %g1, %g3
4000bc28:	c4 20 c0 00 	st  %g2, [ %g3 ]
4000bc2c:	05 00 04 03 	sethi  %hi(0x100c00), %g2
4000bc30:	84 10 a0 16 	or  %g2, 0x16, %g2	! 100c16 <__DYNAMIC+0x100c16>
4000bc34:	8a 10 22 30 	mov  0x230, %g5
4000bc38:	86 01 40 01 	add  %g5, %g1, %g3
4000bc3c:	c4 20 c0 00 	st  %g2, [ %g3 ]
4000bc40:	05 00 04 03 	sethi  %hi(0x100c00), %g2
4000bc44:	84 10 a1 16 	or  %g2, 0x116, %g2	! 100d16 <__DYNAMIC+0x100d16>
4000bc48:	8a 10 22 34 	mov  0x234, %g5
4000bc4c:	86 01 40 01 	add  %g5, %g1, %g3
4000bc50:	c4 20 c0 00 	st  %g2, [ %g3 ]
4000bc54:	05 00 04 03 	sethi  %hi(0x100c00), %g2
4000bc58:	84 10 a2 16 	or  %g2, 0x216, %g2	! 100e16 <__DYNAMIC+0x100e16>
4000bc5c:	8a 10 22 38 	mov  0x238, %g5
4000bc60:	86 01 40 01 	add  %g5, %g1, %g3
4000bc64:	c4 20 c0 00 	st  %g2, [ %g3 ]
4000bc68:	05 00 04 03 	sethi  %hi(0x100c00), %g2
4000bc6c:	84 10 a3 16 	or  %g2, 0x316, %g2	! 100f16 <__DYNAMIC+0x100f16>
4000bc70:	8a 10 22 3c 	mov  0x23c, %g5
4000bc74:	86 01 40 01 	add  %g5, %g1, %g3
4000bc78:	c4 20 c0 00 	st  %g2, [ %g3 ]
4000bc7c:	88 10 25 00 	mov  0x500, %g4
4000bc80:	88 00 40 04 	add  %g1, %g4, %g4
4000bc84:	89 31 20 04 	srl  %g4, 4, %g4
4000bc88:	88 11 20 01 	or  %g4, 1, %g4
4000bc8c:	8a 10 2b fc 	mov  0xbfc, %g5
4000bc90:	86 01 40 01 	add  %g5, %g1, %g3
4000bc94:	c8 20 c0 00 	st  %g4, [ %g3 ]
4000bc98:	88 10 24 00 	mov  0x400, %g4
4000bc9c:	88 00 40 04 	add  %g1, %g4, %g4
4000bca0:	89 31 20 04 	srl  %g4, 4, %g4
4000bca4:	88 11 20 01 	or  %g4, 1, %g4
4000bca8:	8a 10 25 fc 	mov  0x5fc, %g5
4000bcac:	86 01 40 01 	add  %g5, %g1, %g3
4000bcb0:	c8 20 c0 00 	st  %g4, [ %g3 ]
4000bcb4:	05 03 ff f8 	sethi  %hi(0xfffe000), %g2
4000bcb8:	84 10 a0 16 	or  %g2, 0x16, %g2	! fffe016 <__DYNAMIC+0xfffe016>
4000bcbc:	8a 10 24 80 	mov  0x480, %g5
4000bcc0:	86 01 40 01 	add  %g5, %g1, %g3
4000bcc4:	c4 20 c0 00 	st  %g2, [ %g3 ]
4000bcc8:	05 03 ff f8 	sethi  %hi(0xfffe000), %g2
4000bccc:	84 10 a1 16 	or  %g2, 0x116, %g2	! fffe116 <__DYNAMIC+0xfffe116>
4000bcd0:	8a 10 24 84 	mov  0x484, %g5
4000bcd4:	86 01 40 01 	add  %g5, %g1, %g3
4000bcd8:	c4 20 c0 00 	st  %g2, [ %g3 ]
4000bcdc:	05 03 ff f8 	sethi  %hi(0xfffe000), %g2
4000bce0:	84 10 a2 16 	or  %g2, 0x216, %g2	! fffe216 <__DYNAMIC+0xfffe216>
4000bce4:	8a 10 24 88 	mov  0x488, %g5
4000bce8:	86 01 40 01 	add  %g5, %g1, %g3
4000bcec:	c4 20 c0 00 	st  %g2, [ %g3 ]
4000bcf0:	05 03 ff f8 	sethi  %hi(0xfffe000), %g2
4000bcf4:	84 10 a3 16 	or  %g2, 0x316, %g2	! fffe316 <__DYNAMIC+0xfffe316>
4000bcf8:	8a 10 24 8c 	mov  0x48c, %g5
4000bcfc:	86 01 40 01 	add  %g5, %g1, %g3
4000bd00:	c4 20 c0 00 	st  %g2, [ %g3 ]
4000bd04:	05 03 ff f9 	sethi  %hi(0xfffe400), %g2
4000bd08:	84 10 a0 16 	or  %g2, 0x16, %g2	! fffe416 <__DYNAMIC+0xfffe416>
4000bd0c:	8a 10 24 90 	mov  0x490, %g5
4000bd10:	86 01 40 01 	add  %g5, %g1, %g3
4000bd14:	c4 20 c0 00 	st  %g2, [ %g3 ]
4000bd18:	05 03 ff f9 	sethi  %hi(0xfffe400), %g2
4000bd1c:	84 10 a1 16 	or  %g2, 0x116, %g2	! fffe516 <__DYNAMIC+0xfffe516>
4000bd20:	8a 10 24 94 	mov  0x494, %g5
4000bd24:	86 01 40 01 	add  %g5, %g1, %g3
4000bd28:	c4 20 c0 00 	st  %g2, [ %g3 ]
4000bd2c:	05 03 ff f9 	sethi  %hi(0xfffe400), %g2
4000bd30:	84 10 a2 16 	or  %g2, 0x216, %g2	! fffe616 <__DYNAMIC+0xfffe616>
4000bd34:	8a 10 24 98 	mov  0x498, %g5
4000bd38:	86 01 40 01 	add  %g5, %g1, %g3
4000bd3c:	c4 20 c0 00 	st  %g2, [ %g3 ]
4000bd40:	05 03 ff f9 	sethi  %hi(0xfffe400), %g2
4000bd44:	84 10 a3 16 	or  %g2, 0x316, %g2	! fffe716 <__DYNAMIC+0xfffe716>
4000bd48:	8a 10 24 9c 	mov  0x49c, %g5
4000bd4c:	86 01 40 01 	add  %g5, %g1, %g3
4000bd50:	c4 20 c0 00 	st  %g2, [ %g3 ]
4000bd54:	05 03 ff fa 	sethi  %hi(0xfffe800), %g2
4000bd58:	84 10 a0 16 	or  %g2, 0x16, %g2	! fffe816 <__DYNAMIC+0xfffe816>
4000bd5c:	8a 10 24 a0 	mov  0x4a0, %g5
4000bd60:	86 01 40 01 	add  %g5, %g1, %g3
4000bd64:	c4 20 c0 00 	st  %g2, [ %g3 ]
4000bd68:	05 03 ff fa 	sethi  %hi(0xfffe800), %g2
4000bd6c:	84 10 a1 16 	or  %g2, 0x116, %g2	! fffe916 <__DYNAMIC+0xfffe916>
4000bd70:	8a 10 24 a4 	mov  0x4a4, %g5
4000bd74:	86 01 40 01 	add  %g5, %g1, %g3
4000bd78:	c4 20 c0 00 	st  %g2, [ %g3 ]
4000bd7c:	05 03 ff fa 	sethi  %hi(0xfffe800), %g2
4000bd80:	84 10 a2 16 	or  %g2, 0x216, %g2	! fffea16 <__DYNAMIC+0xfffea16>
4000bd84:	8a 10 24 a8 	mov  0x4a8, %g5
4000bd88:	86 01 40 01 	add  %g5, %g1, %g3
4000bd8c:	c4 20 c0 00 	st  %g2, [ %g3 ]
4000bd90:	05 03 ff fa 	sethi  %hi(0xfffe800), %g2
4000bd94:	84 10 a3 16 	or  %g2, 0x316, %g2	! fffeb16 <__DYNAMIC+0xfffeb16>
4000bd98:	8a 10 24 ac 	mov  0x4ac, %g5
4000bd9c:	86 01 40 01 	add  %g5, %g1, %g3
4000bda0:	c4 20 c0 00 	st  %g2, [ %g3 ]
4000bda4:	05 03 ff fb 	sethi  %hi(0xfffec00), %g2
4000bda8:	84 10 a0 16 	or  %g2, 0x16, %g2	! fffec16 <__DYNAMIC+0xfffec16>
4000bdac:	8a 10 24 b0 	mov  0x4b0, %g5
4000bdb0:	86 01 40 01 	add  %g5, %g1, %g3
4000bdb4:	c4 20 c0 00 	st  %g2, [ %g3 ]
4000bdb8:	05 03 ff fb 	sethi  %hi(0xfffec00), %g2
4000bdbc:	84 10 a1 16 	or  %g2, 0x116, %g2	! fffed16 <__DYNAMIC+0xfffed16>
4000bdc0:	8a 10 24 b4 	mov  0x4b4, %g5
4000bdc4:	86 01 40 01 	add  %g5, %g1, %g3
4000bdc8:	c4 20 c0 00 	st  %g2, [ %g3 ]
4000bdcc:	05 03 ff fb 	sethi  %hi(0xfffec00), %g2
4000bdd0:	84 10 a2 16 	or  %g2, 0x216, %g2	! fffee16 <__DYNAMIC+0xfffee16>
4000bdd4:	8a 10 24 b8 	mov  0x4b8, %g5
4000bdd8:	86 01 40 01 	add  %g5, %g1, %g3
4000bddc:	c4 20 c0 00 	st  %g2, [ %g3 ]
4000bde0:	05 03 ff fb 	sethi  %hi(0xfffec00), %g2
4000bde4:	84 10 a3 16 	or  %g2, 0x316, %g2	! fffef16 <__DYNAMIC+0xfffef16>
4000bde8:	8a 10 24 bc 	mov  0x4bc, %g5
4000bdec:	86 01 40 01 	add  %g5, %g1, %g3
4000bdf0:	c4 20 c0 00 	st  %g2, [ %g3 ]
4000bdf4:	05 03 ff fc 	sethi  %hi(0xffff000), %g2
4000bdf8:	84 10 a0 16 	or  %g2, 0x16, %g2	! ffff016 <__DYNAMIC+0xffff016>
4000bdfc:	8a 10 24 c0 	mov  0x4c0, %g5
4000be00:	86 01 40 01 	add  %g5, %g1, %g3
4000be04:	c4 20 c0 00 	st  %g2, [ %g3 ]
4000be08:	05 03 ff fc 	sethi  %hi(0xffff000), %g2
4000be0c:	84 10 a1 16 	or  %g2, 0x116, %g2	! ffff116 <__DYNAMIC+0xffff116>
4000be10:	8a 10 24 c4 	mov  0x4c4, %g5
4000be14:	86 01 40 01 	add  %g5, %g1, %g3
4000be18:	c4 20 c0 00 	st  %g2, [ %g3 ]
4000be1c:	05 03 ff fc 	sethi  %hi(0xffff000), %g2
4000be20:	84 10 a2 16 	or  %g2, 0x216, %g2	! ffff216 <__DYNAMIC+0xffff216>
4000be24:	8a 10 24 c8 	mov  0x4c8, %g5
4000be28:	86 01 40 01 	add  %g5, %g1, %g3
4000be2c:	c4 20 c0 00 	st  %g2, [ %g3 ]
4000be30:	05 03 ff fc 	sethi  %hi(0xffff000), %g2
4000be34:	84 10 a3 16 	or  %g2, 0x316, %g2	! ffff316 <__DYNAMIC+0xffff316>
4000be38:	8a 10 24 cc 	mov  0x4cc, %g5
4000be3c:	86 01 40 01 	add  %g5, %g1, %g3
4000be40:	c4 20 c0 00 	st  %g2, [ %g3 ]
4000be44:	05 03 ff fd 	sethi  %hi(0xffff400), %g2
4000be48:	84 10 a0 16 	or  %g2, 0x16, %g2	! ffff416 <__DYNAMIC+0xffff416>
4000be4c:	8a 10 24 d0 	mov  0x4d0, %g5
4000be50:	86 01 40 01 	add  %g5, %g1, %g3
4000be54:	c4 20 c0 00 	st  %g2, [ %g3 ]
4000be58:	05 03 ff fd 	sethi  %hi(0xffff400), %g2
4000be5c:	84 10 a1 16 	or  %g2, 0x116, %g2	! ffff516 <__DYNAMIC+0xffff516>
4000be60:	8a 10 24 d4 	mov  0x4d4, %g5
4000be64:	86 01 40 01 	add  %g5, %g1, %g3
4000be68:	c4 20 c0 00 	st  %g2, [ %g3 ]
4000be6c:	05 03 ff fd 	sethi  %hi(0xffff400), %g2
4000be70:	84 10 a2 16 	or  %g2, 0x216, %g2	! ffff616 <__DYNAMIC+0xffff616>
4000be74:	8a 10 24 d8 	mov  0x4d8, %g5
4000be78:	86 01 40 01 	add  %g5, %g1, %g3
4000be7c:	c4 20 c0 00 	st  %g2, [ %g3 ]
4000be80:	05 03 ff fd 	sethi  %hi(0xffff400), %g2
4000be84:	84 10 a3 16 	or  %g2, 0x316, %g2	! ffff716 <__DYNAMIC+0xffff716>
4000be88:	8a 10 24 dc 	mov  0x4dc, %g5
4000be8c:	86 01 40 01 	add  %g5, %g1, %g3
4000be90:	c4 20 c0 00 	st  %g2, [ %g3 ]
4000be94:	05 03 ff fe 	sethi  %hi(0xffff800), %g2
4000be98:	84 10 a0 16 	or  %g2, 0x16, %g2	! ffff816 <__DYNAMIC+0xffff816>
4000be9c:	8a 10 24 e0 	mov  0x4e0, %g5
4000bea0:	86 01 40 01 	add  %g5, %g1, %g3
4000bea4:	c4 20 c0 00 	st  %g2, [ %g3 ]
4000bea8:	05 03 ff fe 	sethi  %hi(0xffff800), %g2
4000beac:	84 10 a1 16 	or  %g2, 0x116, %g2	! ffff916 <__DYNAMIC+0xffff916>
4000beb0:	8a 10 24 e4 	mov  0x4e4, %g5
4000beb4:	86 01 40 01 	add  %g5, %g1, %g3
4000beb8:	c4 20 c0 00 	st  %g2, [ %g3 ]
4000bebc:	05 03 ff fe 	sethi  %hi(0xffff800), %g2
4000bec0:	84 10 a2 16 	or  %g2, 0x216, %g2	! ffffa16 <__DYNAMIC+0xffffa16>
4000bec4:	8a 10 24 e8 	mov  0x4e8, %g5
4000bec8:	86 01 40 01 	add  %g5, %g1, %g3
4000becc:	c4 20 c0 00 	st  %g2, [ %g3 ]
4000bed0:	05 03 ff fe 	sethi  %hi(0xffff800), %g2
4000bed4:	84 10 a3 16 	or  %g2, 0x316, %g2	! ffffb16 <__DYNAMIC+0xffffb16>
4000bed8:	8a 10 24 ec 	mov  0x4ec, %g5
4000bedc:	86 01 40 01 	add  %g5, %g1, %g3
4000bee0:	c4 20 c0 00 	st  %g2, [ %g3 ]
4000bee4:	05 03 ff ff 	sethi  %hi(0xffffc00), %g2
4000bee8:	84 10 a0 16 	or  %g2, 0x16, %g2	! ffffc16 <__DYNAMIC+0xffffc16>
4000beec:	8a 10 24 f0 	mov  0x4f0, %g5
4000bef0:	86 01 40 01 	add  %g5, %g1, %g3
4000bef4:	c4 20 c0 00 	st  %g2, [ %g3 ]
4000bef8:	05 03 ff ff 	sethi  %hi(0xffffc00), %g2
4000befc:	84 10 a1 16 	or  %g2, 0x116, %g2	! ffffd16 <__DYNAMIC+0xffffd16>
4000bf00:	8a 10 24 f4 	mov  0x4f4, %g5
4000bf04:	86 01 40 01 	add  %g5, %g1, %g3
4000bf08:	c4 20 c0 00 	st  %g2, [ %g3 ]
4000bf0c:	05 03 ff ff 	sethi  %hi(0xffffc00), %g2
4000bf10:	84 10 a2 16 	or  %g2, 0x216, %g2	! ffffe16 <__DYNAMIC+0xffffe16>
4000bf14:	8a 10 24 f8 	mov  0x4f8, %g5
4000bf18:	86 01 40 01 	add  %g5, %g1, %g3
4000bf1c:	c4 20 c0 00 	st  %g2, [ %g3 ]
4000bf20:	05 03 ff ff 	sethi  %hi(0xffffc00), %g2
4000bf24:	84 10 a3 16 	or  %g2, 0x316, %g2	! fffff16 <__DYNAMIC+0xfffff16>
4000bf28:	8a 10 24 fc 	mov  0x4fc, %g5
4000bf2c:	86 01 40 01 	add  %g5, %g1, %g3
4000bf30:	c4 20 c0 00 	st  %g2, [ %g3 ]
4000bf34:	81 c3 e0 08 	retl 
4000bf38:	01 00 00 00 	nop 

4000bf3c <set_context_table_pointer>:
4000bf3c:	03 10 00 30 	sethi  %hi(0x4000c000), %g1
4000bf40:	82 10 60 00 	mov  %g1, %g1	! 4000c000 <PAGE_TABLE_BASE>
4000bf44:	8a 10 2c 00 	mov  0xc00, %g5
4000bf48:	84 01 40 01 	add  %g5, %g1, %g2
4000bf4c:	85 30 a0 04 	srl  %g2, 4, %g2
4000bf50:	84 10 a0 01 	or  %g2, 1, %g2
4000bf54:	86 10 21 00 	mov  0x100, %g3
4000bf58:	c4 a0 c0 80 	sta  %g2, [ %g3 ] #ASI_N
4000bf5c:	81 c3 e0 08 	retl 
4000bf60:	01 00 00 00 	nop 
4000bf64:	01 00 00 00 	nop 
4000bf68:	01 00 00 00 	nop 
4000bf6c:	01 00 00 00 	nop 
4000bf70:	01 00 00 00 	nop 
4000bf74:	01 00 00 00 	nop 
4000bf78:	01 00 00 00 	nop 
4000bf7c:	01 00 00 00 	nop 
4000bf80:	01 00 00 00 	nop 
4000bf84:	01 00 00 00 	nop 
4000bf88:	01 00 00 00 	nop 
4000bf8c:	01 00 00 00 	nop 
4000bf90:	01 00 00 00 	nop 
4000bf94:	01 00 00 00 	nop 
4000bf98:	01 00 00 00 	nop 
4000bf9c:	01 00 00 00 	nop 
4000bfa0:	01 00 00 00 	nop 
4000bfa4:	01 00 00 00 	nop 
4000bfa8:	01 00 00 00 	nop 
4000bfac:	01 00 00 00 	nop 
4000bfb0:	01 00 00 00 	nop 
4000bfb4:	01 00 00 00 	nop 
4000bfb8:	01 00 00 00 	nop 
4000bfbc:	01 00 00 00 	nop 
4000bfc0:	01 00 00 00 	nop 
4000bfc4:	01 00 00 00 	nop 
4000bfc8:	01 00 00 00 	nop 
4000bfcc:	01 00 00 00 	nop 
4000bfd0:	01 00 00 00 	nop 
4000bfd4:	01 00 00 00 	nop 
4000bfd8:	01 00 00 00 	nop 
4000bfdc:	01 00 00 00 	nop 
4000bfe0:	01 00 00 00 	nop 
4000bfe4:	01 00 00 00 	nop 
4000bfe8:	01 00 00 00 	nop 
4000bfec:	01 00 00 00 	nop 
4000bff0:	01 00 00 00 	nop 
4000bff4:	01 00 00 00 	nop 
4000bff8:	01 00 00 00 	nop 
4000bffc:	01 00 00 00 	nop 

4000c000 <PAGE_TABLE_BASE>:
	...

4000d000 <window_overflow_trap_handler>:
4000d000:	a7 50 00 00 	rd  %wim, %l3
4000d004:	a9 2c e0 07 	sll  %l3, 7, %l4
4000d008:	a7 34 e0 01 	srl  %l3, 1, %l3
4000d00c:	a6 14 c0 14 	or  %l3, %l4, %l3
4000d010:	a6 0c e0 ff 	and  %l3, 0xff, %l3
4000d014:	81 90 00 00 	mov  %g0, %wim
4000d018:	01 00 00 00 	nop 
4000d01c:	01 00 00 00 	nop 
4000d020:	01 00 00 00 	nop 
4000d024:	81 e0 00 00 	save 
4000d028:	e0 3b a0 00 	std  %l0, [ %sp ]
4000d02c:	e4 3b a0 08 	std  %l2, [ %sp + 8 ]
4000d030:	e8 3b a0 10 	std  %l4, [ %sp + 0x10 ]
4000d034:	ec 3b a0 18 	std  %l6, [ %sp + 0x18 ]
4000d038:	f0 3b a0 20 	std  %i0, [ %sp + 0x20 ]
4000d03c:	f4 3b a0 28 	std  %i2, [ %sp + 0x28 ]
4000d040:	f8 3b a0 30 	std  %i4, [ %sp + 0x30 ]
4000d044:	fc 3b a0 38 	std  %fp, [ %sp + 0x38 ]
4000d048:	81 e8 00 00 	restore 
4000d04c:	81 90 00 13 	mov  %l3, %wim
4000d050:	01 00 00 00 	nop 
4000d054:	01 00 00 00 	nop 
4000d058:	01 00 00 00 	nop 
4000d05c:	81 c4 40 00 	jmp  %l1
4000d060:	81 cc 80 00 	rett  %l2

4000d064 <window_underflow_trap_handler>:
4000d064:	a7 50 00 00 	rd  %wim, %l3
4000d068:	a9 34 e0 07 	srl  %l3, 7, %l4
4000d06c:	a7 2c e0 01 	sll  %l3, 1, %l3
4000d070:	a6 14 c0 14 	or  %l3, %l4, %l3
4000d074:	a6 0c e0 ff 	and  %l3, 0xff, %l3
4000d078:	81 90 00 00 	mov  %g0, %wim
4000d07c:	01 00 00 00 	nop 
4000d080:	01 00 00 00 	nop 
4000d084:	01 00 00 00 	nop 
4000d088:	81 e8 00 00 	restore 
4000d08c:	81 e8 00 00 	restore 
4000d090:	e0 1b a0 00 	ldd  [ %sp ], %l0
4000d094:	e4 1b a0 08 	ldd  [ %sp + 8 ], %l2
4000d098:	e8 1b a0 10 	ldd  [ %sp + 0x10 ], %l4
4000d09c:	ec 1b a0 18 	ldd  [ %sp + 0x18 ], %l6
4000d0a0:	f0 1b a0 20 	ldd  [ %sp + 0x20 ], %i0
4000d0a4:	f4 1b a0 28 	ldd  [ %sp + 0x28 ], %i2
4000d0a8:	f8 1b a0 30 	ldd  [ %sp + 0x30 ], %i4
4000d0ac:	fc 1b a0 38 	ldd  [ %sp + 0x38 ], %fp
4000d0b0:	81 e0 00 00 	save 
4000d0b4:	81 e0 00 00 	save 
4000d0b8:	81 90 00 13 	mov  %l3, %wim
4000d0bc:	01 00 00 00 	nop 
4000d0c0:	01 00 00 00 	nop 
4000d0c4:	01 00 00 00 	nop 
4000d0c8:	81 c4 40 00 	jmp  %l1
4000d0cc:	81 cc 80 00 	rett  %l2
4000d0d0:	00 00 00 00 	unimp  0
	...

4000e000 <trap_table_base>:
4000e000:	91 d0 20 00 	ta  0
4000e004:	01 00 00 00 	nop 
4000e008:	01 00 00 00 	nop 
4000e00c:	01 00 00 00 	nop 

4000e010 <HW_trap_0x01>:
4000e010:	91 d0 20 00 	ta  0
4000e014:	01 00 00 00 	nop 
4000e018:	01 00 00 00 	nop 
4000e01c:	01 00 00 00 	nop 

4000e020 <HW_trap_0x02>:
4000e020:	91 d0 20 00 	ta  0
4000e024:	01 00 00 00 	nop 
4000e028:	01 00 00 00 	nop 
4000e02c:	01 00 00 00 	nop 

4000e030 <HW_trap_0x03>:
4000e030:	91 d0 20 00 	ta  0
4000e034:	01 00 00 00 	nop 
4000e038:	01 00 00 00 	nop 
4000e03c:	01 00 00 00 	nop 

4000e040 <HW_trap_0x04>:
4000e040:	91 d0 20 00 	ta  0
4000e044:	01 00 00 00 	nop 
4000e048:	01 00 00 00 	nop 
4000e04c:	01 00 00 00 	nop 

4000e050 <HW_trap_0x05>:
4000e050:	10 bf fb ec 	b  4000d000 <window_overflow_trap_handler>
4000e054:	01 00 00 00 	nop 
4000e058:	01 00 00 00 	nop 
4000e05c:	01 00 00 00 	nop 

4000e060 <HW_trap_0x06>:
4000e060:	10 bf fc 01 	b  4000d064 <window_underflow_trap_handler>
4000e064:	01 00 00 00 	nop 
4000e068:	01 00 00 00 	nop 
4000e06c:	01 00 00 00 	nop 

4000e070 <HW_trap_0x07>:
4000e070:	91 d0 20 00 	ta  0
4000e074:	01 00 00 00 	nop 
4000e078:	01 00 00 00 	nop 
4000e07c:	01 00 00 00 	nop 

4000e080 <HW_trap_0x08>:
4000e080:	91 d0 20 00 	ta  0
4000e084:	01 00 00 00 	nop 
4000e088:	01 00 00 00 	nop 
4000e08c:	01 00 00 00 	nop 

4000e090 <HW_trap_0x09>:
4000e090:	91 d0 20 00 	ta  0
4000e094:	01 00 00 00 	nop 
4000e098:	01 00 00 00 	nop 
4000e09c:	01 00 00 00 	nop 

4000e0a0 <HW_trap_0x0a>:
4000e0a0:	91 d0 20 00 	ta  0
4000e0a4:	01 00 00 00 	nop 
4000e0a8:	01 00 00 00 	nop 
4000e0ac:	01 00 00 00 	nop 

4000e0b0 <HW_trap_0x0b>:
4000e0b0:	91 d0 20 00 	ta  0
4000e0b4:	01 00 00 00 	nop 
4000e0b8:	01 00 00 00 	nop 
4000e0bc:	01 00 00 00 	nop 

4000e0c0 <HW_trap_0x0c>:
4000e0c0:	91 d0 20 00 	ta  0
4000e0c4:	01 00 00 00 	nop 
4000e0c8:	01 00 00 00 	nop 
4000e0cc:	01 00 00 00 	nop 

4000e0d0 <HW_trap_0x0d>:
4000e0d0:	91 d0 20 00 	ta  0
4000e0d4:	01 00 00 00 	nop 
4000e0d8:	01 00 00 00 	nop 
4000e0dc:	01 00 00 00 	nop 

4000e0e0 <HW_trap_0x0e>:
4000e0e0:	91 d0 20 00 	ta  0
4000e0e4:	01 00 00 00 	nop 
4000e0e8:	01 00 00 00 	nop 
4000e0ec:	01 00 00 00 	nop 

4000e0f0 <HW_trap_0x0f>:
4000e0f0:	91 d0 20 00 	ta  0
4000e0f4:	01 00 00 00 	nop 
4000e0f8:	01 00 00 00 	nop 
4000e0fc:	01 00 00 00 	nop 

4000e100 <HW_trap_0x10>:
4000e100:	91 d0 20 00 	ta  0
4000e104:	01 00 00 00 	nop 
4000e108:	01 00 00 00 	nop 
4000e10c:	01 00 00 00 	nop 

4000e110 <HW_trap_0x11>:
4000e110:	a1 48 00 00 	rd  %psr, %l0
4000e114:	a7 58 00 00 	rd  %tbr, %l3
4000e118:	10 bf f3 c4 	b  4000b028 <generic_vectored_isr>
4000e11c:	01 00 00 00 	nop 

4000e120 <HW_trap_0x12>:
4000e120:	a1 48 00 00 	rd  %psr, %l0
4000e124:	a7 58 00 00 	rd  %tbr, %l3
4000e128:	10 bf f3 c0 	b  4000b028 <generic_vectored_isr>
4000e12c:	01 00 00 00 	nop 

4000e130 <HW_trap_0x13>:
4000e130:	a1 48 00 00 	rd  %psr, %l0
4000e134:	a7 58 00 00 	rd  %tbr, %l3
4000e138:	10 bf f3 bc 	b  4000b028 <generic_vectored_isr>
4000e13c:	01 00 00 00 	nop 

4000e140 <HW_trap_0x14>:
4000e140:	a1 48 00 00 	rd  %psr, %l0
4000e144:	a7 58 00 00 	rd  %tbr, %l3
4000e148:	10 bf f3 b8 	b  4000b028 <generic_vectored_isr>
4000e14c:	01 00 00 00 	nop 

4000e150 <HW_trap_0x15>:
4000e150:	a1 48 00 00 	rd  %psr, %l0
4000e154:	a7 58 00 00 	rd  %tbr, %l3
4000e158:	10 bf f3 b4 	b  4000b028 <generic_vectored_isr>
4000e15c:	01 00 00 00 	nop 

4000e160 <HW_trap_0x16>:
4000e160:	a1 48 00 00 	rd  %psr, %l0
4000e164:	a7 58 00 00 	rd  %tbr, %l3
4000e168:	10 bf f3 b0 	b  4000b028 <generic_vectored_isr>
4000e16c:	01 00 00 00 	nop 

4000e170 <HW_trap_0x17>:
4000e170:	a1 48 00 00 	rd  %psr, %l0
4000e174:	a7 58 00 00 	rd  %tbr, %l3
4000e178:	10 bf f3 ac 	b  4000b028 <generic_vectored_isr>
4000e17c:	01 00 00 00 	nop 

4000e180 <HW_trap_0x18>:
4000e180:	a1 48 00 00 	rd  %psr, %l0
4000e184:	a7 58 00 00 	rd  %tbr, %l3
4000e188:	10 bf f3 a8 	b  4000b028 <generic_vectored_isr>
4000e18c:	01 00 00 00 	nop 

4000e190 <HW_trap_0x19>:
4000e190:	a1 48 00 00 	rd  %psr, %l0
4000e194:	a7 58 00 00 	rd  %tbr, %l3
4000e198:	10 bf f3 a4 	b  4000b028 <generic_vectored_isr>
4000e19c:	01 00 00 00 	nop 

4000e1a0 <HW_trap_0x1a>:
4000e1a0:	a1 48 00 00 	rd  %psr, %l0
4000e1a4:	a7 58 00 00 	rd  %tbr, %l3
4000e1a8:	10 bf f3 a0 	b  4000b028 <generic_vectored_isr>
4000e1ac:	01 00 00 00 	nop 

4000e1b0 <HW_trap_0x1b>:
4000e1b0:	a1 48 00 00 	rd  %psr, %l0
4000e1b4:	a7 58 00 00 	rd  %tbr, %l3
4000e1b8:	10 bf f3 9c 	b  4000b028 <generic_vectored_isr>
4000e1bc:	01 00 00 00 	nop 

4000e1c0 <HW_trap_0x1c>:
4000e1c0:	a1 48 00 00 	rd  %psr, %l0
4000e1c4:	a7 58 00 00 	rd  %tbr, %l3
4000e1c8:	10 bf f3 98 	b  4000b028 <generic_vectored_isr>
4000e1cc:	01 00 00 00 	nop 

4000e1d0 <HW_trap_0x1d>:
4000e1d0:	a1 48 00 00 	rd  %psr, %l0
4000e1d4:	a7 58 00 00 	rd  %tbr, %l3
4000e1d8:	10 bf f3 94 	b  4000b028 <generic_vectored_isr>
4000e1dc:	01 00 00 00 	nop 

4000e1e0 <HW_trap_0x1e>:
4000e1e0:	a1 48 00 00 	rd  %psr, %l0
4000e1e4:	a7 58 00 00 	rd  %tbr, %l3
4000e1e8:	10 bf f3 90 	b  4000b028 <generic_vectored_isr>
4000e1ec:	01 00 00 00 	nop 

4000e1f0 <HW_trap_0x1f>:
4000e1f0:	a1 48 00 00 	rd  %psr, %l0
4000e1f4:	a7 58 00 00 	rd  %tbr, %l3
4000e1f8:	10 bf f3 8c 	b  4000b028 <generic_vectored_isr>
4000e1fc:	01 00 00 00 	nop 

4000e200 <HW_trap_0x20>:
4000e200:	91 d0 20 00 	ta  0
4000e204:	01 00 00 00 	nop 
4000e208:	01 00 00 00 	nop 
4000e20c:	01 00 00 00 	nop 

4000e210 <HW_trap_0x21>:
4000e210:	91 d0 20 00 	ta  0
4000e214:	01 00 00 00 	nop 
4000e218:	01 00 00 00 	nop 
4000e21c:	01 00 00 00 	nop 

4000e220 <HW_trap_0x22>:
4000e220:	91 d0 20 00 	ta  0
4000e224:	01 00 00 00 	nop 
4000e228:	01 00 00 00 	nop 
4000e22c:	01 00 00 00 	nop 

4000e230 <HW_trap_0x23>:
4000e230:	91 d0 20 00 	ta  0
4000e234:	01 00 00 00 	nop 
4000e238:	01 00 00 00 	nop 
4000e23c:	01 00 00 00 	nop 

4000e240 <HW_trap_0x24>:
4000e240:	91 d0 20 00 	ta  0
4000e244:	01 00 00 00 	nop 
4000e248:	01 00 00 00 	nop 
4000e24c:	01 00 00 00 	nop 

4000e250 <HW_trap_0x25>:
4000e250:	91 d0 20 00 	ta  0
4000e254:	01 00 00 00 	nop 
4000e258:	01 00 00 00 	nop 
4000e25c:	01 00 00 00 	nop 

4000e260 <HW_trap_0x26>:
4000e260:	91 d0 20 00 	ta  0
4000e264:	01 00 00 00 	nop 
4000e268:	01 00 00 00 	nop 
4000e26c:	01 00 00 00 	nop 

4000e270 <HW_trap_0x27>:
4000e270:	91 d0 20 00 	ta  0
4000e274:	01 00 00 00 	nop 
4000e278:	01 00 00 00 	nop 
4000e27c:	01 00 00 00 	nop 

4000e280 <HW_trap_0x28>:
4000e280:	91 d0 20 00 	ta  0
4000e284:	01 00 00 00 	nop 
4000e288:	01 00 00 00 	nop 
4000e28c:	01 00 00 00 	nop 

4000e290 <HW_trap_0x29>:
4000e290:	91 d0 20 00 	ta  0
4000e294:	01 00 00 00 	nop 
4000e298:	01 00 00 00 	nop 
4000e29c:	01 00 00 00 	nop 

4000e2a0 <HW_trap_0x2a>:
4000e2a0:	91 d0 20 00 	ta  0
4000e2a4:	01 00 00 00 	nop 
4000e2a8:	01 00 00 00 	nop 
4000e2ac:	01 00 00 00 	nop 

4000e2b0 <HW_trap_0x2b>:
4000e2b0:	91 d0 20 00 	ta  0
4000e2b4:	01 00 00 00 	nop 
4000e2b8:	01 00 00 00 	nop 
4000e2bc:	01 00 00 00 	nop 

4000e2c0 <HW_trap_0x2c>:
4000e2c0:	91 d0 20 00 	ta  0
4000e2c4:	01 00 00 00 	nop 
4000e2c8:	01 00 00 00 	nop 
4000e2cc:	01 00 00 00 	nop 

4000e2d0 <HW_trap_0x2d>:
4000e2d0:	91 d0 20 00 	ta  0
4000e2d4:	01 00 00 00 	nop 
4000e2d8:	01 00 00 00 	nop 
4000e2dc:	01 00 00 00 	nop 

4000e2e0 <HW_trap_0x2e>:
4000e2e0:	91 d0 20 00 	ta  0
4000e2e4:	01 00 00 00 	nop 
4000e2e8:	01 00 00 00 	nop 
4000e2ec:	01 00 00 00 	nop 

4000e2f0 <HW_trap_0x2f>:
4000e2f0:	91 d0 20 00 	ta  0
4000e2f4:	01 00 00 00 	nop 
4000e2f8:	01 00 00 00 	nop 
4000e2fc:	01 00 00 00 	nop 

4000e300 <HW_trap_0x30>:
4000e300:	91 d0 20 00 	ta  0
4000e304:	01 00 00 00 	nop 
4000e308:	01 00 00 00 	nop 
4000e30c:	01 00 00 00 	nop 

4000e310 <HW_trap_0x31>:
4000e310:	91 d0 20 00 	ta  0
4000e314:	01 00 00 00 	nop 
4000e318:	01 00 00 00 	nop 
4000e31c:	01 00 00 00 	nop 

4000e320 <HW_trap_0x32>:
4000e320:	91 d0 20 00 	ta  0
4000e324:	01 00 00 00 	nop 
4000e328:	01 00 00 00 	nop 
4000e32c:	01 00 00 00 	nop 

4000e330 <HW_trap_0x33>:
4000e330:	91 d0 20 00 	ta  0
4000e334:	01 00 00 00 	nop 
4000e338:	01 00 00 00 	nop 
4000e33c:	01 00 00 00 	nop 

4000e340 <HW_trap_0x34>:
4000e340:	91 d0 20 00 	ta  0
4000e344:	01 00 00 00 	nop 
4000e348:	01 00 00 00 	nop 
4000e34c:	01 00 00 00 	nop 

4000e350 <HW_trap_0x35>:
4000e350:	91 d0 20 00 	ta  0
4000e354:	01 00 00 00 	nop 
4000e358:	01 00 00 00 	nop 
4000e35c:	01 00 00 00 	nop 

4000e360 <HW_trap_0x36>:
4000e360:	91 d0 20 00 	ta  0
4000e364:	01 00 00 00 	nop 
4000e368:	01 00 00 00 	nop 
4000e36c:	01 00 00 00 	nop 

4000e370 <HW_trap_0x37>:
4000e370:	91 d0 20 00 	ta  0
4000e374:	01 00 00 00 	nop 
4000e378:	01 00 00 00 	nop 
4000e37c:	01 00 00 00 	nop 

4000e380 <HW_trap_0x38>:
4000e380:	91 d0 20 00 	ta  0
4000e384:	01 00 00 00 	nop 
4000e388:	01 00 00 00 	nop 
4000e38c:	01 00 00 00 	nop 

4000e390 <HW_trap_0x39>:
4000e390:	91 d0 20 00 	ta  0
4000e394:	01 00 00 00 	nop 
4000e398:	01 00 00 00 	nop 
4000e39c:	01 00 00 00 	nop 

4000e3a0 <HW_trap_0x3a>:
4000e3a0:	91 d0 20 00 	ta  0
4000e3a4:	01 00 00 00 	nop 
4000e3a8:	01 00 00 00 	nop 
4000e3ac:	01 00 00 00 	nop 

4000e3b0 <HW_trap_0x3b>:
4000e3b0:	91 d0 20 00 	ta  0
4000e3b4:	01 00 00 00 	nop 
4000e3b8:	01 00 00 00 	nop 
4000e3bc:	01 00 00 00 	nop 

4000e3c0 <HW_trap_0x3c>:
4000e3c0:	91 d0 20 00 	ta  0
4000e3c4:	01 00 00 00 	nop 
4000e3c8:	01 00 00 00 	nop 
4000e3cc:	01 00 00 00 	nop 

4000e3d0 <HW_trap_0x3d>:
4000e3d0:	91 d0 20 00 	ta  0
4000e3d4:	01 00 00 00 	nop 
4000e3d8:	01 00 00 00 	nop 
4000e3dc:	01 00 00 00 	nop 

4000e3e0 <HW_trap_0x3e>:
4000e3e0:	91 d0 20 00 	ta  0
4000e3e4:	01 00 00 00 	nop 
4000e3e8:	01 00 00 00 	nop 
4000e3ec:	01 00 00 00 	nop 

4000e3f0 <HW_trap_0x3f>:
4000e3f0:	91 d0 20 00 	ta  0
4000e3f4:	01 00 00 00 	nop 
4000e3f8:	01 00 00 00 	nop 
4000e3fc:	01 00 00 00 	nop 

4000e400 <HW_trap_0x40>:
4000e400:	91 d0 20 00 	ta  0
4000e404:	01 00 00 00 	nop 
4000e408:	01 00 00 00 	nop 
4000e40c:	01 00 00 00 	nop 

4000e410 <HW_trap_0x41>:
4000e410:	91 d0 20 00 	ta  0
4000e414:	01 00 00 00 	nop 
4000e418:	01 00 00 00 	nop 
4000e41c:	01 00 00 00 	nop 

4000e420 <HW_trap_0x42>:
4000e420:	91 d0 20 00 	ta  0
4000e424:	01 00 00 00 	nop 
4000e428:	01 00 00 00 	nop 
4000e42c:	01 00 00 00 	nop 

4000e430 <HW_trap_0x43>:
4000e430:	91 d0 20 00 	ta  0
4000e434:	01 00 00 00 	nop 
4000e438:	01 00 00 00 	nop 
4000e43c:	01 00 00 00 	nop 

4000e440 <HW_trap_0x44>:
4000e440:	91 d0 20 00 	ta  0
4000e444:	01 00 00 00 	nop 
4000e448:	01 00 00 00 	nop 
4000e44c:	01 00 00 00 	nop 

4000e450 <HW_trap_0x45>:
4000e450:	91 d0 20 00 	ta  0
4000e454:	01 00 00 00 	nop 
4000e458:	01 00 00 00 	nop 
4000e45c:	01 00 00 00 	nop 

4000e460 <HW_trap_0x46>:
4000e460:	91 d0 20 00 	ta  0
4000e464:	01 00 00 00 	nop 
4000e468:	01 00 00 00 	nop 
4000e46c:	01 00 00 00 	nop 

4000e470 <HW_trap_0x47>:
4000e470:	91 d0 20 00 	ta  0
4000e474:	01 00 00 00 	nop 
4000e478:	01 00 00 00 	nop 
4000e47c:	01 00 00 00 	nop 

4000e480 <HW_trap_0x48>:
4000e480:	91 d0 20 00 	ta  0
4000e484:	01 00 00 00 	nop 
4000e488:	01 00 00 00 	nop 
4000e48c:	01 00 00 00 	nop 

4000e490 <HW_trap_0x49>:
4000e490:	91 d0 20 00 	ta  0
4000e494:	01 00 00 00 	nop 
4000e498:	01 00 00 00 	nop 
4000e49c:	01 00 00 00 	nop 

4000e4a0 <HW_trap_0x4a>:
4000e4a0:	91 d0 20 00 	ta  0
4000e4a4:	01 00 00 00 	nop 
4000e4a8:	01 00 00 00 	nop 
4000e4ac:	01 00 00 00 	nop 

4000e4b0 <HW_trap_0x4b>:
4000e4b0:	91 d0 20 00 	ta  0
4000e4b4:	01 00 00 00 	nop 
4000e4b8:	01 00 00 00 	nop 
4000e4bc:	01 00 00 00 	nop 

4000e4c0 <HW_trap_0x4c>:
4000e4c0:	91 d0 20 00 	ta  0
4000e4c4:	01 00 00 00 	nop 
4000e4c8:	01 00 00 00 	nop 
4000e4cc:	01 00 00 00 	nop 

4000e4d0 <HW_trap_0x4d>:
4000e4d0:	91 d0 20 00 	ta  0
4000e4d4:	01 00 00 00 	nop 
4000e4d8:	01 00 00 00 	nop 
4000e4dc:	01 00 00 00 	nop 

4000e4e0 <HW_trap_0x4e>:
4000e4e0:	91 d0 20 00 	ta  0
4000e4e4:	01 00 00 00 	nop 
4000e4e8:	01 00 00 00 	nop 
4000e4ec:	01 00 00 00 	nop 

4000e4f0 <HW_trap_0x4f>:
4000e4f0:	91 d0 20 00 	ta  0
4000e4f4:	01 00 00 00 	nop 
4000e4f8:	01 00 00 00 	nop 
4000e4fc:	01 00 00 00 	nop 

4000e500 <HW_trap_0x50>:
4000e500:	91 d0 20 00 	ta  0
4000e504:	01 00 00 00 	nop 
4000e508:	01 00 00 00 	nop 
4000e50c:	01 00 00 00 	nop 

4000e510 <HW_trap_0x51>:
4000e510:	91 d0 20 00 	ta  0
4000e514:	01 00 00 00 	nop 
4000e518:	01 00 00 00 	nop 
4000e51c:	01 00 00 00 	nop 

4000e520 <HW_trap_0x52>:
4000e520:	91 d0 20 00 	ta  0
4000e524:	01 00 00 00 	nop 
4000e528:	01 00 00 00 	nop 
4000e52c:	01 00 00 00 	nop 

4000e530 <HW_trap_0x53>:
4000e530:	91 d0 20 00 	ta  0
4000e534:	01 00 00 00 	nop 
4000e538:	01 00 00 00 	nop 
4000e53c:	01 00 00 00 	nop 

4000e540 <HW_trap_0x54>:
4000e540:	91 d0 20 00 	ta  0
4000e544:	01 00 00 00 	nop 
4000e548:	01 00 00 00 	nop 
4000e54c:	01 00 00 00 	nop 

4000e550 <HW_trap_0x55>:
4000e550:	91 d0 20 00 	ta  0
4000e554:	01 00 00 00 	nop 
4000e558:	01 00 00 00 	nop 
4000e55c:	01 00 00 00 	nop 

4000e560 <HW_trap_0x56>:
4000e560:	91 d0 20 00 	ta  0
4000e564:	01 00 00 00 	nop 
4000e568:	01 00 00 00 	nop 
4000e56c:	01 00 00 00 	nop 

4000e570 <HW_trap_0x57>:
4000e570:	91 d0 20 00 	ta  0
4000e574:	01 00 00 00 	nop 
4000e578:	01 00 00 00 	nop 
4000e57c:	01 00 00 00 	nop 

4000e580 <HW_trap_0x58>:
4000e580:	91 d0 20 00 	ta  0
4000e584:	01 00 00 00 	nop 
4000e588:	01 00 00 00 	nop 
4000e58c:	01 00 00 00 	nop 

4000e590 <HW_trap_0x59>:
4000e590:	91 d0 20 00 	ta  0
4000e594:	01 00 00 00 	nop 
4000e598:	01 00 00 00 	nop 
4000e59c:	01 00 00 00 	nop 

4000e5a0 <HW_trap_0x5a>:
4000e5a0:	91 d0 20 00 	ta  0
4000e5a4:	01 00 00 00 	nop 
4000e5a8:	01 00 00 00 	nop 
4000e5ac:	01 00 00 00 	nop 

4000e5b0 <HW_trap_0x5b>:
4000e5b0:	91 d0 20 00 	ta  0
4000e5b4:	01 00 00 00 	nop 
4000e5b8:	01 00 00 00 	nop 
4000e5bc:	01 00 00 00 	nop 

4000e5c0 <HW_trap_0x5c>:
4000e5c0:	91 d0 20 00 	ta  0
4000e5c4:	01 00 00 00 	nop 
4000e5c8:	01 00 00 00 	nop 
4000e5cc:	01 00 00 00 	nop 

4000e5d0 <HW_trap_0x5d>:
4000e5d0:	91 d0 20 00 	ta  0
4000e5d4:	01 00 00 00 	nop 
4000e5d8:	01 00 00 00 	nop 
4000e5dc:	01 00 00 00 	nop 

4000e5e0 <HW_trap_0x5e>:
4000e5e0:	91 d0 20 00 	ta  0
4000e5e4:	01 00 00 00 	nop 
4000e5e8:	01 00 00 00 	nop 
4000e5ec:	01 00 00 00 	nop 

4000e5f0 <HW_trap_0x5f>:
4000e5f0:	91 d0 20 00 	ta  0
4000e5f4:	01 00 00 00 	nop 
4000e5f8:	01 00 00 00 	nop 
4000e5fc:	01 00 00 00 	nop 

4000e600 <HW_trap_0x60>:
4000e600:	91 d0 20 00 	ta  0
4000e604:	01 00 00 00 	nop 
4000e608:	01 00 00 00 	nop 
4000e60c:	01 00 00 00 	nop 

4000e610 <HW_trap_0x61>:
4000e610:	91 d0 20 00 	ta  0
4000e614:	01 00 00 00 	nop 
4000e618:	01 00 00 00 	nop 
4000e61c:	01 00 00 00 	nop 

4000e620 <HW_trap_0x62>:
4000e620:	91 d0 20 00 	ta  0
4000e624:	01 00 00 00 	nop 
4000e628:	01 00 00 00 	nop 
4000e62c:	01 00 00 00 	nop 

4000e630 <HW_trap_0x63>:
4000e630:	91 d0 20 00 	ta  0
4000e634:	01 00 00 00 	nop 
4000e638:	01 00 00 00 	nop 
4000e63c:	01 00 00 00 	nop 

4000e640 <HW_trap_0x64>:
4000e640:	91 d0 20 00 	ta  0
4000e644:	01 00 00 00 	nop 
4000e648:	01 00 00 00 	nop 
4000e64c:	01 00 00 00 	nop 

4000e650 <HW_trap_0x65>:
4000e650:	91 d0 20 00 	ta  0
4000e654:	01 00 00 00 	nop 
4000e658:	01 00 00 00 	nop 
4000e65c:	01 00 00 00 	nop 

4000e660 <HW_trap_0x66>:
4000e660:	91 d0 20 00 	ta  0
4000e664:	01 00 00 00 	nop 
4000e668:	01 00 00 00 	nop 
4000e66c:	01 00 00 00 	nop 

4000e670 <HW_trap_0x67>:
4000e670:	91 d0 20 00 	ta  0
4000e674:	01 00 00 00 	nop 
4000e678:	01 00 00 00 	nop 
4000e67c:	01 00 00 00 	nop 

4000e680 <HW_trap_0x68>:
4000e680:	91 d0 20 00 	ta  0
4000e684:	01 00 00 00 	nop 
4000e688:	01 00 00 00 	nop 
4000e68c:	01 00 00 00 	nop 

4000e690 <HW_trap_0x69>:
4000e690:	91 d0 20 00 	ta  0
4000e694:	01 00 00 00 	nop 
4000e698:	01 00 00 00 	nop 
4000e69c:	01 00 00 00 	nop 

4000e6a0 <HW_trap_0x6a>:
4000e6a0:	91 d0 20 00 	ta  0
4000e6a4:	01 00 00 00 	nop 
4000e6a8:	01 00 00 00 	nop 
4000e6ac:	01 00 00 00 	nop 

4000e6b0 <HW_trap_0x6b>:
4000e6b0:	91 d0 20 00 	ta  0
4000e6b4:	01 00 00 00 	nop 
4000e6b8:	01 00 00 00 	nop 
4000e6bc:	01 00 00 00 	nop 

4000e6c0 <HW_trap_0x6c>:
4000e6c0:	91 d0 20 00 	ta  0
4000e6c4:	01 00 00 00 	nop 
4000e6c8:	01 00 00 00 	nop 
4000e6cc:	01 00 00 00 	nop 

4000e6d0 <HW_trap_0x6d>:
4000e6d0:	91 d0 20 00 	ta  0
4000e6d4:	01 00 00 00 	nop 
4000e6d8:	01 00 00 00 	nop 
4000e6dc:	01 00 00 00 	nop 

4000e6e0 <HW_trap_0x6e>:
4000e6e0:	91 d0 20 00 	ta  0
4000e6e4:	01 00 00 00 	nop 
4000e6e8:	01 00 00 00 	nop 
4000e6ec:	01 00 00 00 	nop 

4000e6f0 <HW_trap_0x6f>:
4000e6f0:	91 d0 20 00 	ta  0
4000e6f4:	01 00 00 00 	nop 
4000e6f8:	01 00 00 00 	nop 
4000e6fc:	01 00 00 00 	nop 

4000e700 <HW_trap_0x70>:
4000e700:	91 d0 20 00 	ta  0
4000e704:	01 00 00 00 	nop 
4000e708:	01 00 00 00 	nop 
4000e70c:	01 00 00 00 	nop 

4000e710 <HW_trap_0x71>:
4000e710:	91 d0 20 00 	ta  0
4000e714:	01 00 00 00 	nop 
4000e718:	01 00 00 00 	nop 
4000e71c:	01 00 00 00 	nop 

4000e720 <HW_trap_0x72>:
4000e720:	91 d0 20 00 	ta  0
4000e724:	01 00 00 00 	nop 
4000e728:	01 00 00 00 	nop 
4000e72c:	01 00 00 00 	nop 

4000e730 <HW_trap_0x73>:
4000e730:	91 d0 20 00 	ta  0
4000e734:	01 00 00 00 	nop 
4000e738:	01 00 00 00 	nop 
4000e73c:	01 00 00 00 	nop 

4000e740 <HW_trap_0x74>:
4000e740:	91 d0 20 00 	ta  0
4000e744:	01 00 00 00 	nop 
4000e748:	01 00 00 00 	nop 
4000e74c:	01 00 00 00 	nop 

4000e750 <HW_trap_0x75>:
4000e750:	91 d0 20 00 	ta  0
4000e754:	01 00 00 00 	nop 
4000e758:	01 00 00 00 	nop 
4000e75c:	01 00 00 00 	nop 

4000e760 <HW_trap_0x76>:
4000e760:	91 d0 20 00 	ta  0
4000e764:	01 00 00 00 	nop 
4000e768:	01 00 00 00 	nop 
4000e76c:	01 00 00 00 	nop 

4000e770 <HW_trap_0x77>:
4000e770:	91 d0 20 00 	ta  0
4000e774:	01 00 00 00 	nop 
4000e778:	01 00 00 00 	nop 
4000e77c:	01 00 00 00 	nop 

4000e780 <HW_trap_0x78>:
4000e780:	91 d0 20 00 	ta  0
4000e784:	01 00 00 00 	nop 
4000e788:	01 00 00 00 	nop 
4000e78c:	01 00 00 00 	nop 

4000e790 <HW_trap_0x79>:
4000e790:	91 d0 20 00 	ta  0
4000e794:	01 00 00 00 	nop 
4000e798:	01 00 00 00 	nop 
4000e79c:	01 00 00 00 	nop 

4000e7a0 <HW_trap_0x7a>:
4000e7a0:	91 d0 20 00 	ta  0
4000e7a4:	01 00 00 00 	nop 
4000e7a8:	01 00 00 00 	nop 
4000e7ac:	01 00 00 00 	nop 

4000e7b0 <HW_trap_0x7b>:
4000e7b0:	91 d0 20 00 	ta  0
4000e7b4:	01 00 00 00 	nop 
4000e7b8:	01 00 00 00 	nop 
4000e7bc:	01 00 00 00 	nop 

4000e7c0 <HW_trap_0x7c>:
4000e7c0:	91 d0 20 00 	ta  0
4000e7c4:	01 00 00 00 	nop 
4000e7c8:	01 00 00 00 	nop 
4000e7cc:	01 00 00 00 	nop 

4000e7d0 <HW_trap_0x7d>:
4000e7d0:	91 d0 20 00 	ta  0
4000e7d4:	01 00 00 00 	nop 
4000e7d8:	01 00 00 00 	nop 
4000e7dc:	01 00 00 00 	nop 

4000e7e0 <HW_trap_0x7e>:
4000e7e0:	91 d0 20 00 	ta  0
4000e7e4:	01 00 00 00 	nop 
4000e7e8:	01 00 00 00 	nop 
4000e7ec:	01 00 00 00 	nop 

4000e7f0 <HW_trap_0x7f>:
4000e7f0:	91 d0 20 00 	ta  0
4000e7f4:	01 00 00 00 	nop 
4000e7f8:	01 00 00 00 	nop 
4000e7fc:	01 00 00 00 	nop 

4000e800 <SW_trap_0x80>:
4000e800:	91 d0 20 00 	ta  0
4000e804:	01 00 00 00 	nop 
4000e808:	01 00 00 00 	nop 
4000e80c:	01 00 00 00 	nop 

4000e810 <SW_trap_0x81>:
4000e810:	a1 48 00 00 	rd  %psr, %l0
4000e814:	a7 58 00 00 	rd  %tbr, %l3
4000e818:	10 bf f2 40 	b  4000b118 <generic_vectored_sw_trap>
4000e81c:	01 00 00 00 	nop 

4000e820 <SW_trap_0x82>:
4000e820:	a1 48 00 00 	rd  %psr, %l0
4000e824:	a7 58 00 00 	rd  %tbr, %l3
4000e828:	10 bf f2 3c 	b  4000b118 <generic_vectored_sw_trap>
4000e82c:	01 00 00 00 	nop 

4000e830 <SW_trap_0x83>:
4000e830:	a1 48 00 00 	rd  %psr, %l0
4000e834:	a7 58 00 00 	rd  %tbr, %l3
4000e838:	10 bf f2 38 	b  4000b118 <generic_vectored_sw_trap>
4000e83c:	01 00 00 00 	nop 

4000e840 <SW_trap_0x84>:
4000e840:	a1 48 00 00 	rd  %psr, %l0
4000e844:	a7 58 00 00 	rd  %tbr, %l3
4000e848:	10 bf f2 34 	b  4000b118 <generic_vectored_sw_trap>
4000e84c:	01 00 00 00 	nop 

4000e850 <SW_trap_0x85>:
4000e850:	a1 48 00 00 	rd  %psr, %l0
4000e854:	a7 58 00 00 	rd  %tbr, %l3
4000e858:	10 bf f2 30 	b  4000b118 <generic_vectored_sw_trap>
4000e85c:	01 00 00 00 	nop 

4000e860 <SW_trap_0x86>:
4000e860:	a1 48 00 00 	rd  %psr, %l0
4000e864:	a7 58 00 00 	rd  %tbr, %l3
4000e868:	10 bf f2 2c 	b  4000b118 <generic_vectored_sw_trap>
4000e86c:	01 00 00 00 	nop 

4000e870 <SW_trap_0x87>:
4000e870:	a1 48 00 00 	rd  %psr, %l0
4000e874:	a7 58 00 00 	rd  %tbr, %l3
4000e878:	10 bf f2 28 	b  4000b118 <generic_vectored_sw_trap>
4000e87c:	01 00 00 00 	nop 

4000e880 <SW_trap_0x88>:
4000e880:	a1 48 00 00 	rd  %psr, %l0
4000e884:	a7 58 00 00 	rd  %tbr, %l3
4000e888:	10 bf f2 24 	b  4000b118 <generic_vectored_sw_trap>
4000e88c:	01 00 00 00 	nop 

4000e890 <SW_trap_0x89>:
4000e890:	a1 48 00 00 	rd  %psr, %l0
4000e894:	a7 58 00 00 	rd  %tbr, %l3
4000e898:	10 bf f2 20 	b  4000b118 <generic_vectored_sw_trap>
4000e89c:	01 00 00 00 	nop 

4000e8a0 <SW_trap_0x8a>:
4000e8a0:	a1 48 00 00 	rd  %psr, %l0
4000e8a4:	a7 58 00 00 	rd  %tbr, %l3
4000e8a8:	10 bf f2 1c 	b  4000b118 <generic_vectored_sw_trap>
4000e8ac:	01 00 00 00 	nop 

4000e8b0 <SW_trap_0x8b>:
4000e8b0:	a1 48 00 00 	rd  %psr, %l0
4000e8b4:	a7 58 00 00 	rd  %tbr, %l3
4000e8b8:	10 bf f2 18 	b  4000b118 <generic_vectored_sw_trap>
4000e8bc:	01 00 00 00 	nop 

4000e8c0 <SW_trap_0x8c>:
4000e8c0:	a1 48 00 00 	rd  %psr, %l0
4000e8c4:	a7 58 00 00 	rd  %tbr, %l3
4000e8c8:	10 bf f2 14 	b  4000b118 <generic_vectored_sw_trap>
4000e8cc:	01 00 00 00 	nop 

4000e8d0 <SW_trap_0x8d>:
4000e8d0:	a1 48 00 00 	rd  %psr, %l0
4000e8d4:	a7 58 00 00 	rd  %tbr, %l3
4000e8d8:	10 bf f2 10 	b  4000b118 <generic_vectored_sw_trap>
4000e8dc:	01 00 00 00 	nop 

4000e8e0 <SW_trap_0x8e>:
4000e8e0:	a1 48 00 00 	rd  %psr, %l0
4000e8e4:	a7 58 00 00 	rd  %tbr, %l3
4000e8e8:	10 bf f2 0c 	b  4000b118 <generic_vectored_sw_trap>
4000e8ec:	01 00 00 00 	nop 

4000e8f0 <SW_trap_0x8f>:
4000e8f0:	a1 48 00 00 	rd  %psr, %l0
4000e8f4:	a7 58 00 00 	rd  %tbr, %l3
4000e8f8:	10 bf f2 08 	b  4000b118 <generic_vectored_sw_trap>
4000e8fc:	01 00 00 00 	nop 

4000e900 <SW_trap_0x90>:
4000e900:	a1 48 00 00 	rd  %psr, %l0
4000e904:	a7 58 00 00 	rd  %tbr, %l3
4000e908:	10 bf f2 44 	b  4000b218 <generic_read_asr>
4000e90c:	01 00 00 00 	nop 

4000e910 <SW_trap_0x91>:
4000e910:	10 bf f3 12 	b  4000b558 <generic_sys_go_to_supervisor>
4000e914:	01 00 00 00 	nop 
4000e918:	01 00 00 00 	nop 
4000e91c:	01 00 00 00 	nop 

4000e920 <SW_trap_0x92>:
4000e920:	91 d0 20 00 	ta  0
4000e924:	01 00 00 00 	nop 
4000e928:	01 00 00 00 	nop 
4000e92c:	01 00 00 00 	nop 

4000e930 <SW_trap_0x93>:
4000e930:	91 d0 20 00 	ta  0
4000e934:	01 00 00 00 	nop 
4000e938:	01 00 00 00 	nop 
4000e93c:	01 00 00 00 	nop 

4000e940 <SW_trap_0x94>:
4000e940:	91 d0 20 00 	ta  0
4000e944:	01 00 00 00 	nop 
4000e948:	01 00 00 00 	nop 
4000e94c:	01 00 00 00 	nop 

4000e950 <SW_trap_0x95>:
4000e950:	91 d0 20 00 	ta  0
4000e954:	01 00 00 00 	nop 
4000e958:	01 00 00 00 	nop 
4000e95c:	01 00 00 00 	nop 

4000e960 <SW_trap_0x96>:
4000e960:	91 d0 20 00 	ta  0
4000e964:	01 00 00 00 	nop 
4000e968:	01 00 00 00 	nop 
4000e96c:	01 00 00 00 	nop 

4000e970 <SW_trap_0x97>:
4000e970:	91 d0 20 00 	ta  0
4000e974:	01 00 00 00 	nop 
4000e978:	01 00 00 00 	nop 
4000e97c:	01 00 00 00 	nop 

4000e980 <SW_trap_0x98>:
4000e980:	91 d0 20 00 	ta  0
4000e984:	01 00 00 00 	nop 
4000e988:	01 00 00 00 	nop 
4000e98c:	01 00 00 00 	nop 

4000e990 <SW_trap_0x99>:
4000e990:	91 d0 20 00 	ta  0
4000e994:	01 00 00 00 	nop 
4000e998:	01 00 00 00 	nop 
4000e99c:	01 00 00 00 	nop 

4000e9a0 <SW_trap_0x9a>:
4000e9a0:	91 d0 20 00 	ta  0
4000e9a4:	01 00 00 00 	nop 
4000e9a8:	01 00 00 00 	nop 
4000e9ac:	01 00 00 00 	nop 

4000e9b0 <SW_trap_0x9b>:
4000e9b0:	91 d0 20 00 	ta  0
4000e9b4:	01 00 00 00 	nop 
4000e9b8:	01 00 00 00 	nop 
4000e9bc:	01 00 00 00 	nop 

4000e9c0 <SW_trap_0x9c>:
4000e9c0:	91 d0 20 00 	ta  0
4000e9c4:	01 00 00 00 	nop 
4000e9c8:	01 00 00 00 	nop 
4000e9cc:	01 00 00 00 	nop 

4000e9d0 <SW_trap_0x9d>:
4000e9d0:	91 d0 20 00 	ta  0
4000e9d4:	01 00 00 00 	nop 
4000e9d8:	01 00 00 00 	nop 
4000e9dc:	01 00 00 00 	nop 

4000e9e0 <SW_trap_0x9e>:
4000e9e0:	91 d0 20 00 	ta  0
4000e9e4:	01 00 00 00 	nop 
4000e9e8:	01 00 00 00 	nop 
4000e9ec:	01 00 00 00 	nop 

4000e9f0 <SW_trap_0x9f>:
4000e9f0:	91 d0 20 00 	ta  0
4000e9f4:	01 00 00 00 	nop 
4000e9f8:	01 00 00 00 	nop 
4000e9fc:	01 00 00 00 	nop 

4000ea00 <SW_trap_0xa0>:
4000ea00:	91 d0 20 00 	ta  0
4000ea04:	01 00 00 00 	nop 
4000ea08:	01 00 00 00 	nop 
4000ea0c:	01 00 00 00 	nop 

4000ea10 <SW_trap_0xa1>:
4000ea10:	91 d0 20 00 	ta  0
4000ea14:	01 00 00 00 	nop 
4000ea18:	01 00 00 00 	nop 
4000ea1c:	01 00 00 00 	nop 

4000ea20 <SW_trap_0xa2>:
4000ea20:	91 d0 20 00 	ta  0
4000ea24:	01 00 00 00 	nop 
4000ea28:	01 00 00 00 	nop 
4000ea2c:	01 00 00 00 	nop 

4000ea30 <SW_trap_0xa3>:
4000ea30:	91 d0 20 00 	ta  0
4000ea34:	01 00 00 00 	nop 
4000ea38:	01 00 00 00 	nop 
4000ea3c:	01 00 00 00 	nop 

4000ea40 <SW_trap_0xa4>:
4000ea40:	91 d0 20 00 	ta  0
4000ea44:	01 00 00 00 	nop 
4000ea48:	01 00 00 00 	nop 
4000ea4c:	01 00 00 00 	nop 

4000ea50 <SW_trap_0xa5>:
4000ea50:	91 d0 20 00 	ta  0
4000ea54:	01 00 00 00 	nop 
4000ea58:	01 00 00 00 	nop 
4000ea5c:	01 00 00 00 	nop 

4000ea60 <SW_trap_0xa6>:
4000ea60:	91 d0 20 00 	ta  0
4000ea64:	01 00 00 00 	nop 
4000ea68:	01 00 00 00 	nop 
4000ea6c:	01 00 00 00 	nop 

4000ea70 <SW_trap_0xa7>:
4000ea70:	91 d0 20 00 	ta  0
4000ea74:	01 00 00 00 	nop 
4000ea78:	01 00 00 00 	nop 
4000ea7c:	01 00 00 00 	nop 

4000ea80 <SW_trap_0xa8>:
4000ea80:	91 d0 20 00 	ta  0
4000ea84:	01 00 00 00 	nop 
4000ea88:	01 00 00 00 	nop 
4000ea8c:	01 00 00 00 	nop 

4000ea90 <SW_trap_0xa9>:
4000ea90:	91 d0 20 00 	ta  0
4000ea94:	01 00 00 00 	nop 
4000ea98:	01 00 00 00 	nop 
4000ea9c:	01 00 00 00 	nop 

4000eaa0 <SW_trap_0xaa>:
4000eaa0:	91 d0 20 00 	ta  0
4000eaa4:	01 00 00 00 	nop 
4000eaa8:	01 00 00 00 	nop 
4000eaac:	01 00 00 00 	nop 

4000eab0 <SW_trap_0xab>:
4000eab0:	91 d0 20 00 	ta  0
4000eab4:	01 00 00 00 	nop 
4000eab8:	01 00 00 00 	nop 
4000eabc:	01 00 00 00 	nop 

4000eac0 <SW_trap_0xac>:
4000eac0:	91 d0 20 00 	ta  0
4000eac4:	01 00 00 00 	nop 
4000eac8:	01 00 00 00 	nop 
4000eacc:	01 00 00 00 	nop 

4000ead0 <SW_trap_0xad>:
4000ead0:	91 d0 20 00 	ta  0
4000ead4:	01 00 00 00 	nop 
4000ead8:	01 00 00 00 	nop 
4000eadc:	01 00 00 00 	nop 

4000eae0 <SW_trap_0xae>:
4000eae0:	91 d0 20 00 	ta  0
4000eae4:	01 00 00 00 	nop 
4000eae8:	01 00 00 00 	nop 
4000eaec:	01 00 00 00 	nop 

4000eaf0 <SW_trap_0xaf>:
4000eaf0:	91 d0 20 00 	ta  0
4000eaf4:	01 00 00 00 	nop 
4000eaf8:	01 00 00 00 	nop 
4000eafc:	01 00 00 00 	nop 

4000eb00 <SW_trap_0xb0>:
4000eb00:	91 d0 20 00 	ta  0
4000eb04:	01 00 00 00 	nop 
4000eb08:	01 00 00 00 	nop 
4000eb0c:	01 00 00 00 	nop 

4000eb10 <SW_trap_0xb1>:
4000eb10:	91 d0 20 00 	ta  0
4000eb14:	01 00 00 00 	nop 
4000eb18:	01 00 00 00 	nop 
4000eb1c:	01 00 00 00 	nop 

4000eb20 <SW_trap_0xb2>:
4000eb20:	91 d0 20 00 	ta  0
4000eb24:	01 00 00 00 	nop 
4000eb28:	01 00 00 00 	nop 
4000eb2c:	01 00 00 00 	nop 

4000eb30 <SW_trap_0xb3>:
4000eb30:	91 d0 20 00 	ta  0
4000eb34:	01 00 00 00 	nop 
4000eb38:	01 00 00 00 	nop 
4000eb3c:	01 00 00 00 	nop 

4000eb40 <SW_trap_0xb4>:
4000eb40:	91 d0 20 00 	ta  0
4000eb44:	01 00 00 00 	nop 
4000eb48:	01 00 00 00 	nop 
4000eb4c:	01 00 00 00 	nop 

4000eb50 <SW_trap_0xb5>:
4000eb50:	91 d0 20 00 	ta  0
4000eb54:	01 00 00 00 	nop 
4000eb58:	01 00 00 00 	nop 
4000eb5c:	01 00 00 00 	nop 

4000eb60 <SW_trap_0xb6>:
4000eb60:	91 d0 20 00 	ta  0
4000eb64:	01 00 00 00 	nop 
4000eb68:	01 00 00 00 	nop 
4000eb6c:	01 00 00 00 	nop 

4000eb70 <SW_trap_0xb7>:
4000eb70:	91 d0 20 00 	ta  0
4000eb74:	01 00 00 00 	nop 
4000eb78:	01 00 00 00 	nop 
4000eb7c:	01 00 00 00 	nop 

4000eb80 <SW_trap_0xb8>:
4000eb80:	91 d0 20 00 	ta  0
4000eb84:	01 00 00 00 	nop 
4000eb88:	01 00 00 00 	nop 
4000eb8c:	01 00 00 00 	nop 

4000eb90 <SW_trap_0xb9>:
4000eb90:	91 d0 20 00 	ta  0
4000eb94:	01 00 00 00 	nop 
4000eb98:	01 00 00 00 	nop 
4000eb9c:	01 00 00 00 	nop 

4000eba0 <SW_trap_0xba>:
4000eba0:	91 d0 20 00 	ta  0
4000eba4:	01 00 00 00 	nop 
4000eba8:	01 00 00 00 	nop 
4000ebac:	01 00 00 00 	nop 

4000ebb0 <SW_trap_0xbb>:
4000ebb0:	91 d0 20 00 	ta  0
4000ebb4:	01 00 00 00 	nop 
4000ebb8:	01 00 00 00 	nop 
4000ebbc:	01 00 00 00 	nop 

4000ebc0 <SW_trap_0xbc>:
4000ebc0:	91 d0 20 00 	ta  0
4000ebc4:	01 00 00 00 	nop 
4000ebc8:	01 00 00 00 	nop 
4000ebcc:	01 00 00 00 	nop 

4000ebd0 <SW_trap_0xbd>:
4000ebd0:	91 d0 20 00 	ta  0
4000ebd4:	01 00 00 00 	nop 
4000ebd8:	01 00 00 00 	nop 
4000ebdc:	01 00 00 00 	nop 

4000ebe0 <SW_trap_0xbe>:
4000ebe0:	91 d0 20 00 	ta  0
4000ebe4:	01 00 00 00 	nop 
4000ebe8:	01 00 00 00 	nop 
4000ebec:	01 00 00 00 	nop 

4000ebf0 <SW_trap_0xbf>:
4000ebf0:	91 d0 20 00 	ta  0
4000ebf4:	01 00 00 00 	nop 
4000ebf8:	01 00 00 00 	nop 
4000ebfc:	01 00 00 00 	nop 

4000ec00 <SW_trap_0xc0>:
4000ec00:	91 d0 20 00 	ta  0
4000ec04:	01 00 00 00 	nop 
4000ec08:	01 00 00 00 	nop 
4000ec0c:	01 00 00 00 	nop 

4000ec10 <SW_trap_0xc1>:
4000ec10:	91 d0 20 00 	ta  0
4000ec14:	01 00 00 00 	nop 
4000ec18:	01 00 00 00 	nop 
4000ec1c:	01 00 00 00 	nop 

4000ec20 <SW_trap_0xc2>:
4000ec20:	91 d0 20 00 	ta  0
4000ec24:	01 00 00 00 	nop 
4000ec28:	01 00 00 00 	nop 
4000ec2c:	01 00 00 00 	nop 

4000ec30 <SW_trap_0xc3>:
4000ec30:	91 d0 20 00 	ta  0
4000ec34:	01 00 00 00 	nop 
4000ec38:	01 00 00 00 	nop 
4000ec3c:	01 00 00 00 	nop 

4000ec40 <SW_trap_0xc4>:
4000ec40:	91 d0 20 00 	ta  0
4000ec44:	01 00 00 00 	nop 
4000ec48:	01 00 00 00 	nop 
4000ec4c:	01 00 00 00 	nop 

4000ec50 <SW_trap_0xc5>:
4000ec50:	91 d0 20 00 	ta  0
4000ec54:	01 00 00 00 	nop 
4000ec58:	01 00 00 00 	nop 
4000ec5c:	01 00 00 00 	nop 

4000ec60 <SW_trap_0xc6>:
4000ec60:	91 d0 20 00 	ta  0
4000ec64:	01 00 00 00 	nop 
4000ec68:	01 00 00 00 	nop 
4000ec6c:	01 00 00 00 	nop 

4000ec70 <SW_trap_0xc7>:
4000ec70:	91 d0 20 00 	ta  0
4000ec74:	01 00 00 00 	nop 
4000ec78:	01 00 00 00 	nop 
4000ec7c:	01 00 00 00 	nop 

4000ec80 <SW_trap_0xc8>:
4000ec80:	91 d0 20 00 	ta  0
4000ec84:	01 00 00 00 	nop 
4000ec88:	01 00 00 00 	nop 
4000ec8c:	01 00 00 00 	nop 

4000ec90 <SW_trap_0xc9>:
4000ec90:	91 d0 20 00 	ta  0
4000ec94:	01 00 00 00 	nop 
4000ec98:	01 00 00 00 	nop 
4000ec9c:	01 00 00 00 	nop 

4000eca0 <SW_trap_0xca>:
4000eca0:	91 d0 20 00 	ta  0
4000eca4:	01 00 00 00 	nop 
4000eca8:	01 00 00 00 	nop 
4000ecac:	01 00 00 00 	nop 

4000ecb0 <SW_trap_0xcb>:
4000ecb0:	91 d0 20 00 	ta  0
4000ecb4:	01 00 00 00 	nop 
4000ecb8:	01 00 00 00 	nop 
4000ecbc:	01 00 00 00 	nop 

4000ecc0 <SW_trap_0xcc>:
4000ecc0:	91 d0 20 00 	ta  0
4000ecc4:	01 00 00 00 	nop 
4000ecc8:	01 00 00 00 	nop 
4000eccc:	01 00 00 00 	nop 

4000ecd0 <SW_trap_0xcd>:
4000ecd0:	91 d0 20 00 	ta  0
4000ecd4:	01 00 00 00 	nop 
4000ecd8:	01 00 00 00 	nop 
4000ecdc:	01 00 00 00 	nop 

4000ece0 <SW_trap_0xce>:
4000ece0:	91 d0 20 00 	ta  0
4000ece4:	01 00 00 00 	nop 
4000ece8:	01 00 00 00 	nop 
4000ecec:	01 00 00 00 	nop 

4000ecf0 <SW_trap_0xcf>:
4000ecf0:	91 d0 20 00 	ta  0
4000ecf4:	01 00 00 00 	nop 
4000ecf8:	01 00 00 00 	nop 
4000ecfc:	01 00 00 00 	nop 

4000ed00 <SW_trap_0xd0>:
4000ed00:	91 d0 20 00 	ta  0
4000ed04:	01 00 00 00 	nop 
4000ed08:	01 00 00 00 	nop 
4000ed0c:	01 00 00 00 	nop 

4000ed10 <SW_trap_0xd1>:
4000ed10:	91 d0 20 00 	ta  0
4000ed14:	01 00 00 00 	nop 
4000ed18:	01 00 00 00 	nop 
4000ed1c:	01 00 00 00 	nop 

4000ed20 <SW_trap_0xd2>:
4000ed20:	91 d0 20 00 	ta  0
4000ed24:	01 00 00 00 	nop 
4000ed28:	01 00 00 00 	nop 
4000ed2c:	01 00 00 00 	nop 

4000ed30 <SW_trap_0xd3>:
4000ed30:	91 d0 20 00 	ta  0
4000ed34:	01 00 00 00 	nop 
4000ed38:	01 00 00 00 	nop 
4000ed3c:	01 00 00 00 	nop 

4000ed40 <SW_trap_0xd4>:
4000ed40:	91 d0 20 00 	ta  0
4000ed44:	01 00 00 00 	nop 
4000ed48:	01 00 00 00 	nop 
4000ed4c:	01 00 00 00 	nop 

4000ed50 <SW_trap_0xd5>:
4000ed50:	91 d0 20 00 	ta  0
4000ed54:	01 00 00 00 	nop 
4000ed58:	01 00 00 00 	nop 
4000ed5c:	01 00 00 00 	nop 

4000ed60 <SW_trap_0xd6>:
4000ed60:	91 d0 20 00 	ta  0
4000ed64:	01 00 00 00 	nop 
4000ed68:	01 00 00 00 	nop 
4000ed6c:	01 00 00 00 	nop 

4000ed70 <SW_trap_0xd7>:
4000ed70:	91 d0 20 00 	ta  0
4000ed74:	01 00 00 00 	nop 
4000ed78:	01 00 00 00 	nop 
4000ed7c:	01 00 00 00 	nop 

4000ed80 <SW_trap_0xd8>:
4000ed80:	91 d0 20 00 	ta  0
4000ed84:	01 00 00 00 	nop 
4000ed88:	01 00 00 00 	nop 
4000ed8c:	01 00 00 00 	nop 

4000ed90 <SW_trap_0xd9>:
4000ed90:	91 d0 20 00 	ta  0
4000ed94:	01 00 00 00 	nop 
4000ed98:	01 00 00 00 	nop 
4000ed9c:	01 00 00 00 	nop 

4000eda0 <SW_trap_0xda>:
4000eda0:	91 d0 20 00 	ta  0
4000eda4:	01 00 00 00 	nop 
4000eda8:	01 00 00 00 	nop 
4000edac:	01 00 00 00 	nop 

4000edb0 <SW_trap_0xdb>:
4000edb0:	91 d0 20 00 	ta  0
4000edb4:	01 00 00 00 	nop 
4000edb8:	01 00 00 00 	nop 
4000edbc:	01 00 00 00 	nop 

4000edc0 <SW_trap_0xdc>:
4000edc0:	91 d0 20 00 	ta  0
4000edc4:	01 00 00 00 	nop 
4000edc8:	01 00 00 00 	nop 
4000edcc:	01 00 00 00 	nop 

4000edd0 <SW_trap_0xdd>:
4000edd0:	91 d0 20 00 	ta  0
4000edd4:	01 00 00 00 	nop 
4000edd8:	01 00 00 00 	nop 
4000eddc:	01 00 00 00 	nop 

4000ede0 <SW_trap_0xde>:
4000ede0:	91 d0 20 00 	ta  0
4000ede4:	01 00 00 00 	nop 
4000ede8:	01 00 00 00 	nop 
4000edec:	01 00 00 00 	nop 

4000edf0 <SW_trap_0xdf>:
4000edf0:	91 d0 20 00 	ta  0
4000edf4:	01 00 00 00 	nop 
4000edf8:	01 00 00 00 	nop 
4000edfc:	01 00 00 00 	nop 

4000ee00 <SW_trap_0xe0>:
4000ee00:	91 d0 20 00 	ta  0
4000ee04:	01 00 00 00 	nop 
4000ee08:	01 00 00 00 	nop 
4000ee0c:	01 00 00 00 	nop 

4000ee10 <SW_trap_0xe1>:
4000ee10:	91 d0 20 00 	ta  0
4000ee14:	01 00 00 00 	nop 
4000ee18:	01 00 00 00 	nop 
4000ee1c:	01 00 00 00 	nop 

4000ee20 <SW_trap_0xe2>:
4000ee20:	91 d0 20 00 	ta  0
4000ee24:	01 00 00 00 	nop 
4000ee28:	01 00 00 00 	nop 
4000ee2c:	01 00 00 00 	nop 

4000ee30 <SW_trap_0xe3>:
4000ee30:	91 d0 20 00 	ta  0
4000ee34:	01 00 00 00 	nop 
4000ee38:	01 00 00 00 	nop 
4000ee3c:	01 00 00 00 	nop 

4000ee40 <SW_trap_0xe4>:
4000ee40:	91 d0 20 00 	ta  0
4000ee44:	01 00 00 00 	nop 
4000ee48:	01 00 00 00 	nop 
4000ee4c:	01 00 00 00 	nop 

4000ee50 <SW_trap_0xe5>:
4000ee50:	91 d0 20 00 	ta  0
4000ee54:	01 00 00 00 	nop 
4000ee58:	01 00 00 00 	nop 
4000ee5c:	01 00 00 00 	nop 

4000ee60 <SW_trap_0xe6>:
4000ee60:	91 d0 20 00 	ta  0
4000ee64:	01 00 00 00 	nop 
4000ee68:	01 00 00 00 	nop 
4000ee6c:	01 00 00 00 	nop 

4000ee70 <SW_trap_0xe7>:
4000ee70:	91 d0 20 00 	ta  0
4000ee74:	01 00 00 00 	nop 
4000ee78:	01 00 00 00 	nop 
4000ee7c:	01 00 00 00 	nop 

4000ee80 <SW_trap_0xe8>:
4000ee80:	91 d0 20 00 	ta  0
4000ee84:	01 00 00 00 	nop 
4000ee88:	01 00 00 00 	nop 
4000ee8c:	01 00 00 00 	nop 

4000ee90 <SW_trap_0xe9>:
4000ee90:	91 d0 20 00 	ta  0
4000ee94:	01 00 00 00 	nop 
4000ee98:	01 00 00 00 	nop 
4000ee9c:	01 00 00 00 	nop 

4000eea0 <SW_trap_0xea>:
4000eea0:	91 d0 20 00 	ta  0
4000eea4:	01 00 00 00 	nop 
4000eea8:	01 00 00 00 	nop 
4000eeac:	01 00 00 00 	nop 

4000eeb0 <SW_trap_0xeb>:
4000eeb0:	91 d0 20 00 	ta  0
4000eeb4:	01 00 00 00 	nop 
4000eeb8:	01 00 00 00 	nop 
4000eebc:	01 00 00 00 	nop 

4000eec0 <SW_trap_0xec>:
4000eec0:	91 d0 20 00 	ta  0
4000eec4:	01 00 00 00 	nop 
4000eec8:	01 00 00 00 	nop 
4000eecc:	01 00 00 00 	nop 

4000eed0 <SW_trap_0xed>:
4000eed0:	91 d0 20 00 	ta  0
4000eed4:	01 00 00 00 	nop 
4000eed8:	01 00 00 00 	nop 
4000eedc:	01 00 00 00 	nop 

4000eee0 <SW_trap_0xee>:
4000eee0:	91 d0 20 00 	ta  0
4000eee4:	01 00 00 00 	nop 
4000eee8:	01 00 00 00 	nop 
4000eeec:	01 00 00 00 	nop 

4000eef0 <SW_trap_0xef>:
4000eef0:	91 d0 20 00 	ta  0
4000eef4:	01 00 00 00 	nop 
4000eef8:	01 00 00 00 	nop 
4000eefc:	01 00 00 00 	nop 

4000ef00 <SW_trap_0xf0>:
4000ef00:	91 d0 20 00 	ta  0
4000ef04:	01 00 00 00 	nop 
4000ef08:	01 00 00 00 	nop 
4000ef0c:	01 00 00 00 	nop 

4000ef10 <SW_trap_0xf1>:
4000ef10:	91 d0 20 00 	ta  0
4000ef14:	01 00 00 00 	nop 
4000ef18:	01 00 00 00 	nop 
4000ef1c:	01 00 00 00 	nop 

4000ef20 <SW_trap_0xf2>:
4000ef20:	91 d0 20 00 	ta  0
4000ef24:	01 00 00 00 	nop 
4000ef28:	01 00 00 00 	nop 
4000ef2c:	01 00 00 00 	nop 

4000ef30 <SW_trap_0xf3>:
4000ef30:	91 d0 20 00 	ta  0
4000ef34:	01 00 00 00 	nop 
4000ef38:	01 00 00 00 	nop 
4000ef3c:	01 00 00 00 	nop 

4000ef40 <SW_trap_0xf4>:
4000ef40:	91 d0 20 00 	ta  0
4000ef44:	01 00 00 00 	nop 
4000ef48:	01 00 00 00 	nop 
4000ef4c:	01 00 00 00 	nop 

4000ef50 <SW_trap_0xf5>:
4000ef50:	91 d0 20 00 	ta  0
4000ef54:	01 00 00 00 	nop 
4000ef58:	01 00 00 00 	nop 
4000ef5c:	01 00 00 00 	nop 

4000ef60 <SW_trap_0xf6>:
4000ef60:	91 d0 20 00 	ta  0
4000ef64:	01 00 00 00 	nop 
4000ef68:	01 00 00 00 	nop 
4000ef6c:	01 00 00 00 	nop 

4000ef70 <SW_trap_0xf7>:
4000ef70:	91 d0 20 00 	ta  0
4000ef74:	01 00 00 00 	nop 
4000ef78:	01 00 00 00 	nop 
4000ef7c:	01 00 00 00 	nop 

4000ef80 <SW_trap_0xf8>:
4000ef80:	91 d0 20 00 	ta  0
4000ef84:	01 00 00 00 	nop 
4000ef88:	01 00 00 00 	nop 
4000ef8c:	01 00 00 00 	nop 

4000ef90 <SW_trap_0xf9>:
4000ef90:	91 d0 20 00 	ta  0
4000ef94:	01 00 00 00 	nop 
4000ef98:	01 00 00 00 	nop 
4000ef9c:	01 00 00 00 	nop 

4000efa0 <SW_trap_0xfa>:
4000efa0:	91 d0 20 00 	ta  0
4000efa4:	01 00 00 00 	nop 
4000efa8:	01 00 00 00 	nop 
4000efac:	01 00 00 00 	nop 

4000efb0 <SW_trap_0xfb>:
4000efb0:	91 d0 20 00 	ta  0
4000efb4:	01 00 00 00 	nop 
4000efb8:	01 00 00 00 	nop 
4000efbc:	01 00 00 00 	nop 

4000efc0 <SW_trap_0xfc>:
4000efc0:	91 d0 20 00 	ta  0
4000efc4:	01 00 00 00 	nop 
4000efc8:	01 00 00 00 	nop 
4000efcc:	01 00 00 00 	nop 

4000efd0 <SW_trap_0xfd>:
4000efd0:	91 d0 20 00 	ta  0
4000efd4:	01 00 00 00 	nop 
4000efd8:	01 00 00 00 	nop 
4000efdc:	01 00 00 00 	nop 

4000efe0 <SW_trap_0xfe>:
4000efe0:	91 d0 20 00 	ta  0
4000efe4:	01 00 00 00 	nop 
4000efe8:	01 00 00 00 	nop 
4000efec:	01 00 00 00 	nop 
4000eff0:	01 00 00 00 	nop 
4000eff4:	01 00 00 00 	nop 
4000eff8:	01 00 00 00 	nop 
4000effc:	01 00 00 00 	nop 

4000f000 <__sparc_get_pc_thunk.l7>:
4000f000:	81 c3 e0 08 	retl 
4000f004:	ae 03 c0 17 	add  %o7, %l7, %l7
